# SymbolsHelper-Confirmed: 0.14.0 amd64
libbutl-0.14.so libbutl-staged-0.14 #MINVER#
* Build-Depends-Package: build2-staged-dev
 LZ4_compress_forceExtDict@Base 0.14.0
 LZ4_decompress_safe_forceExtDict@Base 0.14.0
 _ZGVZNKSt8__detail11_AnyMatcherINSt7__cxx1112regex_traitsIcEELb0ELb0ELb0EEclEcE5__nul@Base 0.14.0
 _ZGVZNKSt8__detail11_AnyMatcherINSt7__cxx1112regex_traitsIcEELb0ELb0ELb1EEclEcE5__nul@Base 0.14.0
 _ZGVZNKSt8__detail11_AnyMatcherINSt7__cxx1112regex_traitsIcEELb0ELb1ELb0EEclEcE5__nul@Base 0.14.0
 _ZGVZNKSt8__detail11_AnyMatcherINSt7__cxx1112regex_traitsIcEELb0ELb1ELb1EEclEcE5__nul@Base 0.14.0
 (optional=templinst)_ZN4butl10basic_pathIcNS_13any_path_kindIcEEE9normalizeEbb@Base 0.14.0
 (optional=templinst)_ZN4butl10basic_pathIcNS_13dir_path_kindIcEEED1Ev@Base 0.14.0
 (optional=templinst)_ZN4butl10basic_pathIcNS_13dir_path_kindIcEEED2Ev@Base 0.14.0
 _ZN4butl10cp_options5parseERNS_3cli7scannerENS1_12unknown_modeES4_@Base 0.14.0
 _ZN4butl10cp_options5parseERiPPcS1_bNS_3cli12unknown_modeES5_@Base 0.14.0
 _ZN4butl10cp_options5parseERiPPcbNS_3cli12unknown_modeES5_@Base 0.14.0
 _ZN4butl10cp_options5parseEiRiPPcS1_bNS_3cli12unknown_modeES5_@Base 0.14.0
 _ZN4butl10cp_options5parseEiRiPPcbNS_3cli12unknown_modeES5_@Base 0.14.0
 _ZN4butl10cp_options6_parseEPKcRNS_3cli7scannerE@Base 0.14.0
 _ZN4butl10cp_options6_parseERNS_3cli7scannerENS1_12unknown_modeES4_@Base 0.14.0
 _ZN4butl10cp_optionsC1Ev@Base 0.14.0
 _ZN4butl10cp_optionsC2Ev@Base 0.14.0
 _ZN4butl10dir_existsEPKcb@Base 0.14.0
 _ZN4butl10fdtruncateEim@Base 0.14.0
 _ZN4butl10ln_options5parseERNS_3cli7scannerENS1_12unknown_modeES4_@Base 0.14.0
 _ZN4butl10ln_options5parseERiPPcS1_bNS_3cli12unknown_modeES5_@Base 0.14.0
 _ZN4butl10ln_options5parseERiPPcbNS_3cli12unknown_modeES5_@Base 0.14.0
 _ZN4butl10ln_options5parseEiRiPPcS1_bNS_3cli12unknown_modeES5_@Base 0.14.0
 _ZN4butl10ln_options5parseEiRiPPcbNS_3cli12unknown_modeES5_@Base 0.14.0
 _ZN4butl10ln_options6_parseEPKcRNS_3cli7scannerE@Base 0.14.0
 _ZN4butl10ln_options6_parseERNS_3cli7scannerENS1_12unknown_modeES4_@Base 0.14.0
 _ZN4butl10ln_optionsC1Ev@Base 0.14.0
 _ZN4butl10ln_optionsC2Ev@Base 0.14.0
 _ZN4butl10mkhardlinkERKNS_10basic_pathIcNS_13any_path_kindIcEEEES5_b@Base 0.14.0
 _ZN4butl10mv_options5parseERNS_3cli7scannerENS1_12unknown_modeES4_@Base 0.14.0
 _ZN4butl10mv_options5parseERiPPcS1_bNS_3cli12unknown_modeES5_@Base 0.14.0
 _ZN4butl10mv_options5parseERiPPcbNS_3cli12unknown_modeES5_@Base 0.14.0
 _ZN4butl10mv_options5parseEiRiPPcS1_bNS_3cli12unknown_modeES5_@Base 0.14.0
 _ZN4butl10mv_options5parseEiRiPPcbNS_3cli12unknown_modeES5_@Base 0.14.0
 _ZN4butl10mv_options6_parseEPKcRNS_3cli7scannerE@Base 0.14.0
 _ZN4butl10mv_options6_parseERNS_3cli7scannerENS1_12unknown_modeES4_@Base 0.14.0
 _ZN4butl10mv_optionsC1Ev@Base 0.14.0
 _ZN4butl10mv_optionsC2Ev@Base 0.14.0
 _ZN4butl10path_entryEPKcbb@Base 0.14.0
 _ZN4butl10path_matchERKNS_10basic_pathIcNS_13any_path_kindIcEEEES5_RKNS0_IcNS_13dir_path_kindIcEEEENS_16path_match_flagsE@Base 0.14.0
 _ZN4butl10path_matchERKNSt7__cxx1112basic_stringIcSt11char_traitsIcESaIcEEES7_@Base 0.14.0
 _ZN4butl10rm_options5parseERNS_3cli7scannerENS1_12unknown_modeES4_@Base 0.14.0
 _ZN4butl10rm_options5parseERiPPcS1_bNS_3cli12unknown_modeES5_@Base 0.14.0
 _ZN4butl10rm_options5parseERiPPcbNS_3cli12unknown_modeES5_@Base 0.14.0
 _ZN4butl10rm_options5parseEiRiPPcS1_bNS_3cli12unknown_modeES5_@Base 0.14.0
 _ZN4butl10rm_options5parseEiRiPPcbNS_3cli12unknown_modeES5_@Base 0.14.0
 _ZN4butl10rm_options6_parseEPKcRNS_3cli7scannerE@Base 0.14.0
 _ZN4butl10rm_options6_parseERNS_3cli7scannerENS1_12unknown_modeES4_@Base 0.14.0
 _ZN4butl10rm_optionsC1Ev@Base 0.14.0
 _ZN4butl10rm_optionsC2Ev@Base 0.14.0
 _ZN4butl10tab_parser4nextEv@Base 0.14.0
 _ZN4butl10touch_fileERKNS_10basic_pathIcNS_13any_path_kindIcEEEEb@Base 0.14.0
 _ZN4butl11builtin_mapD1Ev@Base 0.14.0
 _ZN4butl11builtin_mapD2Ev@Base 0.14.0
 _ZN4butl11cat_options5parseERNS_3cli7scannerENS1_12unknown_modeES4_@Base 0.14.0
 _ZN4butl11cat_options5parseERiPPcS1_bNS_3cli12unknown_modeES5_@Base 0.14.0
 _ZN4butl11cat_options5parseERiPPcbNS_3cli12unknown_modeES5_@Base 0.14.0
 _ZN4butl11cat_options5parseEiRiPPcS1_bNS_3cli12unknown_modeES5_@Base 0.14.0
 _ZN4butl11cat_options5parseEiRiPPcbNS_3cli12unknown_modeES5_@Base 0.14.0
 _ZN4butl11cat_options6_parseEPKcRNS_3cli7scannerE@Base 0.14.0
 _ZN4butl11cat_options6_parseERNS_3cli7scannerENS1_12unknown_modeES4_@Base 0.14.0
 _ZN4butl11cat_optionsC1Ev@Base 0.14.0
 _ZN4butl11cat_optionsC2Ev@Base 0.14.0
 (optional=templinst)_ZN4butl11command_runERKNSt7__cxx1112basic_stringIcSt11char_traitsIcESaIcEEERKSt8optionalINS_11process_envEERKS8_ISt3mapIS5_S5_St4lessIS5_ESaISt4pairIS6_S5_EEEEcRKSt8functionIFvPKPKcmEE@Base 0.14.0
 _ZN4butl11diag_record6writerE@Base 0.14.0
 _ZN4butl11diag_recordD1Ev@Base 0.14.0
 _ZN4butl11diag_recordD2Ev@Base 0.14.0
 _ZN4butl11diag_streamE@Base 0.14.0
 _ZN4butl11fdopen_nullEv@Base 0.14.0
 _ZN4butl11fdopen_pipeENS_11fdopen_modeE@Base 0.14.0
 _ZN4butl11file_existsEPKcbb@Base 0.14.0
 _ZN4butl11from_stringEPKcS1_bPS1_@Base 0.14.0
 _ZN4butl11git_versionERKNSt7__cxx1112basic_stringIcSt11char_traitsIcESaIcEEE@Base 0.14.0
 (optional=templinst)_ZN4butl11path_searchERKNS_10basic_pathIcNS_13any_path_kindIcEEEERKSt8functionIFbOS3_RKNSt7__cxx1112basic_stringIcSt11char_traitsIcESaIcEEEbEERKNS0_IcNS_13dir_path_kindIcEEEENS_16path_match_flagsE@Base 0.14.0
 (optional=templinst)_ZN4butl11path_searchERKNS_10basic_pathIcNS_13any_path_kindIcEEEES5_RKSt8functionIFbOS3_RKNSt7__cxx1112basic_stringIcSt11char_traitsIcESaIcEEEbEERKNS0_IcNS_13dir_path_kindIcEEEENS_16path_match_flagsE@Base 0.14.0
 (optional=templinst)_ZN4butl11path_traitsIcE10normalizedEPKcmb@Base 0.14.0
 (optional=templinst)_ZN4butl11path_traitsIcE14home_directoryB5cxx11Ev@Base 0.14.0
 (optional=templinst)_ZN4butl11path_traitsIcE14temp_directoryB5cxx11Ev@Base 0.14.0
 (optional=templinst)_ZN4butl11path_traitsIcE17current_directoryB5cxx11Ev@Base 0.14.0
 (optional=templinst)_ZN4butl11path_traitsIcE17current_directoryERKNSt7__cxx1112basic_stringIcSt11char_traitsIcESaIcEEE@Base 0.14.0
 (optional=templinst)_ZN4butl11path_traitsIcE7realizeERNSt7__cxx1112basic_stringIcSt11char_traitsIcESaIcEEE@Base 0.14.0
 (optional=templinst)_ZN4butl11path_traitsIcE9temp_nameERKNSt7__cxx1112basic_stringIcSt11char_traitsIcESaIcEEE@Base 0.14.0
 _ZN4butl11process_envD1Ev@Base 0.14.0
 _ZN4butl11process_envD2Ev@Base 0.14.0
 _ZN4butl11readsymlinkERKNS_10basic_pathIcNS_13any_path_kindIcEEEE@Base 0.14.0
 _ZN4butl11sed_options5parseERNS_3cli7scannerENS1_12unknown_modeES4_@Base 0.14.0
 _ZN4butl11sed_options5parseERiPPcS1_bNS_3cli12unknown_modeES5_@Base 0.14.0
 _ZN4butl11sed_options5parseERiPPcbNS_3cli12unknown_modeES5_@Base 0.14.0
 _ZN4butl11sed_options5parseEiRiPPcS1_bNS_3cli12unknown_modeES5_@Base 0.14.0
 _ZN4butl11sed_options5parseEiRiPPcbNS_3cli12unknown_modeES5_@Base 0.14.0
 _ZN4butl11sed_options6_parseEPKcRNS_3cli7scannerE@Base 0.14.0
 _ZN4butl11sed_options6_parseERNS_3cli7scannerENS1_12unknown_modeES4_@Base 0.14.0
 _ZN4butl11sed_optionsC1Ev@Base 0.14.0
 _ZN4butl11sed_optionsC2Ev@Base 0.14.0
 _ZN4butl11tab_parsingC1ERKNSt7__cxx1112basic_stringIcSt11char_traitsIcESaIcEEEmmS8_@Base 0.14.0
 _ZN4butl11tab_parsingC2ERKNSt7__cxx1112basic_stringIcSt11char_traitsIcESaIcEEEmmS8_@Base 0.14.0
 _ZN4butl11tab_parsingD0Ev@Base 0.14.0
 _ZN4butl11tab_parsingD1Ev@Base 0.14.0
 _ZN4butl11tab_parsingD2Ev@Base 0.14.0
 _ZN4butl11thread_env_E@Base 0.14.0
 _ZN4butl11try_mkdir_pERKNS_10basic_pathIcNS_13dir_path_kindIcEEEEj@Base 0.14.0
 (optional=templinst)_ZN4butl12char_scannerINS_14utf8_validatorELm1EE3getERKNS2_5xcharE@Base 0.14.0
 (optional=templinst)_ZN4butl12char_scannerINS_14utf8_validatorELm1EE4peekEPNSt7__cxx1112basic_stringIcSt11char_traitsIcESaIcEEE@Base 0.14.0
 _ZN4butl12date_options5parseERNS_3cli7scannerENS1_12unknown_modeES4_@Base 0.14.0
 _ZN4butl12date_options5parseERiPPcS1_bNS_3cli12unknown_modeES5_@Base 0.14.0
 _ZN4butl12date_options5parseERiPPcbNS_3cli12unknown_modeES5_@Base 0.14.0
 _ZN4butl12date_options5parseEiRiPPcS1_bNS_3cli12unknown_modeES5_@Base 0.14.0
 _ZN4butl12date_options5parseEiRiPPcbNS_3cli12unknown_modeES5_@Base 0.14.0
 _ZN4butl12date_options6_parseEPKcRNS_3cli7scannerE@Base 0.14.0
 _ZN4butl12date_options6_parseERNS_3cli7scannerENS1_12unknown_modeES4_@Base 0.14.0
 _ZN4butl12date_optionsC1Ev@Base 0.14.0
 _ZN4butl12date_optionsC2Ev@Base 0.14.0
 _ZN4butl12dir_iterator4nextEv@Base 0.14.0
 _ZN4butl12dir_iteratorC1ERKNS_10basic_pathIcNS_13dir_path_kindIcEEEEb@Base 0.14.0
 _ZN4butl12dir_iteratorC2ERKNS_10basic_pathIcNS_13dir_path_kindIcEEEEb@Base 0.14.0
 _ZN4butl12dir_iteratorD1Ev@Base 0.14.0
 _ZN4butl12dir_iteratorD2Ev@Base 0.14.0
 _ZN4butl12dir_iteratoraSEOS0_@Base 0.14.0
 _ZN4butl12entry_existsEPKcbb@Base 0.14.0
 _ZN4butl12error_recordC1ERSobPKc@Base 0.14.0
 _ZN4butl12error_recordC2ERSobPKc@Base 0.14.0
 _ZN4butl12error_recordD1Ev@Base 0.14.0
 _ZN4butl12error_recordD2Ev@Base 0.14.0
 _ZN4butl12parse_uint64ERKNSt7__cxx1112basic_stringIcSt11char_traitsIcESaIcEEERmS8_mm@Base 0.14.0
 _ZN4butl12process_exitC1Eh@Base 0.14.0
 _ZN4butl12process_exitC2Eh@Base 0.14.0
 _ZN4butl12process_pathD1Ev@Base 0.14.0
 _ZN4butl12process_pathD2Ev@Base 0.14.0
 _ZN4butl12project_nameC1EONSt7__cxx1112basic_stringIcSt11char_traitsIcESaIcEEE@Base 0.14.0
 _ZN4butl12project_nameC2EONSt7__cxx1112basic_stringIcSt11char_traitsIcESaIcEEE@Base 0.14.0
 (optional=templinst)_ZN4butl12small_vectorINSt7__cxx1112basic_stringIcSt11char_traitsIcESaIcEEELm4EED1Ev@Base 0.14.0
 (optional=templinst)_ZN4butl12small_vectorINSt7__cxx1112basic_stringIcSt11char_traitsIcESaIcEEELm4EED2Ev@Base 0.14.0
 _ZN4butl12test_options5parseERNS_3cli7scannerENS1_12unknown_modeES4_@Base 0.14.0
 _ZN4butl12test_options5parseERiPPcS1_bNS_3cli12unknown_modeES5_@Base 0.14.0
 _ZN4butl12test_options5parseERiPPcbNS_3cli12unknown_modeES5_@Base 0.14.0
 _ZN4butl12test_options5parseEiRiPPcS1_bNS_3cli12unknown_modeES5_@Base 0.14.0
 _ZN4butl12test_options5parseEiRiPPcbNS_3cli12unknown_modeES5_@Base 0.14.0
 _ZN4butl12test_options6_parseEPKcRNS_3cli7scannerE@Base 0.14.0
 _ZN4butl12test_options6_parseERNS_3cli7scannerENS1_12unknown_modeES4_@Base 0.14.0
 _ZN4butl12test_optionsC1Ev@Base 0.14.0
 _ZN4butl12test_optionsC2Ev@Base 0.14.0
 (optional=templinst)_ZN4butl13any_path_kindIcE4initEONSt7__cxx1112basic_stringIcSt11char_traitsIcESaIcEEEb@Base 0.14.0
 _ZN4butl13base64_decodeERKNSt7__cxx1112basic_stringIcSt11char_traitsIcESaIcEEE@Base 0.14.0
 _ZN4butl13base64_decodeERSoRKNSt7__cxx1112basic_stringIcSt11char_traitsIcESaIcEEE@Base 0.14.0
 _ZN4butl13base64_decodeERSoRSi@Base 0.14.0
 _ZN4butl13base64_encodeB5cxx11ERKSt6vectorIcSaIcEE@Base 0.14.0
 _ZN4butl13base64_encodeB5cxx11ERSi@Base 0.14.0
 _ZN4butl13base64_encodeERSoRSi@Base 0.14.0
 _ZN4butl13diag_progressB5cxx11E@Base 0.14.0
 (optional=templinst)_ZN4butl13dir_path_kindIcE4initEONSt7__cxx1112basic_stringIcSt11char_traitsIcESaIcEEEb@Base 0.14.0
 _ZN4butl13fdstream_baseC1EONS_7auto_fdENS_13fdstream_modeEm@Base 0.14.0
 _ZN4butl13fdstream_baseC2EONS_7auto_fdENS_13fdstream_modeEm@Base 0.14.0
 _ZN4butl13match_bracketEcRKNS_17path_pattern_termE@Base 0.14.0
 _ZN4butl13mkdir_options5parseERNS_3cli7scannerENS1_12unknown_modeES4_@Base 0.14.0
 _ZN4butl13mkdir_options5parseERiPPcS1_bNS_3cli12unknown_modeES5_@Base 0.14.0
 _ZN4butl13mkdir_options5parseERiPPcbNS_3cli12unknown_modeES5_@Base 0.14.0
 _ZN4butl13mkdir_options5parseEiRiPPcS1_bNS_3cli12unknown_modeES5_@Base 0.14.0
 _ZN4butl13mkdir_options5parseEiRiPPcbNS_3cli12unknown_modeES5_@Base 0.14.0
 _ZN4butl13mkdir_options6_parseEPKcRNS_3cli7scannerE@Base 0.14.0
 _ZN4butl13mkdir_options6_parseERNS_3cli7scannerENS1_12unknown_modeES4_@Base 0.14.0
 _ZN4butl13mkdir_optionsC1Ev@Base 0.14.0
 _ZN4butl13mkdir_optionsC2Ev@Base 0.14.0
 _ZN4butl13path_iterator4nextERNS_10basic_pathIcNS_13any_path_kindIcEEEE@Base 0.14.0
 _ZN4butl13process_errorD0Ev@Base 0.14.0
 _ZN4butl13process_errorD1Ev@Base 0.14.0
 _ZN4butl13process_errorD2Ev@Base 0.14.0
 _ZN4butl13process_startEPKNS_10basic_pathIcNS_13dir_path_kindIcEEEERKNS_12process_pathEPPKcPKSA_NS_7process4pipeESF_SF_@Base 0.14.0
 (optional=templinst)_ZN4butl13process_startISt8functionIFvPKPKcmEEiRNS_6fdpipeEiJRNS_12small_vectorINSt7__cxx1112basic_stringIcSt11char_traitsIcESaIcEEELm2EEES3_RA3_S2_RKSt6vectorISG_SaISG_EERA6_S2_SG_EJLm0ELm1ELm2ELm3ELm4ELm5EEEENS_7processESt16integer_sequenceImJXspT4_EEERKT_OT0_OT1_OT2_RKNS_11process_envEDpOT3_@Base 0.14.0
 _ZN4butl13rmdir_options5parseERNS_3cli7scannerENS1_12unknown_modeES4_@Base 0.14.0
 _ZN4butl13rmdir_options5parseERiPPcS1_bNS_3cli12unknown_modeES5_@Base 0.14.0
 _ZN4butl13rmdir_options5parseERiPPcbNS_3cli12unknown_modeES5_@Base 0.14.0
 _ZN4butl13rmdir_options5parseEiRiPPcS1_bNS_3cli12unknown_modeES5_@Base 0.14.0
 _ZN4butl13rmdir_options5parseEiRiPPcbNS_3cli12unknown_modeES5_@Base 0.14.0
 _ZN4butl13rmdir_options6_parseEPKcRNS_3cli7scannerE@Base 0.14.0
 _ZN4butl13rmdir_options6_parseERNS_3cli7scannerENS1_12unknown_modeES4_@Base 0.14.0
 _ZN4butl13rmdir_optionsC1Ev@Base 0.14.0
 _ZN4butl13rmdir_optionsC2Ev@Base 0.14.0
 _ZN4butl13sleep_options5parseERNS_3cli7scannerENS1_12unknown_modeES4_@Base 0.14.0
 _ZN4butl13sleep_options5parseERiPPcS1_bNS_3cli12unknown_modeES5_@Base 0.14.0
 _ZN4butl13sleep_options5parseERiPPcbNS_3cli12unknown_modeES5_@Base 0.14.0
 _ZN4butl13sleep_options5parseEiRiPPcS1_bNS_3cli12unknown_modeES5_@Base 0.14.0
 _ZN4butl13sleep_options5parseEiRiPPcbNS_3cli12unknown_modeES5_@Base 0.14.0
 _ZN4butl13sleep_options6_parseEPKcRNS_3cli7scannerE@Base 0.14.0
 _ZN4butl13sleep_options6_parseERNS_3cli7scannerENS1_12unknown_modeES4_@Base 0.14.0
 _ZN4butl13sleep_optionsC1Ev@Base 0.14.0
 _ZN4butl13sleep_optionsC2Ev@Base 0.14.0
 _ZN4butl13string_parser12parse_quotedERKNSt7__cxx1112basic_stringIcSt11char_traitsIcESaIcEEEb@Base 0.14.0
 _ZN4butl13string_parser14invalid_stringD0Ev@Base 0.14.0
 _ZN4butl13string_parser14invalid_stringD1Ev@Base 0.14.0
 _ZN4butl13string_parser14invalid_stringD2Ev@Base 0.14.0
 _ZN4butl13string_parser21parse_quoted_positionERKNSt7__cxx1112basic_stringIcSt11char_traitsIcESaIcEEEb@Base 0.14.0
 _ZN4butl13string_parser7unquoteERKNSt7__cxx1112basic_stringIcSt11char_traitsIcESaIcEEE@Base 0.14.0
 _ZN4butl13string_parser7unquoteERKSt6vectorINSt7__cxx1112basic_stringIcSt11char_traitsIcESaIcEEESaIS7_EE@Base 0.14.0
 _ZN4butl13touch_options5parseERNS_3cli7scannerENS1_12unknown_modeES4_@Base 0.14.0
 _ZN4butl13touch_options5parseERiPPcS1_bNS_3cli12unknown_modeES5_@Base 0.14.0
 _ZN4butl13touch_options5parseERiPPcbNS_3cli12unknown_modeES5_@Base 0.14.0
 _ZN4butl13touch_options5parseEiRiPPcS1_bNS_3cli12unknown_modeES5_@Base 0.14.0
 _ZN4butl13touch_options5parseEiRiPPcbNS_3cli12unknown_modeES5_@Base 0.14.0
 _ZN4butl13touch_options6_parseEPKcRNS_3cli7scannerE@Base 0.14.0
 _ZN4butl13touch_options6_parseERNS_3cli7scannerENS1_12unknown_modeES4_@Base 0.14.0
 _ZN4butl13touch_optionsC1Ev@Base 0.14.0
 _ZN4butl13touch_optionsC2Ev@Base 0.14.0
 _ZN4butl13try_rmsymlinkERKNS_10basic_pathIcNS_13any_path_kindIcEEEEbb@Base 0.14.0
 _ZN4butl14b_project_info10subprojectD1Ev@Base 0.14.0
 _ZN4butl14b_project_info10subprojectD2Ev@Base 0.14.0
 _ZN4butl14b_project_infoD1Ev@Base 0.14.0
 _ZN4butl14b_project_infoD2Ev@Base 0.14.0
 (optional=templinst)_ZN4butl14basic_url_hostINSt7__cxx1112basic_stringIcSt11char_traitsIcESaIcEEEEC1ES6_@Base 0.14.0
 (optional=templinst)_ZN4butl14basic_url_hostINSt7__cxx1112basic_stringIcSt11char_traitsIcESaIcEEEEC2ES6_@Base 0.14.0
 _ZN4butl14git_repositoryERKNS_10basic_pathIcNS_13dir_path_kindIcEEEE@Base 0.14.0
 _ZN4butl14parse_manifestERNS_15manifest_parserERSt6vectorINS_19manifest_name_valueESaIS3_EE@Base 0.14.0
 (optional=templinst)_ZN4butl14path_cast_implIcNS_13dir_path_kindIcEENS_13any_path_kindIcEEEENS_10basic_pathIT_T0_EEONS5_IS6_T1_EEPS8_@Base 0.14.0
 (optional=templinst)_ZN4butl14path_cast_implIcNS_13dir_path_kindIcEENS_13any_path_kindIcEEEENS_10basic_pathIT_T0_EERKNS5_IS6_T1_EEPS8_@Base 0.14.0
 _ZN4butl14target_tripletC1ERKNSt7__cxx1112basic_stringIcSt11char_traitsIcESaIcEEE@Base 0.14.0
 _ZN4butl14target_tripletC2ERKNSt7__cxx1112basic_stringIcSt11char_traitsIcESaIcEEE@Base 0.14.0
 _ZN4butl14utf8_validator8validateEcPNSt7__cxx1112basic_stringIcSt11char_traitsIcESaIcEEE@Base 0.14.0
 _ZN4butl15manifest_parser10parse_nameERNS_19manifest_name_valueE@Base 0.14.0
 _ZN4butl15manifest_parser10parse_nextERNS_19manifest_name_valueE@Base 0.14.0
 _ZN4butl15manifest_parser11parse_valueERNS_19manifest_name_valueE@Base 0.14.0
 _ZN4butl15manifest_parser11skip_spacesEv@Base 0.14.0
 _ZN4butl15manifest_parser13split_commentERKNSt7__cxx1112basic_stringIcSt11char_traitsIcESaIcEEE@Base 0.14.0
 _ZN4butl15path_filesystem8completeERKNS_10basic_pathIcNS_13any_path_kindIcEEEE@Base 0.14.0
 _ZN4butl15uuid_throw_weakEv@Base 0.14.0
 _ZN4butl16diag_stream_lockC1Ev@Base 0.14.0
 _ZN4butl16diag_stream_lockC2Ev@Base 0.14.0
 _ZN4butl16diag_stream_lockD1Ev@Base 0.14.0
 _ZN4butl16diag_stream_lockD2Ev@Base 0.14.0
 _ZN4butl16manifest_parsingC1ERKNSt7__cxx1112basic_stringIcSt11char_traitsIcESaIcEEE@Base 0.14.0
 _ZN4butl16manifest_parsingC1ERKNSt7__cxx1112basic_stringIcSt11char_traitsIcESaIcEEEmmS8_@Base 0.14.0
 _ZN4butl16manifest_parsingC2ERKNSt7__cxx1112basic_stringIcSt11char_traitsIcESaIcEEE@Base 0.14.0
 _ZN4butl16manifest_parsingC2ERKNSt7__cxx1112basic_stringIcSt11char_traitsIcESaIcEEEmmS8_@Base 0.14.0
 _ZN4butl16manifest_parsingD0Ev@Base 0.14.0
 _ZN4butl16manifest_parsingD1Ev@Base 0.14.0
 _ZN4butl16manifest_parsingD2Ev@Base 0.14.0
 _ZN4butl16path_permissionsERKNS_10basic_pathIcNS_13any_path_kindIcEEEE@Base 0.14.0
 _ZN4butl16path_permissionsERKNS_10basic_pathIcNS_13any_path_kindIcEEEENS_11permissionsE@Base 0.14.0
 _ZN4butl16semantic_versionC1ERKNSt7__cxx1112basic_stringIcSt11char_traitsIcESaIcEEEmPKc@Base 0.14.0
 _ZN4butl16semantic_versionC1EmNSt7__cxx1112basic_stringIcSt11char_traitsIcESaIcEEE@Base 0.14.0
 _ZN4butl16semantic_versionC2ERKNSt7__cxx1112basic_stringIcSt11char_traitsIcESaIcEEEmPKc@Base 0.14.0
 _ZN4butl16semantic_versionC2EmNSt7__cxx1112basic_stringIcSt11char_traitsIcESaIcEEE@Base 0.14.0
 _ZN4butl16standard_versionC1ERKNSt7__cxx1112basic_stringIcSt11char_traitsIcESaIcEEENS0_5flagsE@Base 0.14.0
 _ZN4butl16standard_versionC1EmNS0_5flagsE@Base 0.14.0
 _ZN4butl16standard_versionC1EmRKNSt7__cxx1112basic_stringIcSt11char_traitsIcESaIcEEENS0_5flagsE@Base 0.14.0
 _ZN4butl16standard_versionC1EtmRKNSt7__cxx1112basic_stringIcSt11char_traitsIcESaIcEEEtNS0_5flagsE@Base 0.14.0
 _ZN4butl16standard_versionC1EtmmNSt7__cxx1112basic_stringIcSt11char_traitsIcESaIcEEEtNS0_5flagsE@Base 0.14.0
 _ZN4butl16standard_versionC2ERKNSt7__cxx1112basic_stringIcSt11char_traitsIcESaIcEEENS0_5flagsE@Base 0.14.0
 _ZN4butl16standard_versionC2EmNS0_5flagsE@Base 0.14.0
 _ZN4butl16standard_versionC2EmRKNSt7__cxx1112basic_stringIcSt11char_traitsIcESaIcEEENS0_5flagsE@Base 0.14.0
 _ZN4butl16standard_versionC2EtmRKNSt7__cxx1112basic_stringIcSt11char_traitsIcESaIcEEEtNS0_5flagsE@Base 0.14.0
 _ZN4butl16standard_versionC2EtmmNSt7__cxx1112basic_stringIcSt11char_traitsIcESaIcEEEtNS0_5flagsE@Base 0.14.0
 _ZN4butl17builtin_callbacksD1Ev@Base 0.14.0
 _ZN4butl17builtin_callbacksD2Ev@Base 0.14.0
 (optional=templinst)_ZN4butl17current_directoryERKNS_10basic_pathIcNS_13dir_path_kindIcEEEERKSt8functionIFNS_12error_recordEvEE@Base 0.14.0
 _ZN4butl17invalid_path_baseC1Ev@Base 0.14.0
 _ZN4butl17invalid_path_baseC2Ev@Base 0.14.0
 _ZN4butl17invalid_path_baseD0Ev@Base 0.14.0
 _ZN4butl17invalid_path_baseD1Ev@Base 0.14.0
 _ZN4butl17invalid_path_baseD2Ev@Base 0.14.0
 _ZN4butl17manifest_rewriter6insertERKNS_19manifest_name_valueES3_@Base 0.14.0
 _ZN4butl17manifest_rewriter7replaceERKNS_19manifest_name_valueE@Base 0.14.0
 _ZN4butl17manifest_rewriterC1ENS_10basic_pathIcNS_13any_path_kindIcEEEEb@Base 0.14.0
 _ZN4butl17manifest_rewriterC2ENS_10basic_pathIcNS_13any_path_kindIcEEEEb@Base 0.14.0
 _ZN4butl17try_followsymlinkERKNS_10basic_pathIcNS_13any_path_kindIcEEEE@Base 0.14.0
 _ZN4butl18command_substituteERKNSt7__cxx1112basic_stringIcSt11char_traitsIcESaIcEEEmRKSt3mapIS5_S5_St4lessIS5_ESaISt4pairIS6_S5_EEEcc@Base 0.14.0
 (optional=templinst)_ZN4butl18command_substituteERKNSt7__cxx1112basic_stringIcSt11char_traitsIcESaIcEEEmRKSt8functionIFbS7_RS5_EEcc@Base 0.14.0
 _ZN4butl18diag_progress_lockC1Ev@Base 0.14.0
 _ZN4butl18diag_progress_lockC2Ev@Base 0.14.0
 _ZN4butl18diag_progress_lockD1Ev@Base 0.14.0
 _ZN4butl18diag_progress_lockD2Ev@Base 0.14.0
 (optional=templinst)_ZN4butl18invalid_basic_pathIcEC1ERKNSt7__cxx1112basic_stringIcSt11char_traitsIcESaIcEEE@Base 0.14.0
 (optional=templinst)_ZN4butl18invalid_basic_pathIcEC2ERKNSt7__cxx1112basic_stringIcSt11char_traitsIcESaIcEEE@Base 0.14.0
 (optional=templinst)_ZN4butl18invalid_basic_pathIcED0Ev@Base 0.14.0
 (optional=templinst)_ZN4butl18invalid_basic_pathIcED1Ev@Base 0.14.0
 (optional=templinst)_ZN4butl18invalid_basic_pathIcED2Ev@Base 0.14.0
 _ZN4butl18open_file_or_stdinERNS_15basic_path_nameINS_10basic_pathIcNS_13any_path_kindIcEEEEEERNS_9ifdstreamE@Base 0.14.0
 _ZN4butl18serialize_manifestERNS_19manifest_serializerERKSt6vectorINS_19manifest_name_valueESaIS3_EEb@Base 0.14.0
 _ZN4butl18throw_system_errorEii@Base 0.14.0
 _ZN4butl18try_parse_manifestERNS_15manifest_parserERSt6vectorINS_19manifest_name_valueESaIS3_EE@Base 0.14.0
 (optional=templinst)_ZN4butl19basic_url_authorityINSt7__cxx1112basic_stringIcSt11char_traitsIcESaIcEEEED1Ev@Base 0.14.0
 (optional=templinst)_ZN4butl19basic_url_authorityINSt7__cxx1112basic_stringIcSt11char_traitsIcESaIcEEEED2Ev@Base 0.14.0
 _ZN4butl19manifest_name_valueD1Ev@Base 0.14.0
 _ZN4butl19manifest_name_valueD2Ev@Base 0.14.0
 _ZN4butl19manifest_serializer10write_nameERKNSt7__cxx1112basic_stringIcSt11char_traitsIcESaIcEEE@Base 0.14.0
 _ZN4butl19manifest_serializer10write_nextERKNSt7__cxx1112basic_stringIcSt11char_traitsIcESaIcEEES8_@Base 0.14.0
 _ZN4butl19manifest_serializer11write_valueEPKcmm@Base 0.14.0
 _ZN4butl19manifest_serializer11write_valueERKNSt7__cxx1112basic_stringIcSt11char_traitsIcESaIcEEEm@Base 0.14.0
 _ZN4butl19manifest_serializer13merge_commentERKNSt7__cxx1112basic_stringIcSt11char_traitsIcESaIcEEES8_@Base 0.14.0
 _ZN4butl19manifest_serializer7commentERKNSt7__cxx1112basic_stringIcSt11char_traitsIcESaIcEEE@Base 0.14.0
 _ZN4butl19manifest_serializerD1Ev@Base 0.14.0
 _ZN4butl19manifest_serializerD2Ev@Base 0.14.0
 _ZN4butl19open_file_or_stdoutERNS_15basic_path_nameINS_10basic_pathIcNS_13any_path_kindIcEEEEEERNS_9ofdstreamE@Base 0.14.0
 _ZN4butl19process_spawn_mutexE@Base 0.14.0
 (optional=templinst)_ZN4butl19regex_replace_parseIcEESt4pairINSt7__cxx1112basic_stringIT_St11char_traitsIS4_ESaIS4_EEES8_EPKS4_mRm@Base 0.14.0
 _ZN4butl19throw_generic_errorEiPKc@Base 0.14.0
 (optional=templinst)_ZN4butl20regex_replace_searchIcZNS_20regex_replace_searchIcEESt4pairINSt7__cxx1112basic_stringIT_St11char_traitsIS5_ESaIS5_EEEbERKS9_RKNS3_11basic_regexIS5_NS3_12regex_traitsIS5_EEEESC_NSt15regex_constants15match_flag_typeEEUlN9__gnu_cxx17__normal_iteratorIPKcNS4_IcS6_IcESaIcEEEEESS_E_EEbSC_SI_SC_OT0_SK_@Base 0.14.0
 _ZN4butl21codepoint_type_lookupEDi@Base 0.14.0
 _ZN4butl21default_options_startERKSt8optionalINS_10basic_pathIcNS_13dir_path_kindIcEEEEERKSt6vectorIS4_SaIS4_EE@Base 0.14.0
 _ZN4butl21fingerprint_to_sha256ERKNSt7__cxx1112basic_stringIcSt11char_traitsIcESaIcEEEm@Base 0.14.0
 _ZN4butl21path_pattern_iterator4nextEv@Base 0.14.0
 _ZN4butl21sha256_to_fingerprintERKNSt7__cxx1112basic_stringIcSt11char_traitsIcESaIcEEE@Base 0.14.0
 _ZN4butl21uuid_system_generator10initializeEv@Base 0.14.0
 _ZN4butl21uuid_system_generator8generateEb@Base 0.14.0
 _ZN4butl21uuid_system_generator9terminateEv@Base 0.14.0
 _ZN4butl21uuid_system_generatorD0Ev@Base 0.14.0
 _ZN4butl21uuid_system_generatorD1Ev@Base 0.14.0
 _ZN4butl21uuid_system_generatorD2Ev@Base 0.14.0
 _ZN4butl22manifest_serializationC1ERKNSt7__cxx1112basic_stringIcSt11char_traitsIcESaIcEEES8_@Base 0.14.0
 _ZN4butl22manifest_serializationC2ERKNSt7__cxx1112basic_stringIcSt11char_traitsIcESaIcEEES8_@Base 0.14.0
 _ZN4butl22manifest_serializationD0Ev@Base 0.14.0
 _ZN4butl22manifest_serializationD1Ev@Base 0.14.0
 _ZN4butl22manifest_serializationD2Ev@Base 0.14.0
 _ZN4butl22parse_standard_versionERKNSt7__cxx1112basic_stringIcSt11char_traitsIcESaIcEEENS_16standard_version5flagsE@Base 0.14.0
 _ZN4butl22recursive_dir_iterator4nextERNS_10basic_pathIcNS_13any_path_kindIcEEEE@Base 0.14.0
 _ZN4butl22recursive_dir_iterator4openENS_10basic_pathIcNS_13dir_path_kindIcEEEEb@Base 0.14.0
 _ZN4butl22recursive_dir_iteratorD1Ev@Base 0.14.0
 _ZN4butl22recursive_dir_iteratorD2Ev@Base 0.14.0
 _ZN4butl24_cli_cp_options_map_initC1Ev@Base 0.14.0
 _ZN4butl24_cli_cp_options_map_initC2Ev@Base 0.14.0
 _ZN4butl24_cli_ln_options_map_initC1Ev@Base 0.14.0
 _ZN4butl24_cli_ln_options_map_initC2Ev@Base 0.14.0
 _ZN4butl24_cli_mv_options_map_initC1Ev@Base 0.14.0
 _ZN4butl24_cli_mv_options_map_initC2Ev@Base 0.14.0
 _ZN4butl24_cli_rm_options_map_initC1Ev@Base 0.14.0
 _ZN4butl24_cli_rm_options_map_initC2Ev@Base 0.14.0
 _ZN4butl24throw_system_ios_failureEiPKc@Base 0.14.0
 _ZN4butl25_cli_sed_options_map_initC1Ev@Base 0.14.0
 _ZN4butl25_cli_sed_options_map_initC2Ev@Base 0.14.0
 _ZN4butl25throw_generic_ios_failureEiPKc@Base 0.14.0
 _ZN4butl26_cli_date_options_map_initC1Ev@Base 0.14.0
 _ZN4butl26_cli_date_options_map_initC2Ev@Base 0.14.0
 _ZN4butl26_cli_test_options_map_initC1Ev@Base 0.14.0
 _ZN4butl26_cli_test_options_map_initC2Ev@Base 0.14.0
 _ZN4butl27_cli_mkdir_options_map_initC1Ev@Base 0.14.0
 _ZN4butl27_cli_mkdir_options_map_initC2Ev@Base 0.14.0
 _ZN4butl27_cli_rmdir_options_map_initC1Ev@Base 0.14.0
 _ZN4butl27_cli_rmdir_options_map_initC2Ev@Base 0.14.0
 _ZN4butl27_cli_touch_options_map_initC1Ev@Base 0.14.0
 _ZN4butl27_cli_touch_options_map_initC2Ev@Base 0.14.0
 _ZN4butl27parse_semantic_version_implERKNSt7__cxx1112basic_stringIcSt11char_traitsIcESaIcEEEmPKc@Base 0.14.0
 (optional=templinst)_ZN4butl27regex_replace_match_resultsIcEENSt7__cxx1112basic_stringIT_St11char_traitsIS3_ESaIS3_EEERKNS1_13match_resultsINS7_14const_iteratorESaINS1_9sub_matchIS9_EEEEEPKS3_m@Base 0.14.0
 _ZN4butl27standard_version_constraintC1ERKNSt7__cxx1112basic_stringIcSt11char_traitsIcESaIcEEE@Base 0.14.0
 _ZN4butl27standard_version_constraintC1ERKNSt7__cxx1112basic_stringIcSt11char_traitsIcESaIcEEERKNS_16standard_versionE@Base 0.14.0
 _ZN4butl27standard_version_constraintC1ESt8optionalINS_16standard_versionEEbS3_b@Base 0.14.0
 _ZN4butl27standard_version_constraintC2ERKNSt7__cxx1112basic_stringIcSt11char_traitsIcESaIcEEE@Base 0.14.0
 _ZN4butl27standard_version_constraintC2ERKNSt7__cxx1112basic_stringIcSt11char_traitsIcESaIcEEERKNS_16standard_versionE@Base 0.14.0
 _ZN4butl27standard_version_constraintC2ESt8optionalINS_16standard_versionEEbS3_b@Base 0.14.0
 _ZN4butl29try_rmfile_maybe_ignore_errorERKNS_10basic_pathIcNS_13any_path_kindIcEEEEb@Base 0.14.0
 _ZN4butl3cli11eos_reachedD0Ev@Base 0.14.0
 _ZN4butl3cli11eos_reachedD1Ev@Base 0.14.0
 _ZN4butl3cli11eos_reachedD2Ev@Base 0.14.0
 _ZN4butl3cli12argv_scanner4moreEv@Base 0.14.0
 _ZN4butl3cli12argv_scanner4nextEv@Base 0.14.0
 _ZN4butl3cli12argv_scanner4peekEv@Base 0.14.0
 _ZN4butl3cli12argv_scanner4skipEv@Base 0.14.0
 _ZN4butl3cli12argv_scannerD0Ev@Base 0.14.0
 _ZN4butl3cli12argv_scannerD1Ev@Base 0.14.0
 _ZN4butl3cli12argv_scannerD2Ev@Base 0.14.0
 _ZN4butl3cli13invalid_valueC1ERKNSt7__cxx1112basic_stringIcSt11char_traitsIcESaIcEEES9_S9_@Base 0.14.0
 _ZN4butl3cli13invalid_valueC2ERKNSt7__cxx1112basic_stringIcSt11char_traitsIcESaIcEEES9_S9_@Base 0.14.0
 _ZN4butl3cli13invalid_valueD0Ev@Base 0.14.0
 _ZN4butl3cli13invalid_valueD1Ev@Base 0.14.0
 _ZN4butl3cli13invalid_valueD2Ev@Base 0.14.0
 _ZN4butl3cli13missing_valueD0Ev@Base 0.14.0
 _ZN4butl3cli13missing_valueD1Ev@Base 0.14.0
 _ZN4butl3cli13missing_valueD2Ev@Base 0.14.0
 _ZN4butl3cli14unknown_optionC1ERKNSt7__cxx1112basic_stringIcSt11char_traitsIcESaIcEEE@Base 0.14.0
 _ZN4butl3cli14unknown_optionC2ERKNSt7__cxx1112basic_stringIcSt11char_traitsIcESaIcEEE@Base 0.14.0
 _ZN4butl3cli14unknown_optionD0Ev@Base 0.14.0
 _ZN4butl3cli14unknown_optionD1Ev@Base 0.14.0
 _ZN4butl3cli14unknown_optionD2Ev@Base 0.14.0
 _ZN4butl3cli14vector_scanner4moreEv@Base 0.14.0
 _ZN4butl3cli14vector_scanner4nextEv@Base 0.14.0
 _ZN4butl3cli14vector_scanner4peekEv@Base 0.14.0
 _ZN4butl3cli14vector_scanner4skipEv@Base 0.14.0
 _ZN4butl3cli14vector_scannerD0Ev@Base 0.14.0
 _ZN4butl3cli14vector_scannerD1Ev@Base 0.14.0
 _ZN4butl3cli14vector_scannerD2Ev@Base 0.14.0
 _ZN4butl3cli16unknown_argumentC1ERKNSt7__cxx1112basic_stringIcSt11char_traitsIcESaIcEEE@Base 0.14.0
 _ZN4butl3cli16unknown_argumentC2ERKNSt7__cxx1112basic_stringIcSt11char_traitsIcESaIcEEE@Base 0.14.0
 _ZN4butl3cli16unknown_argumentD0Ev@Base 0.14.0
 _ZN4butl3cli16unknown_argumentD1Ev@Base 0.14.0
 _ZN4butl3cli16unknown_argumentD2Ev@Base 0.14.0
 (optional=templinst)_ZN4butl3cli5thunkINS_10cp_optionsEbXadL_ZNS2_10recursive_EEEEEvRT_RNS0_7scannerE@Base 0.14.0
 (optional=templinst)_ZN4butl3cli5thunkINS_10cp_optionsEbXadL_ZNS2_9preserve_EEEEEvRT_RNS0_7scannerE@Base 0.14.0
 (optional=templinst)_ZN4butl3cli5thunkINS_10ln_optionsEbXadL_ZNS2_9symbolic_EEEEEvRT_RNS0_7scannerE@Base 0.14.0
 (optional=templinst)_ZN4butl3cli5thunkINS_10mv_optionsEbXadL_ZNS2_6force_EEEEEvRT_RNS0_7scannerE@Base 0.14.0
 (optional=templinst)_ZN4butl3cli5thunkINS_10rm_optionsEbXadL_ZNS2_10recursive_EEEEEvRT_RNS0_7scannerE@Base 0.14.0
 (optional=templinst)_ZN4butl3cli5thunkINS_10rm_optionsEbXadL_ZNS2_6force_EEEEEvRT_RNS0_7scannerE@Base 0.14.0
 (optional=templinst)_ZN4butl3cli5thunkINS_11sed_optionsESt6vectorINSt7__cxx1112basic_stringIcSt11char_traitsIcESaIcEEESaIS9_EEXadL_ZNS2_11expression_EEEXadL_ZNS2_21expression_specified_EEEEEvRT_RNS0_7scannerE@Base 0.14.0
 (optional=templinst)_ZN4butl3cli5thunkINS_11sed_optionsEbXadL_ZNS2_6quiet_EEEEEvRT_RNS0_7scannerE@Base 0.14.0
 (optional=templinst)_ZN4butl3cli5thunkINS_11sed_optionsEbXadL_ZNS2_9in_place_EEEEEvRT_RNS0_7scannerE@Base 0.14.0
 (optional=templinst)_ZN4butl3cli5thunkINS_12date_optionsEbXadL_ZNS2_4utc_EEEEEvRT_RNS0_7scannerE@Base 0.14.0
 (optional=templinst)_ZN4butl3cli5thunkINS_12test_optionsEbXadL_ZNS2_10directory_EEEEEvRT_RNS0_7scannerE@Base 0.14.0
 (optional=templinst)_ZN4butl3cli5thunkINS_12test_optionsEbXadL_ZNS2_5file_EEEEEvRT_RNS0_7scannerE@Base 0.14.0
 (optional=templinst)_ZN4butl3cli5thunkINS_13mkdir_optionsEbXadL_ZNS2_8parents_EEEEEvRT_RNS0_7scannerE@Base 0.14.0
 (optional=templinst)_ZN4butl3cli5thunkINS_13rmdir_optionsEbXadL_ZNS2_6force_EEEEEvRT_RNS0_7scannerE@Base 0.14.0
 (optional=templinst)_ZN4butl3cli5thunkINS_13touch_optionsENSt7__cxx1112basic_stringIcSt11char_traitsIcESaIcEEEXadL_ZNS2_6after_EEEXadL_ZNS2_16after_specified_EEEEEvRT_RNS0_7scannerE@Base 0.14.0
 _ZN4butl3cli7scannerD0Ev@Base 0.14.0
 _ZN4butl3cli7scannerD1Ev@Base 0.14.0
 _ZN4butl3cli7scannerD2Ev@Base 0.14.0
 _ZN4butl3lz410decompressERNS_9ofdstreamERNS_9ifdstreamE@Base 0.14.0
 _ZN4butl3lz44cctxC1Ev@Base 0.14.0
 _ZN4butl3lz44cctxC2Ev@Base 0.14.0
 _ZN4butl3lz44dctxC1Ev@Base 0.14.0
 _ZN4butl3lz44dctxC2Ev@Base 0.14.0
 _ZN4butl3lz48compressERNS_9ofdstreamERNS_9ifdstreamEiiSt8optionalImE@Base 0.14.0
 _ZN4butl4curl6map_inENS_8nullfd_tENS0_12method_protoERNS0_7io_dataE@Base 0.14.0
 _ZN4butl4curl6map_inERKNS_10basic_pathIcNS_13any_path_kindIcEEEENS0_12method_protoERNS0_7io_dataE@Base 0.14.0
 _ZN4butl4curl7map_outENS_8nullfd_tENS0_12method_protoERNS0_7io_dataE@Base 0.14.0
 _ZN4butl4curl7map_outERKNS_10basic_pathIcNS_13any_path_kindIcEEEENS0_12method_protoERNS0_7io_dataE@Base 0.14.0
 _ZN4butl4curl9translateENS0_11method_typeERKNSt7__cxx1112basic_stringIcSt11char_traitsIcESaIcEEERNS_12small_vectorIPKcLm2EEE@Base 0.14.0
 _ZN4butl4sha15resetEv@Base 0.14.0
 _ZN4butl4sha16appendEPKvm@Base 0.14.0
 _ZN4butl4sha16appendERNS_9ifdstreamE@Base 0.14.0
 _ZN4butl4trimERNSt7__cxx1112basic_stringIcSt11char_traitsIcESaIcEEE@Base 0.14.0
 _ZN4butl4uuid16system_generatorE@Base 0.14.0
 _ZN4butl4uuid6assignEPKc@Base 0.14.0
 _ZN4butl5fdbuf4loadEv@Base 0.14.0
 _ZN4butl5fdbuf4openEONS_7auto_fdEm@Base 0.14.0
 _ZN4butl5fdbuf4saveEv@Base 0.14.0
 _ZN4butl5fdbuf4syncEv@Base 0.14.0
 _ZN4butl5fdbuf5seekgEm@Base 0.14.0
 _ZN4butl5fdbuf6xsputnEPKcl@Base 0.14.0
 _ZN4butl5fdbuf7seekoffElSt12_Ios_SeekdirSt13_Ios_Openmode@Base 0.14.0
 _ZN4butl5fdbuf7seekposESt4fposI11__mbstate_tESt13_Ios_Openmode@Base 0.14.0
 _ZN4butl5fdbuf8blockingEb@Base 0.14.0
 _ZN4butl5fdbuf8overflowEi@Base 0.14.0
 _ZN4butl5fdbuf9showmanycEv@Base 0.14.0
 _ZN4butl5fdbuf9underflowEv@Base 0.14.0
 _ZN4butl5fdbufD0Ev@Base 0.14.0
 _ZN4butl5fdbufD1Ev@Base 0.14.0
 _ZN4butl5fdbufD2Ev@Base 0.14.0
 _ZN4butl5fddupEi@Base 0.14.0
 _ZN4butl5pager4syncEv@Base 0.14.0
 _ZN4butl5pager4waitEb@Base 0.14.0
 _ZN4butl5pager8overflowEi@Base 0.14.0
 _ZN4butl5pagerC1ERKNSt7__cxx1112basic_stringIcSt11char_traitsIcESaIcEEEbPS7_PKSt6vectorIS6_SaIS6_EE@Base 0.14.0
 _ZN4butl5pagerC2ERKNSt7__cxx1112basic_stringIcSt11char_traitsIcESaIcEEEbPS7_PKSt6vectorIS6_SaIS6_EE@Base 0.14.0
 _ZN4butl5pagerD0Ev@Base 0.14.0
 _ZN4butl5pagerD1Ev@Base 0.14.0
 _ZN4butl5pagerD2Ev@Base 0.14.0
 (optional=templinst)_ZN4butl6b_infoERKNS_10basic_pathIcNS_13dir_path_kindIcEEEEbtRKSt8functionIFvPKPKcmEERKNS0_IcNS_13any_path_kindIcEEEES5_RKSt6vectorINSt7__cxx1112basic_stringIcSt11char_traitsIcESaIcEEESaISQ_EE@Base 0.14.0
 _ZN4butl6cpfileERKNS_10basic_pathIcNS_13any_path_kindIcEEEES5_NS_7cpflagsE@Base 0.14.0
 _ZN4butl6fdmodeEiNS_13fdstream_modeE@Base 0.14.0
 _ZN4butl6fdopenEPKcNS_11fdopen_modeENS_11permissionsE@Base 0.14.0
 _ZN4butl6fdpipeD1Ev@Base 0.14.0
 _ZN4butl6fdpipeD2Ev@Base 0.14.0
 _ZN4butl6fdreadEiPvm@Base 0.14.0
 _ZN4butl6fdseekEilNS_11fdseek_modeE@Base 0.14.0
 _ZN4butl6fdstatEi@Base 0.14.0
 _ZN4butl6fdtermEi@Base 0.14.0
 _ZN4butl6getenvB5cxx11EPKc@Base 0.14.0
 _ZN4butl6setenvERKNSt7__cxx1112basic_stringIcSt11char_traitsIcESaIcEEES7_@Base 0.14.0
 _ZN4butl6sha2565resetEv@Base 0.14.0
 _ZN4butl6sha2566appendEPKvm@Base 0.14.0
 _ZN4butl6sha2566appendERNS_9ifdstreamE@Base 0.14.0
 _ZN4butl7auto_fd5closeEv@Base 0.14.0
 _ZN4butl7b_errorC1ERKNSt7__cxx1112basic_stringIcSt11char_traitsIcESaIcEEESt8optionalINS_12process_exitEE@Base 0.14.0
 _ZN4butl7b_errorC2ERKNSt7__cxx1112basic_stringIcSt11char_traitsIcESaIcEEESt8optionalINS_12process_exitEE@Base 0.14.0
 _ZN4butl7b_errorD0Ev@Base 0.14.0
 _ZN4butl7b_errorD1Ev@Base 0.14.0
 _ZN4butl7b_errorD2Ev@Base 0.14.0
 (optional=templinst)_ZN4butl7builtin10timed_waitIlSt5ratioILl1ELl1000EEEESt8optionalIhERKNSt6chrono8durationIT_T0_EE@Base 0.14.0
 _ZN4butl7builtin4waitEv@Base 0.14.0
 _ZN4butl7daytimeENSt6chrono10time_pointINS0_3_V212system_clockENS0_8durationIlSt5ratioILl1ELl1000000000EEEEEE@Base 0.14.0
 _ZN4butl7fdcloseEi@Base 0.14.0
 _ZN4butl7getlineERNS_9ifdstreamERNSt7__cxx1112basic_stringIcSt11char_traitsIcESaIcEEEc@Base 0.14.0
 _ZN4butl7mventryERKNS_10basic_pathIcNS_13any_path_kindIcEEEES5_NS_7cpflagsE@Base 0.14.0
 _ZN4butl7openssl6map_inENS_13fdstream_modeERNS0_7io_dataE@Base 0.14.0
 _ZN4butl7openssl6map_inENS_8nullfd_tERNS0_7io_dataE@Base 0.14.0
 _ZN4butl7openssl6map_inERKNS_10basic_pathIcNS_13any_path_kindIcEEEERNS0_7io_dataE@Base 0.14.0
 _ZN4butl7openssl7map_outENS_13fdstream_modeERNS0_7io_dataE@Base 0.14.0
 _ZN4butl7openssl7map_outENS_8nullfd_tERNS0_7io_dataE@Base 0.14.0
 _ZN4butl7openssl7map_outERKNS_10basic_pathIcNS_13any_path_kindIcEEEERNS0_7io_dataE@Base 0.14.0
 _ZN4butl7process10current_idEv@Base 0.14.0
 (optional=templinst)_ZN4butl7process10timed_waitIlSt5ratioILl1ELl1000EEEESt8optionalIbERKNSt6chrono8durationIT_T0_EE@Base 0.14.0
 _ZN4butl7process11path_searchEPKcbRKNS_10basic_pathIcNS_13dir_path_kindIcEEEEbS2_@Base 0.14.0
 _ZN4butl7process15try_path_searchEPKcbRKNS_10basic_pathIcNS_13dir_path_kindIcEEEEbS2_@Base 0.14.0
 _ZN4butl7process4killEv@Base 0.14.0
 _ZN4butl7process4termEv@Base 0.14.0
 _ZN4butl7process4waitEb@Base 0.14.0
 _ZN4butl7process5printERSoPKPKcm@Base 0.14.0
 _ZN4butl7process8try_waitEv@Base 0.14.0
 _ZN4butl7processC1ERKNS_12process_pathEPPKcNS0_4pipeES7_S7_S5_PKS5_@Base 0.14.0
 _ZN4butl7processC2ERKNS_12process_pathEPPKcNS0_4pipeES7_S7_S5_PKS5_@Base 0.14.0
 _ZN4butl7processD1Ev@Base 0.14.0
 _ZN4butl7processD2Ev@Base 0.14.0
 _ZN4butl7rmdir_rERKNS_10basic_pathIcNS_13dir_path_kindIcEEEEbb@Base 0.14.0
 _ZN4butl7to_utf8ERNSt7__cxx1112basic_stringIcSt11char_traitsIcESaIcEEEcNS_15codepoint_typesEPKDi@Base 0.14.0
 _ZN4butl8builtinsE@Base 0.14.0
 _ZN4butl8dir_timeEPKc@Base 0.14.0
 _ZN4butl8dir_timeEPKcRKNS_10entry_timeE@Base 0.14.0
 _ZN4butl8fdselectERNS_12small_vectorINS_14fdselect_stateELm4EEES3_@Base 0.14.0
 (optional=templinst)_ZN4butl8fdselectIlSt5ratioILl1ELl1000EEEESt4pairImmERNS_12small_vectorINS_14fdselect_stateELm4EEES8_RKNSt6chrono8durationIT_T0_EE@Base 0.14.0
 _ZN4butl8sendmail7headersERKNSt7__cxx1112basic_stringIcSt11char_traitsIcESaIcEEES8_RKNS_12small_vectorIS6_Lm1EEESC_SC_@Base 0.14.0
 _ZN4butl8stdin_fdEv@Base 0.14.0
 _ZN4butl8unsetenvERKNSt7__cxx1112basic_stringIcSt11char_traitsIcESaIcEEE@Base 0.14.0
 _ZN4butl9backtraceB5cxx11Ev@Base 0.14.0
 (optional=templinst)_ZN4butl9basic_urlINSt7__cxx1112basic_stringIcSt11char_traitsIcESaIcEEENS_10url_traitsIS6_S6_S6_EEE6decodeIN9__gnu_cxx17__normal_iteratorIPKcS6_EESt20back_insert_iteratorIS6_ERZNS9_6decodeERKS6_EUlRcE_EEvT_SN_T0_OT1_@Base 0.14.0
 (optional=templinst)_ZN4butl9basic_urlINSt7__cxx1112basic_stringIcSt11char_traitsIcESaIcEEENS_10url_traitsIS6_S6_S6_EEEC1ERKS6_@Base 0.14.0
 (optional=templinst)_ZN4butl9basic_urlINSt7__cxx1112basic_stringIcSt11char_traitsIcESaIcEEENS_10url_traitsIS6_S6_S6_EEEC2ERKS6_@Base 0.14.0
 _ZN4butl9file_timeEPKc@Base 0.14.0
 _ZN4butl9file_timeEPKcRKNS_10entry_timeE@Base 0.14.0
 _ZN4butl9ifdstream4openEONS_7auto_fdENS_13fdstream_modeEm@Base 0.14.0
 _ZN4butl9ifdstream4openEPKcNS_11fdopen_modeE@Base 0.14.0
 _ZN4butl9ifdstream4openEPKcSt13_Ios_Openmode@Base 0.14.0
 _ZN4butl9ifdstream5closeEv@Base 0.14.0
 _ZN4butl9ifdstreamC1EPKcNS_11fdopen_modeESt12_Ios_Iostate@Base 0.14.0
 _ZN4butl9ifdstreamC1EPKcSt13_Ios_OpenmodeSt12_Ios_Iostate@Base 0.14.0
 _ZN4butl9ifdstreamC2EPKcNS_11fdopen_modeESt12_Ios_Iostate@Base 0.14.0
 _ZN4butl9ifdstreamC2EPKcSt13_Ios_OpenmodeSt12_Ios_Iostate@Base 0.14.0
 _ZN4butl9ifdstreamD0Ev@Base 0.14.0
 _ZN4butl9ifdstreamD1Ev@Base 0.14.0
 _ZN4butl9ifdstreamD2Ev@Base 0.14.0
 _ZN4butl9mkanylinkERKNS_10basic_pathIcNS_13any_path_kindIcEEEES5_bb@Base 0.14.0
 _ZN4butl9mksymlinkERKNS_10basic_pathIcNS_13any_path_kindIcEEEES5_b@Base 0.14.0
 _ZN4butl9ofdstream4openEPKcNS_11fdopen_modeE@Base 0.14.0
 _ZN4butl9ofdstream4openEPKcSt13_Ios_Openmode@Base 0.14.0
 _ZN4butl9ofdstreamC1EONS_7auto_fdESt12_Ios_Iostatem@Base 0.14.0
 _ZN4butl9ofdstreamC1EPKcNS_11fdopen_modeESt12_Ios_Iostate@Base 0.14.0
 _ZN4butl9ofdstreamC1EPKcSt13_Ios_OpenmodeSt12_Ios_Iostate@Base 0.14.0
 _ZN4butl9ofdstreamC2EPKcNS_11fdopen_modeESt12_Ios_Iostate@Base 0.14.0
 _ZN4butl9ofdstreamC2EPKcSt13_Ios_OpenmodeSt12_Ios_Iostate@Base 0.14.0
 _ZN4butl9ofdstreamD0Ev@Base 0.14.0
 _ZN4butl9ofdstreamD1Ev@Base 0.14.0
 _ZN4butl9ofdstreamD2Ev@Base 0.14.0
 _ZN4butl9stderr_fdEv@Base 0.14.0
 _ZN4butl9stdout_fdEv@Base 0.14.0
 _ZN4butl9to_streamERSoRKNSt6chrono10time_pointINS1_3_V212system_clockENS1_8durationIlSt5ratioILl1ELl1000000000EEEEEEPKcbb@Base 0.14.0
 _ZN4butl9to_streamERSoRKNSt6chrono8durationIlSt5ratioILl1ELl1000000000EEEEb@Base 0.14.0
 _ZN4butl9to_stringB5cxx11ENS_12process_exitE@Base 0.14.0
 _ZN4butl9to_stringB5cxx11ERKNSt6chrono10time_pointINS0_3_V212system_clockENS0_8durationIlSt5ratioILl1ELl1000000000EEEEEEPKcbb@Base 0.14.0
 _ZN4butl9to_stringB5cxx11ERKNSt6chrono8durationIlSt5ratioILl1ELl1000000000EEEEb@Base 0.14.0
 _ZN4butl9try_mkdirERKNS_10basic_pathIcNS_13dir_path_kindIcEEEEj@Base 0.14.0
 _ZN4butl9try_rmdirERKNS_10basic_pathIcNS_13dir_path_kindIcEEEEb@Base 0.14.0
 _ZN4butl9yn_promptERKNSt7__cxx1112basic_stringIcSt11char_traitsIcESaIcEEEc@Base 0.14.0
 (optional=templinst)_ZN4butldvIcEENS_10basic_pathIT_NS_13any_path_kindIS2_EEEERKNS1_IS2_NS_13dir_path_kindIS2_EEEERKS5_@Base 0.14.0
 _ZN4butllsERSoRKNS_11process_envE@Base 0.14.0
 _ZN4butllsERSoRKNS_4uuidE@Base 0.14.0
 _ZN4butlrsERSiRNS_4uuidE@Base 0.14.0
 (optional=templinst)_ZN9__gnu_cxx12__to_xstringINSt7__cxx1112basic_stringIcSt11char_traitsIcESaIcEEEcEET_PFiPT0_mPKS8_P13__va_list_tagEmSB_z@Base 0.14.0
 (optional=templinst)_ZN9__gnu_cxx6__stoaImmcJiEEET0_PFT_PKT1_PPS3_DpT2_EPKcS5_PmS9_@Base 0.14.0
 (optional=templinst)_ZNK4butl10basic_pathIcNS_13any_path_kindIcEEE12try_relativeES3_@Base 0.14.0
 (optional=templinst)_ZNK4butl10basic_pathIcNS_13any_path_kindIcEEE4leafERKS3_@Base 0.14.0
 (optional=templinst)_ZNK4butl10basic_pathIcNS_13any_path_kindIcEEE9directoryEv@Base 0.14.0
 _ZNK4butl11diag_record5flushEv@Base 0.14.0
 _ZNK4butl12process_exit11descriptionB5cxx11Ev@Base 0.14.0
 _ZNK4butl12process_exit4codeEv@Base 0.14.0
 _ZNK4butl12process_exit4coreEv@Base 0.14.0
 _ZNK4butl12process_exit6normalEv@Base 0.14.0
 _ZNK4butl12process_exit6signalEv@Base 0.14.0
 _ZNK4butl12project_name4baseB5cxx11EPKc@Base 0.14.0
 _ZNK4butl12project_name9extensionB5cxx11Ev@Base 0.14.0
 _ZNK4butl14target_triplet14representationB5cxx11Ev@Base 0.14.0
 _ZNK4butl14target_triplet6stringB5cxx11Ev@Base 0.14.0
 _ZNK4butl16semantic_version6stringB5cxx11Eb@Base 0.14.0
 _ZNK4butl16semantic_version7numericEv@Base 0.14.0
 _ZNK4butl16standard_version14string_projectB5cxx11Eb@Base 0.14.0
 _ZNK4butl16standard_version14string_versionB5cxx11Ev@Base 0.14.0
 _ZNK4butl16standard_version15string_snapshotB5cxx11Ev@Base 0.14.0
 _ZNK4butl16standard_version17string_project_idB5cxx11Ev@Base 0.14.0
 _ZNK4butl16standard_version18string_pre_releaseB5cxx11Ev@Base 0.14.0
 _ZNK4butl16standard_version6stringB5cxx11Ev@Base 0.14.0
 _ZNK4butl27standard_version_constraint6stringB5cxx11Ev@Base 0.14.0
 _ZNK4butl27standard_version_constraint9satisfiesERKNS_16standard_versionE@Base 0.14.0
 _ZNK4butl3cli11eos_reached4whatEv@Base 0.14.0
 _ZNK4butl3cli11eos_reached5printERSo@Base 0.14.0
 _ZNK4butl3cli13invalid_value4whatEv@Base 0.14.0
 _ZNK4butl3cli13invalid_value5printERSo@Base 0.14.0
 _ZNK4butl3cli13missing_value4whatEv@Base 0.14.0
 _ZNK4butl3cli13missing_value5printERSo@Base 0.14.0
 _ZNK4butl3cli14unknown_option4whatEv@Base 0.14.0
 _ZNK4butl3cli14unknown_option5printERSo@Base 0.14.0
 _ZNK4butl3cli16unknown_argument4whatEv@Base 0.14.0
 _ZNK4butl3cli16unknown_argument5printERSo@Base 0.14.0
 _ZNK4butl4sha16binaryEv@Base 0.14.0
 _ZNK4butl4sha16stringEv@Base 0.14.0
 _ZNK4butl4uuid8c_stringEb@Base 0.14.0
 _ZNK4butl6sha2566binaryEv@Base 0.14.0
 _ZNK4butl6sha2566stringEv@Base 0.14.0
 _ZNK4butl9dir_entry4typeEb@Base 0.14.0
 (optional=templinst)_ZNKSt5ctypeIcE8do_widenEc@Base 0.14.0
 (optional=templinst)_ZNKSt5ctypeIcE9do_narrowEcc@Base 0.14.0
 (optional=templinst)_ZNKSt7__cxx1112basic_stringIcSt11char_traitsIcESaIcEE13find_first_ofEPKcmm@Base 0.14.0
 (optional=templinst)_ZNKSt7__cxx1112basic_stringIcSt11char_traitsIcESaIcEE17find_first_not_ofEPKcmm@Base 0.14.0
 (optional=templinst)_ZNKSt7__cxx1112basic_stringIcSt11char_traitsIcESaIcEE4findEcm@Base 0.14.0
 (optional=templinst)_ZNKSt7__cxx1112basic_stringIcSt11char_traitsIcESaIcEE7compareEPKc@Base 0.14.0
 (optional=templinst)_ZNKSt7__cxx1112basic_stringIcSt11char_traitsIcESaIcEE7compareERKS4_@Base 0.14.0
 (optional=templinst)_ZNKSt7__cxx1112basic_stringIcSt11char_traitsIcESaIcEE7compareEmmPKc@Base 0.14.0
 (optional=templinst)_ZNKSt7__cxx1112regex_traitsIcE16lookup_classnameIPKcEENS1_10_RegexMaskET_S6_b@Base 0.14.0
 (optional=templinst)_ZNKSt7__cxx1112regex_traitsIcE18lookup_collatenameIPKcEENS_12basic_stringIcSt11char_traitsIcESaIcEEET_SA_@Base 0.14.0
 (optional=templinst)_ZNKSt7__cxx1112regex_traitsIcE5valueEci@Base 0.14.0
 (optional=templinst)_ZNKSt7__cxx1112regex_traitsIcE7isctypeEcNS1_10_RegexMaskE@Base 0.14.0
 (optional=templinst)_ZNKSt7__cxx1114regex_iteratorIN9__gnu_cxx17__normal_iteratorIPKcNS_12basic_stringIcSt11char_traitsIcESaIcEEEEEcNS_12regex_traitsIcEEEeqERKSD_@Base 0.14.0
 (optional=templinst)_ZNSt11_Deque_baseINSt8__detail9_StateSeqINSt7__cxx1112regex_traitsIcEEEESaIS5_EED1Ev@Base 0.14.0
 (optional=templinst)_ZNSt11_Deque_baseINSt8__detail9_StateSeqINSt7__cxx1112regex_traitsIcEEEESaIS5_EED2Ev@Base 0.14.0
 (optional=templinst)_ZNSt11_Deque_baseIlSaIlEE17_M_initialize_mapEm@Base 0.14.0
 (optional=templinst)_ZNSt11_Deque_baseIlSaIlEED1Ev@Base 0.14.0
 (optional=templinst)_ZNSt11_Deque_baseIlSaIlEED2Ev@Base 0.14.0
 _ZNSt12system_errorC1ESt10error_codePKc@Base 0.14.0
 _ZNSt12system_errorC1EiRKNSt3_V214error_categoryE@Base 0.14.0
 _ZNSt12system_errorC1EiRKNSt3_V214error_categoryERKNSt7__cxx1112basic_stringIcSt11char_traitsIcESaIcEEE@Base 0.14.0
 _ZNSt12system_errorC2ESt10error_codePKc@Base 0.14.0
 _ZNSt12system_errorC2EiRKNSt3_V214error_categoryE@Base 0.14.0
 _ZNSt12system_errorC2EiRKNSt3_V214error_categoryERKNSt7__cxx1112basic_stringIcSt11char_traitsIcESaIcEEE@Base 0.14.0
 (optional=templinst)_ZNSt14_Function_base13_Base_managerINSt8__detail11_AnyMatcherINSt7__cxx1112regex_traitsIcEELb0ELb0ELb0EEEE10_M_managerERSt9_Any_dataRKS8_St18_Manager_operation@Base 0.14.0
 (optional=templinst)_ZNSt14_Function_base13_Base_managerINSt8__detail11_AnyMatcherINSt7__cxx1112regex_traitsIcEELb0ELb0ELb1EEEE10_M_managerERSt9_Any_dataRKS8_St18_Manager_operation@Base 0.14.0
 (optional=templinst)_ZNSt14_Function_base13_Base_managerINSt8__detail11_AnyMatcherINSt7__cxx1112regex_traitsIcEELb0ELb1ELb0EEEE10_M_managerERSt9_Any_dataRKS8_St18_Manager_operation@Base 0.14.0
 (optional=templinst)_ZNSt14_Function_base13_Base_managerINSt8__detail11_AnyMatcherINSt7__cxx1112regex_traitsIcEELb0ELb1ELb1EEEE10_M_managerERSt9_Any_dataRKS8_St18_Manager_operation@Base 0.14.0
 (optional=templinst)_ZNSt14_Function_base13_Base_managerINSt8__detail11_AnyMatcherINSt7__cxx1112regex_traitsIcEELb1ELb0ELb0EEEE10_M_managerERSt9_Any_dataRKS8_St18_Manager_operation@Base 0.14.0
 (optional=templinst)_ZNSt14_Function_base13_Base_managerINSt8__detail11_AnyMatcherINSt7__cxx1112regex_traitsIcEELb1ELb0ELb1EEEE10_M_managerERSt9_Any_dataRKS8_St18_Manager_operation@Base 0.14.0
 (optional=templinst)_ZNSt14_Function_base13_Base_managerINSt8__detail11_AnyMatcherINSt7__cxx1112regex_traitsIcEELb1ELb1ELb0EEEE10_M_managerERSt9_Any_dataRKS8_St18_Manager_operation@Base 0.14.0
 (optional=templinst)_ZNSt14_Function_base13_Base_managerINSt8__detail11_AnyMatcherINSt7__cxx1112regex_traitsIcEELb1ELb1ELb1EEEE10_M_managerERSt9_Any_dataRKS8_St18_Manager_operation@Base 0.14.0
 (optional=templinst)_ZNSt14_Function_base13_Base_managerINSt8__detail12_CharMatcherINSt7__cxx1112regex_traitsIcEELb0ELb0EEEE10_M_managerERSt9_Any_dataRKS8_St18_Manager_operation@Base 0.14.0
 (optional=templinst)_ZNSt14_Function_base13_Base_managerINSt8__detail12_CharMatcherINSt7__cxx1112regex_traitsIcEELb0ELb1EEEE10_M_managerERSt9_Any_dataRKS8_St18_Manager_operation@Base 0.14.0
 (optional=templinst)_ZNSt14_Function_base13_Base_managerINSt8__detail12_CharMatcherINSt7__cxx1112regex_traitsIcEELb1ELb0EEEE10_M_managerERSt9_Any_dataRKS8_St18_Manager_operation@Base 0.14.0
 (optional=templinst)_ZNSt14_Function_base13_Base_managerINSt8__detail12_CharMatcherINSt7__cxx1112regex_traitsIcEELb1ELb1EEEE10_M_managerERSt9_Any_dataRKS8_St18_Manager_operation@Base 0.14.0
 (optional=templinst)_ZNSt14_Function_base13_Base_managerINSt8__detail15_BracketMatcherINSt7__cxx1112regex_traitsIcEELb0ELb0EEEE10_M_managerERSt9_Any_dataRKS8_St18_Manager_operation@Base 0.14.0
 (optional=templinst)_ZNSt14_Function_base13_Base_managerINSt8__detail15_BracketMatcherINSt7__cxx1112regex_traitsIcEELb0ELb1EEEE10_M_managerERSt9_Any_dataRKS8_St18_Manager_operation@Base 0.14.0
 (optional=templinst)_ZNSt14_Function_base13_Base_managerINSt8__detail15_BracketMatcherINSt7__cxx1112regex_traitsIcEELb1ELb0EEEE10_M_managerERSt9_Any_dataRKS8_St18_Manager_operation@Base 0.14.0
 (optional=templinst)_ZNSt14_Function_base13_Base_managerINSt8__detail15_BracketMatcherINSt7__cxx1112regex_traitsIcEELb1ELb1EEEE10_M_managerERSt9_Any_dataRKS8_St18_Manager_operation@Base 0.14.0
 (optional=templinst)_ZNSt16_Sp_counted_baseILN9__gnu_cxx12_Lock_policyE2EE10_M_releaseEv@Base 0.14.0
 (optional=templinst)_ZNSt17_Function_handlerIFbcENSt8__detail11_AnyMatcherINSt7__cxx1112regex_traitsIcEELb0ELb0ELb0EEEE9_M_invokeERKSt9_Any_dataOc@Base 0.14.0
 (optional=templinst)_ZNSt17_Function_handlerIFbcENSt8__detail11_AnyMatcherINSt7__cxx1112regex_traitsIcEELb0ELb0ELb1EEEE9_M_invokeERKSt9_Any_dataOc@Base 0.14.0
 (optional=templinst)_ZNSt17_Function_handlerIFbcENSt8__detail11_AnyMatcherINSt7__cxx1112regex_traitsIcEELb0ELb1ELb0EEEE9_M_invokeERKSt9_Any_dataOc@Base 0.14.0
 (optional=templinst)_ZNSt17_Function_handlerIFbcENSt8__detail11_AnyMatcherINSt7__cxx1112regex_traitsIcEELb0ELb1ELb1EEEE9_M_invokeERKSt9_Any_dataOc@Base 0.14.0
 (optional=templinst)_ZNSt17_Function_handlerIFbcENSt8__detail11_AnyMatcherINSt7__cxx1112regex_traitsIcEELb1ELb0ELb0EEEE9_M_invokeERKSt9_Any_dataOc@Base 0.14.0
 (optional=templinst)_ZNSt17_Function_handlerIFbcENSt8__detail11_AnyMatcherINSt7__cxx1112regex_traitsIcEELb1ELb0ELb1EEEE9_M_invokeERKSt9_Any_dataOc@Base 0.14.0
 (optional=templinst)_ZNSt17_Function_handlerIFbcENSt8__detail11_AnyMatcherINSt7__cxx1112regex_traitsIcEELb1ELb1ELb0EEEE9_M_invokeERKSt9_Any_dataOc@Base 0.14.0
 (optional=templinst)_ZNSt17_Function_handlerIFbcENSt8__detail11_AnyMatcherINSt7__cxx1112regex_traitsIcEELb1ELb1ELb1EEEE9_M_invokeERKSt9_Any_dataOc@Base 0.14.0
 (optional=templinst)_ZNSt17_Function_handlerIFbcENSt8__detail12_CharMatcherINSt7__cxx1112regex_traitsIcEELb0ELb0EEEE9_M_invokeERKSt9_Any_dataOc@Base 0.14.0
 (optional=templinst)_ZNSt17_Function_handlerIFbcENSt8__detail12_CharMatcherINSt7__cxx1112regex_traitsIcEELb0ELb1EEEE9_M_invokeERKSt9_Any_dataOc@Base 0.14.0
 (optional=templinst)_ZNSt17_Function_handlerIFbcENSt8__detail12_CharMatcherINSt7__cxx1112regex_traitsIcEELb1ELb0EEEE9_M_invokeERKSt9_Any_dataOc@Base 0.14.0
 (optional=templinst)_ZNSt17_Function_handlerIFbcENSt8__detail12_CharMatcherINSt7__cxx1112regex_traitsIcEELb1ELb1EEEE9_M_invokeERKSt9_Any_dataOc@Base 0.14.0
 (optional=templinst)_ZNSt17_Function_handlerIFbcENSt8__detail15_BracketMatcherINSt7__cxx1112regex_traitsIcEELb0ELb0EEEE9_M_invokeERKSt9_Any_dataOc@Base 0.14.0
 (optional=templinst)_ZNSt17_Function_handlerIFbcENSt8__detail15_BracketMatcherINSt7__cxx1112regex_traitsIcEELb0ELb1EEEE9_M_invokeERKSt9_Any_dataOc@Base 0.14.0
 (optional=templinst)_ZNSt17_Function_handlerIFbcENSt8__detail15_BracketMatcherINSt7__cxx1112regex_traitsIcEELb1ELb0EEEE9_M_invokeERKSt9_Any_dataOc@Base 0.14.0
 (optional=templinst)_ZNSt17_Function_handlerIFbcENSt8__detail15_BracketMatcherINSt7__cxx1112regex_traitsIcEELb1ELb1EEEE9_M_invokeERKSt9_Any_dataOc@Base 0.14.0
 (optional=templinst)_ZNSt23_Sp_counted_ptr_inplaceINSt8__detail4_NFAINSt7__cxx1112regex_traitsIcEEEESaIS5_ELN9__gnu_cxx12_Lock_policyE2EE10_M_destroyEv@Base 0.14.0
 (optional=templinst)_ZNSt23_Sp_counted_ptr_inplaceINSt8__detail4_NFAINSt7__cxx1112regex_traitsIcEEEESaIS5_ELN9__gnu_cxx12_Lock_policyE2EE10_M_disposeEv@Base 0.14.0
 (optional=templinst)_ZNSt23_Sp_counted_ptr_inplaceINSt8__detail4_NFAINSt7__cxx1112regex_traitsIcEEEESaIS5_ELN9__gnu_cxx12_Lock_policyE2EE14_M_get_deleterERKSt9type_info@Base 0.14.0
 (optional=templinst)_ZNSt23_Sp_counted_ptr_inplaceINSt8__detail4_NFAINSt7__cxx1112regex_traitsIcEEEESaIS5_ELN9__gnu_cxx12_Lock_policyE2EED0Ev@Base 0.14.0
 (optional=templinst)_ZNSt23_Sp_counted_ptr_inplaceINSt8__detail4_NFAINSt7__cxx1112regex_traitsIcEEEESaIS5_ELN9__gnu_cxx12_Lock_policyE2EED1Ev@Base 0.14.0
 (optional=templinst)_ZNSt23_Sp_counted_ptr_inplaceINSt8__detail4_NFAINSt7__cxx1112regex_traitsIcEEEESaIS5_ELN9__gnu_cxx12_Lock_policyE2EED2Ev@Base 0.14.0
 (optional=templinst)_ZNSt3mapINSt7__cxx1112basic_stringIcSt11char_traitsIcESaIcEEEN4butl12builtin_infoESt4lessIS5_ESaISt4pairIKS5_S7_EEEC1ESt16initializer_listISC_ERKS9_RKSD_@Base 0.14.0
 (optional=templinst)_ZNSt3mapINSt7__cxx1112basic_stringIcSt11char_traitsIcESaIcEEEN4butl12builtin_infoESt4lessIS5_ESaISt4pairIKS5_S7_EEEC2ESt16initializer_listISC_ERKS9_RKSD_@Base 0.14.0
 (optional=templinst)_ZNSt3mapINSt7__cxx1112basic_stringIcSt11char_traitsIcESaIcEEEPFvRN4butl10cp_optionsERNS6_3cli7scannerEESt4lessIS5_ESaISt4pairIKS5_SD_EEED1Ev@Base 0.14.0
 (optional=templinst)_ZNSt3mapINSt7__cxx1112basic_stringIcSt11char_traitsIcESaIcEEEPFvRN4butl10cp_optionsERNS6_3cli7scannerEESt4lessIS5_ESaISt4pairIKS5_SD_EEED2Ev@Base 0.14.0
 (optional=templinst)_ZNSt3mapINSt7__cxx1112basic_stringIcSt11char_traitsIcESaIcEEEPFvRN4butl10ln_optionsERNS6_3cli7scannerEESt4lessIS5_ESaISt4pairIKS5_SD_EEED1Ev@Base 0.14.0
 (optional=templinst)_ZNSt3mapINSt7__cxx1112basic_stringIcSt11char_traitsIcESaIcEEEPFvRN4butl10ln_optionsERNS6_3cli7scannerEESt4lessIS5_ESaISt4pairIKS5_SD_EEED2Ev@Base 0.14.0
 (optional=templinst)_ZNSt3mapINSt7__cxx1112basic_stringIcSt11char_traitsIcESaIcEEEPFvRN4butl10mv_optionsERNS6_3cli7scannerEESt4lessIS5_ESaISt4pairIKS5_SD_EEED1Ev@Base 0.14.0
 (optional=templinst)_ZNSt3mapINSt7__cxx1112basic_stringIcSt11char_traitsIcESaIcEEEPFvRN4butl10mv_optionsERNS6_3cli7scannerEESt4lessIS5_ESaISt4pairIKS5_SD_EEED2Ev@Base 0.14.0
 (optional=templinst)_ZNSt3mapINSt7__cxx1112basic_stringIcSt11char_traitsIcESaIcEEEPFvRN4butl10rm_optionsERNS6_3cli7scannerEESt4lessIS5_ESaISt4pairIKS5_SD_EEED1Ev@Base 0.14.0
 (optional=templinst)_ZNSt3mapINSt7__cxx1112basic_stringIcSt11char_traitsIcESaIcEEEPFvRN4butl10rm_optionsERNS6_3cli7scannerEESt4lessIS5_ESaISt4pairIKS5_SD_EEED2Ev@Base 0.14.0
 (optional=templinst)_ZNSt3mapINSt7__cxx1112basic_stringIcSt11char_traitsIcESaIcEEEPFvRN4butl11cat_optionsERNS6_3cli7scannerEESt4lessIS5_ESaISt4pairIKS5_SD_EEED1Ev@Base 0.14.0
 (optional=templinst)_ZNSt3mapINSt7__cxx1112basic_stringIcSt11char_traitsIcESaIcEEEPFvRN4butl11cat_optionsERNS6_3cli7scannerEESt4lessIS5_ESaISt4pairIKS5_SD_EEED2Ev@Base 0.14.0
 (optional=templinst)_ZNSt3mapINSt7__cxx1112basic_stringIcSt11char_traitsIcESaIcEEEPFvRN4butl11sed_optionsERNS6_3cli7scannerEESt4lessIS5_ESaISt4pairIKS5_SD_EEED1Ev@Base 0.14.0
 (optional=templinst)_ZNSt3mapINSt7__cxx1112basic_stringIcSt11char_traitsIcESaIcEEEPFvRN4butl11sed_optionsERNS6_3cli7scannerEESt4lessIS5_ESaISt4pairIKS5_SD_EEED2Ev@Base 0.14.0
 (optional=templinst)_ZNSt3mapINSt7__cxx1112basic_stringIcSt11char_traitsIcESaIcEEEPFvRN4butl12date_optionsERNS6_3cli7scannerEESt4lessIS5_ESaISt4pairIKS5_SD_EEED1Ev@Base 0.14.0
 (optional=templinst)_ZNSt3mapINSt7__cxx1112basic_stringIcSt11char_traitsIcESaIcEEEPFvRN4butl12date_optionsERNS6_3cli7scannerEESt4lessIS5_ESaISt4pairIKS5_SD_EEED2Ev@Base 0.14.0
 (optional=templinst)_ZNSt3mapINSt7__cxx1112basic_stringIcSt11char_traitsIcESaIcEEEPFvRN4butl12test_optionsERNS6_3cli7scannerEESt4lessIS5_ESaISt4pairIKS5_SD_EEED1Ev@Base 0.14.0
 (optional=templinst)_ZNSt3mapINSt7__cxx1112basic_stringIcSt11char_traitsIcESaIcEEEPFvRN4butl12test_optionsERNS6_3cli7scannerEESt4lessIS5_ESaISt4pairIKS5_SD_EEED2Ev@Base 0.14.0
 (optional=templinst)_ZNSt3mapINSt7__cxx1112basic_stringIcSt11char_traitsIcESaIcEEEPFvRN4butl13mkdir_optionsERNS6_3cli7scannerEESt4lessIS5_ESaISt4pairIKS5_SD_EEED1Ev@Base 0.14.0
 (optional=templinst)_ZNSt3mapINSt7__cxx1112basic_stringIcSt11char_traitsIcESaIcEEEPFvRN4butl13mkdir_optionsERNS6_3cli7scannerEESt4lessIS5_ESaISt4pairIKS5_SD_EEED2Ev@Base 0.14.0
 (optional=templinst)_ZNSt3mapINSt7__cxx1112basic_stringIcSt11char_traitsIcESaIcEEEPFvRN4butl13rmdir_optionsERNS6_3cli7scannerEESt4lessIS5_ESaISt4pairIKS5_SD_EEED1Ev@Base 0.14.0
 (optional=templinst)_ZNSt3mapINSt7__cxx1112basic_stringIcSt11char_traitsIcESaIcEEEPFvRN4butl13rmdir_optionsERNS6_3cli7scannerEESt4lessIS5_ESaISt4pairIKS5_SD_EEED2Ev@Base 0.14.0
 (optional=templinst)_ZNSt3mapINSt7__cxx1112basic_stringIcSt11char_traitsIcESaIcEEEPFvRN4butl13sleep_optionsERNS6_3cli7scannerEESt4lessIS5_ESaISt4pairIKS5_SD_EEED1Ev@Base 0.14.0
 (optional=templinst)_ZNSt3mapINSt7__cxx1112basic_stringIcSt11char_traitsIcESaIcEEEPFvRN4butl13sleep_optionsERNS6_3cli7scannerEESt4lessIS5_ESaISt4pairIKS5_SD_EEED2Ev@Base 0.14.0
 (optional=templinst)_ZNSt3mapINSt7__cxx1112basic_stringIcSt11char_traitsIcESaIcEEEPFvRN4butl13touch_optionsERNS6_3cli7scannerEESt4lessIS5_ESaISt4pairIKS5_SD_EEED1Ev@Base 0.14.0
 (optional=templinst)_ZNSt3mapINSt7__cxx1112basic_stringIcSt11char_traitsIcESaIcEEEPFvRN4butl13touch_optionsERNS6_3cli7scannerEESt4lessIS5_ESaISt4pairIKS5_SD_EEED2Ev@Base 0.14.0
 (optional=templinst)_ZNSt4pairIN4butl10entry_typeESt12system_errorED1Ev@Base 0.14.0
 (optional=templinst)_ZNSt4pairIN4butl10entry_typeESt12system_errorED2Ev@Base 0.14.0
 (optional=templinst)_ZNSt4pairINSt7__cxx1112basic_stringIcSt11char_traitsIcESaIcEEES5_ED1Ev@Base 0.14.0
 (optional=templinst)_ZNSt4pairINSt7__cxx1112basic_stringIcSt11char_traitsIcESaIcEEES5_ED2Ev@Base 0.14.0
 (optional=templinst)_ZNSt5dequeINSt8__detail9_StateSeqINSt7__cxx1112regex_traitsIcEEEESaIS5_EE12emplace_backIJS5_EEERS5_DpOT_@Base 0.14.0
 (optional=templinst)_ZNSt5dequeINSt8__detail9_StateSeqINSt7__cxx1112regex_traitsIcEEEESaIS5_EE16_M_push_back_auxIJRKS5_EEEvDpOT_@Base 0.14.0
 (optional=templinst)_ZNSt5dequeINSt8__detail9_StateSeqINSt7__cxx1112regex_traitsIcEEEESaIS5_EE17_M_reallocate_mapEmb@Base 0.14.0
 (optional=templinst)_ZNSt5dequeIlSaIlEE16_M_push_back_auxIJRKlEEEvDpOT_@Base 0.14.0
 (optional=templinst)_ZNSt6vectorIN4butl14b_project_info10subprojectESaIS2_EE17_M_realloc_insertIJS2_EEEvN9__gnu_cxx17__normal_iteratorIPS2_S4_EEDpOT_@Base 0.14.0
 (optional=templinst)_ZNSt6vectorIN4butl19manifest_name_valueESaIS1_EE17_M_realloc_insertIJS1_EEEvN9__gnu_cxx17__normal_iteratorIPS1_S3_EEDpOT_@Base 0.14.0
 (optional=templinst)_ZNSt6vectorIN4butl9tab_fieldESaIS1_EE17_M_realloc_insertIJS1_EEEvN9__gnu_cxx17__normal_iteratorIPS1_S3_EEDpOT_@Base 0.14.0
 (optional=templinst)_ZNSt6vectorINSt7__cxx1112basic_stringIcSt11char_traitsIcESaIcEEEN4butl15small_allocatorIS5_Lm16ENS6_22small_allocator_bufferIS5_Lm16EEEEEE12emplace_backIJS5_EEERS5_DpOT_@Base 0.14.0
 (optional=templinst)_ZNSt6vectorINSt7__cxx1112basic_stringIcSt11char_traitsIcESaIcEEEN4butl15small_allocatorIS5_Lm16ENS6_22small_allocator_bufferIS5_Lm16EEEEEE17_M_realloc_insertIJS5_EEEvN9__gnu_cxx17__normal_iteratorIPS5_SB_EEDpOT_@Base 0.14.0
 (optional=templinst)_ZNSt6vectorINSt7__cxx1112basic_stringIcSt11char_traitsIcESaIcEEEN4butl15small_allocatorIS5_Lm16ENS6_22small_allocator_bufferIS5_Lm16EEEEEED1Ev@Base 0.14.0
 (optional=templinst)_ZNSt6vectorINSt7__cxx1112basic_stringIcSt11char_traitsIcESaIcEEEN4butl15small_allocatorIS5_Lm16ENS6_22small_allocator_bufferIS5_Lm16EEEEEED2Ev@Base 0.14.0
 (optional=templinst)_ZNSt6vectorINSt7__cxx1112basic_stringIcSt11char_traitsIcESaIcEEEN4butl15small_allocatorIS5_Lm2ENS6_22small_allocator_bufferIS5_Lm2EEEEEE12emplace_backIJS5_EEERS5_DpOT_@Base 0.14.0
 (optional=templinst)_ZNSt6vectorINSt7__cxx1112basic_stringIcSt11char_traitsIcESaIcEEEN4butl15small_allocatorIS5_Lm2ENS6_22small_allocator_bufferIS5_Lm2EEEEEE17_M_realloc_insertIJS5_EEEvN9__gnu_cxx17__normal_iteratorIPS5_SB_EEDpOT_@Base 0.14.0
 (optional=templinst)_ZNSt6vectorINSt7__cxx1112basic_stringIcSt11char_traitsIcESaIcEEEN4butl15small_allocatorIS5_Lm2ENS6_22small_allocator_bufferIS5_Lm2EEEEEED1Ev@Base 0.14.0
 (optional=templinst)_ZNSt6vectorINSt7__cxx1112basic_stringIcSt11char_traitsIcESaIcEEEN4butl15small_allocatorIS5_Lm2ENS6_22small_allocator_bufferIS5_Lm2EEEEEED2Ev@Base 0.14.0
 (optional=templinst)_ZNSt6vectorINSt7__cxx1112basic_stringIcSt11char_traitsIcESaIcEEEN4butl15small_allocatorIS5_Lm4ENS6_22small_allocator_bufferIS5_Lm4EEEEEE13_M_assign_auxIPKS5_EEvT_SF_St20forward_iterator_tag@Base 0.14.0
 (optional=templinst)_ZNSt6vectorINSt7__cxx1112basic_stringIcSt11char_traitsIcESaIcEEESaIS5_EE12emplace_backIJS5_EEERS5_DpOT_@Base 0.14.0
 (optional=templinst)_ZNSt6vectorINSt7__cxx1112basic_stringIcSt11char_traitsIcESaIcEEESaIS5_EE17_M_realloc_insertIJRKS5_EEEvN9__gnu_cxx17__normal_iteratorIPS5_S7_EEDpOT_@Base 0.14.0
 (optional=templinst)_ZNSt6vectorINSt7__cxx1112basic_stringIcSt11char_traitsIcESaIcEEESaIS5_EE17_M_realloc_insertIJS5_EEEvN9__gnu_cxx17__normal_iteratorIPS5_S7_EEDpOT_@Base 0.14.0
 (optional=templinst)_ZNSt6vectorINSt7__cxx1112basic_stringIcSt11char_traitsIcESaIcEEESaIS5_EE7reserveEm@Base 0.14.0
 (optional=templinst)_ZNSt6vectorINSt7__cxx1112basic_stringIcSt11char_traitsIcESaIcEEESaIS5_EEC1ESt16initializer_listIS5_ERKS6_@Base 0.14.0
 (optional=templinst)_ZNSt6vectorINSt7__cxx1112basic_stringIcSt11char_traitsIcESaIcEEESaIS5_EEC2ESt16initializer_listIS5_ERKS6_@Base 0.14.0
 (optional=templinst)_ZNSt6vectorINSt7__cxx1112basic_stringIcSt11char_traitsIcESaIcEEESaIS5_EED1Ev@Base 0.14.0
 (optional=templinst)_ZNSt6vectorINSt7__cxx1112basic_stringIcSt11char_traitsIcESaIcEEESaIS5_EED2Ev@Base 0.14.0
 (optional=templinst)_ZNSt6vectorINSt7__cxx1112regex_traitsIcE10_RegexMaskESaIS3_EE17_M_realloc_insertIJRKS3_EEEvN9__gnu_cxx17__normal_iteratorIPS3_S5_EEDpOT_@Base 0.14.0
 (optional=templinst)_ZNSt6vectorINSt7__cxx119sub_matchIN9__gnu_cxx17__normal_iteratorIPKcNS0_12basic_stringIcSt11char_traitsIcESaIcEEEEEEESaISC_EE17_M_default_appendEm@Base 0.14.0
 (optional=templinst)_ZNSt6vectorINSt7__cxx119sub_matchIN9__gnu_cxx17__normal_iteratorIPKcNS0_12basic_stringIcSt11char_traitsIcESaIcEEEEEEESaISC_EEaSERKSE_@Base 0.14.0
 (optional=templinst)_ZNSt6vectorINSt8__detail6_StateIcEESaIS2_EE17_M_realloc_insertIJS2_EEEvN9__gnu_cxx17__normal_iteratorIPS2_S4_EEDpOT_@Base 0.14.0
 (optional=templinst)_ZNSt6vectorIPKcN4butl15small_allocatorIS1_Lm2ENS2_22small_allocator_bufferIS1_Lm2EEEEEE12emplace_backIJS1_EEERS1_DpOT_@Base 0.14.0
 (optional=templinst)_ZNSt6vectorIPKcN4butl15small_allocatorIS1_Lm2ENS2_22small_allocator_bufferIS1_Lm2EEEEEE17_M_realloc_insertIJS1_EEEvN9__gnu_cxx17__normal_iteratorIPS1_S7_EEDpOT_@Base 0.14.0
 (optional=templinst)_ZNSt6vectorIPKcN4butl15small_allocatorIS1_Lm3ENS2_22small_allocator_bufferIS1_Lm3EEEEEE12emplace_backIJS1_EEERS1_DpOT_@Base 0.14.0
 (optional=templinst)_ZNSt6vectorIPKcN4butl15small_allocatorIS1_Lm8ENS2_22small_allocator_bufferIS1_Lm8EEEEEE12emplace_backIJS1_EEERS1_DpOT_@Base 0.14.0
 (optional=templinst)_ZNSt6vectorIPKcN4butl15small_allocatorIS1_Lm8ENS2_22small_allocator_bufferIS1_Lm8EEEEEE17_M_realloc_insertIJRKS1_EEEvN9__gnu_cxx17__normal_iteratorIPS1_S7_EEDpOT_@Base 0.14.0
 (optional=templinst)_ZNSt6vectorIPKcSaIS1_EE12emplace_backIJS1_EEERS1_DpOT_@Base 0.14.0
 (optional=templinst)_ZNSt6vectorIPKcSaIS1_EE17_M_realloc_insertIJRKS1_EEEvN9__gnu_cxx17__normal_iteratorIPS1_S3_EEDpOT_@Base 0.14.0
 (optional=templinst)_ZNSt6vectorIPKcSaIS1_EE17_M_realloc_insertIJS1_EEEvN9__gnu_cxx17__normal_iteratorIPS1_S3_EEDpOT_@Base 0.14.0
 (optional=templinst)_ZNSt6vectorISt4pairIN4butl12dir_iteratorENS1_10basic_pathIcNS1_13dir_path_kindIcEEEEENS1_15small_allocatorIS7_Lm1ENS1_22small_allocator_bufferIS7_Lm1EEEEEE17_M_realloc_insertIJS2_S6_EEEvN9__gnu_cxx17__normal_iteratorIPS7_SC_EEDpOT_@Base 0.14.0
 (optional=templinst)_ZNSt6vectorISt4pairIN4butl12dir_iteratorENS1_10basic_pathIcNS1_13dir_path_kindIcEEEEENS1_15small_allocatorIS7_Lm1ENS1_22small_allocator_bufferIS7_Lm1EEEEEED1Ev@Base 0.14.0
 (optional=templinst)_ZNSt6vectorISt4pairIN4butl12dir_iteratorENS1_10basic_pathIcNS1_13dir_path_kindIcEEEEENS1_15small_allocatorIS7_Lm1ENS1_22small_allocator_bufferIS7_Lm1EEEEEED2Ev@Base 0.14.0
 (optional=templinst)_ZNSt6vectorISt4pairINSt7__cxx1112basic_stringIcSt11char_traitsIcESaIcEEES6_ESaIS7_EE12emplace_backIJS7_EEERS7_DpOT_@Base 0.14.0
 (optional=templinst)_ZNSt6vectorISt4pairINSt7__cxx1112basic_stringIcSt11char_traitsIcESaIcEEES6_ESaIS7_EE17_M_realloc_insertIJS7_EEEvN9__gnu_cxx17__normal_iteratorIPS7_S9_EEDpOT_@Base 0.14.0
 (optional=templinst)_ZNSt6vectorISt4pairINSt7__cxx1112basic_stringIcSt11char_traitsIcESaIcEEES6_ESaIS7_EED1Ev@Base 0.14.0
 (optional=templinst)_ZNSt6vectorISt4pairINSt7__cxx1112basic_stringIcSt11char_traitsIcESaIcEEES6_ESaIS7_EED2Ev@Base 0.14.0
 (optional=templinst)_ZNSt6vectorISt4pairINSt7__cxx1112basic_stringIcSt11char_traitsIcESaIcEEEmESaIS7_EE17_M_realloc_insertIJS6_RmEEEvN9__gnu_cxx17__normal_iteratorIPS7_S9_EEDpOT_@Base 0.14.0
 (optional=templinst)_ZNSt6vectorISt4pairINSt7__cxx1112basic_stringIcSt11char_traitsIcESaIcEEEmESaIS7_EED1Ev@Base 0.14.0
 (optional=templinst)_ZNSt6vectorISt4pairINSt7__cxx1112basic_stringIcSt11char_traitsIcESaIcEEEmESaIS7_EED2Ev@Base 0.14.0
 (optional=templinst)_ZNSt6vectorISt4pairIccESaIS1_EE12emplace_backIJS1_EEERS1_DpOT_@Base 0.14.0
 (optional=templinst)_ZNSt6vectorISt4pairIccESaIS1_EE17_M_realloc_insertIJS1_EEEvN9__gnu_cxx17__normal_iteratorIPS1_S3_EEDpOT_@Base 0.14.0
 (optional=templinst)_ZNSt6vectorISt4pairIlS_INSt7__cxx119sub_matchIN9__gnu_cxx17__normal_iteratorIPKcNS1_12basic_stringIcSt11char_traitsIcESaIcEEEEEEESaISD_EEESaISG_EE12emplace_backIJRlRKSF_EEERSG_DpOT_@Base 0.14.0
 (optional=templinst)_ZNSt6vectorISt4pairIlS_INSt7__cxx119sub_matchIN9__gnu_cxx17__normal_iteratorIPKcNS1_12basic_stringIcSt11char_traitsIcESaIcEEEEEEESaISD_EEESaISG_EE17_M_realloc_insertIJRlRKSF_EEEvNS4_IPSG_SI_EEDpOT_@Base 0.14.0
 (optional=templinst)_ZNSt6vectorISt4pairIlS_INSt7__cxx119sub_matchIN9__gnu_cxx17__normal_iteratorIPKcNS1_12basic_stringIcSt11char_traitsIcESaIcEEEEEEESaISD_EEESaISG_EED1Ev@Base 0.14.0
 (optional=templinst)_ZNSt6vectorISt4pairIlS_INSt7__cxx119sub_matchIN9__gnu_cxx17__normal_iteratorIPKcNS1_12basic_stringIcSt11char_traitsIcESaIcEEEEEEESaISD_EEESaISG_EED2Ev@Base 0.14.0
 (optional=templinst)_ZNSt6vectorIcSaIcEE12emplace_backIJcEEERcDpOT_@Base 0.14.0
 (optional=templinst)_ZNSt6vectorIcSaIcEE17_M_realloc_insertIJcEEEvN9__gnu_cxx17__normal_iteratorIPcS1_EEDpOT_@Base 0.14.0
 (optional=templinst)_ZNSt6vectorIcSaIcEE8_M_eraseEN9__gnu_cxx17__normal_iteratorIPcS1_EES5_@Base 0.14.0
 (optional=templinst)_ZNSt6vectorImSaImEE17_M_realloc_insertIJRKmEEEvN9__gnu_cxx17__normal_iteratorIPmS1_EEDpOT_@Base 0.14.0
 (optional=templinst)_ZNSt7__cxx1111basic_regexIcNS_12regex_traitsIcEEED1Ev@Base 0.14.0
 (optional=templinst)_ZNSt7__cxx1111basic_regexIcNS_12regex_traitsIcEEED2Ev@Base 0.14.0
 (optional=templinst)_ZNSt7__cxx1112basic_stringIcSt11char_traitsIcESaIcEE10_M_replaceEmmPKcm@Base 0.14.0
 (optional=templinst)_ZNSt7__cxx1112basic_stringIcSt11char_traitsIcESaIcEE12_M_constructEmc@Base 0.14.0
 (optional=templinst)_ZNSt7__cxx1112basic_stringIcSt11char_traitsIcESaIcEE12_M_constructIN9__gnu_cxx17__normal_iteratorIPKcS4_EEEEvT_SB_St20forward_iterator_tag@Base 0.14.0
 (optional=templinst)_ZNSt7__cxx1112basic_stringIcSt11char_traitsIcESaIcEE12_M_constructIPKcEEvT_S8_St20forward_iterator_tag@Base 0.14.0
 (optional=templinst)_ZNSt7__cxx1112basic_stringIcSt11char_traitsIcESaIcEE12_M_constructIPcEEvT_S7_St20forward_iterator_tag@Base 0.14.0
 (optional=templinst)_ZNSt7__cxx1112basic_stringIcSt11char_traitsIcESaIcEE14_M_replace_auxEmmmc@Base 0.14.0
 (optional=templinst)_ZNSt7__cxx1112basic_stringIcSt11char_traitsIcESaIcEE4swapERS4_@Base 0.14.0
 (optional=templinst)_ZNSt7__cxx1112basic_stringIcSt11char_traitsIcESaIcEE6appendEPKc@Base 0.14.0
 (optional=templinst)_ZNSt7__cxx1112basic_stringIcSt11char_traitsIcESaIcEE6assignERKS4_mm@Base 0.14.0
 (optional=templinst)_ZNSt7__cxx1112basic_stringIcSt11char_traitsIcESaIcEE6resizeEmc@Base 0.14.0
 (optional=templinst)_ZNSt7__cxx1112basic_stringIcSt11char_traitsIcESaIcEE7reserveEm@Base 0.14.0
 (optional=templinst)_ZNSt7__cxx1112basic_stringIcSt11char_traitsIcESaIcEE8_M_eraseEmm@Base 0.14.0
 (optional=templinst)_ZNSt7__cxx1112basic_stringIcSt11char_traitsIcESaIcEE9_M_appendEPKcm@Base 0.14.0
 (optional=templinst)_ZNSt7__cxx1112basic_stringIcSt11char_traitsIcESaIcEE9_M_assignERKS4_@Base 0.14.0
 (optional=templinst)_ZNSt7__cxx1112basic_stringIcSt11char_traitsIcESaIcEE9_M_createERmm@Base 0.14.0
 (optional=templinst)_ZNSt7__cxx1112basic_stringIcSt11char_traitsIcESaIcEE9_M_mutateEmmPKcm@Base 0.14.0
 (optional=templinst)_ZNSt7__cxx1112basic_stringIcSt11char_traitsIcESaIcEE9push_backEc@Base 0.14.0
 (optional=templinst)_ZNSt7__cxx1112basic_stringIcSt11char_traitsIcESaIcEEC1IS3_EEPKcRKS3_@Base 0.14.0
 (optional=templinst)_ZNSt7__cxx1112basic_stringIcSt11char_traitsIcESaIcEEC2IS3_EEPKcRKS3_@Base 0.14.0
 (optional=templinst)_ZNSt7__cxx1112basic_stringIcSt11char_traitsIcESaIcEED1Ev@Base 0.14.0
 (optional=templinst)_ZNSt7__cxx1112basic_stringIcSt11char_traitsIcESaIcEED2Ev@Base 0.14.0
 (optional=templinst)_ZNSt7__cxx1112basic_stringIcSt11char_traitsIcESaIcEEaSEOS4_@Base 0.14.0
 (optional=templinst)_ZNSt7__cxx1114regex_iteratorIN9__gnu_cxx17__normal_iteratorIPKcNS_12basic_stringIcSt11char_traitsIcESaIcEEEEEcNS_12regex_traitsIcEEEppEv@Base 0.14.0
 (optional=templinst)_ZNSt7__cxx1115basic_stringbufIcSt11char_traitsIcESaIcEED0Ev@Base 0.14.0
 (optional=templinst)_ZNSt7__cxx1115basic_stringbufIcSt11char_traitsIcESaIcEED1Ev@Base 0.14.0
 (optional=templinst)_ZNSt7__cxx1115basic_stringbufIcSt11char_traitsIcESaIcEED2Ev@Base 0.14.0
 (optional=templinst)_ZNSt8_Rb_treeINSt7__cxx1112basic_stringIcSt11char_traitsIcESaIcEEESt4pairIKS5_N4butl12builtin_infoEESt10_Select1stISA_ESt4lessIS5_ESaISA_EE24_M_get_insert_unique_posERS7_@Base 0.14.0
 (optional=templinst)_ZNSt8_Rb_treeINSt7__cxx1112basic_stringIcSt11char_traitsIcESaIcEEESt4pairIKS5_N4butl12builtin_infoEESt10_Select1stISA_ESt4lessIS5_ESaISA_EE29_M_get_insert_hint_unique_posESt23_Rb_tree_const_iteratorISA_ERS7_@Base 0.14.0
 (optional=templinst)_ZNSt8_Rb_treeINSt7__cxx1112basic_stringIcSt11char_traitsIcESaIcEEESt4pairIKS5_N4butl12builtin_infoEESt10_Select1stISA_ESt4lessIS5_ESaISA_EE8_M_eraseEPSt13_Rb_tree_nodeISA_E@Base 0.14.0
 (optional=templinst)_ZNSt8_Rb_treeINSt7__cxx1112basic_stringIcSt11char_traitsIcESaIcEEESt4pairIKS5_PFvRN4butl10cp_optionsERNS8_3cli7scannerEEESt10_Select1stISG_ESt4lessIS5_ESaISG_EE24_M_get_insert_unique_posERS7_@Base 0.14.0
 (optional=templinst)_ZNSt8_Rb_treeINSt7__cxx1112basic_stringIcSt11char_traitsIcESaIcEEESt4pairIKS5_PFvRN4butl10cp_optionsERNS8_3cli7scannerEEESt10_Select1stISG_ESt4lessIS5_ESaISG_EE29_M_get_insert_hint_unique_posESt23_Rb_tree_const_iteratorISG_ERS7_@Base 0.14.0
 (optional=templinst)_ZNSt8_Rb_treeINSt7__cxx1112basic_stringIcSt11char_traitsIcESaIcEEESt4pairIKS5_PFvRN4butl10cp_optionsERNS8_3cli7scannerEEESt10_Select1stISG_ESt4lessIS5_ESaISG_EE8_M_eraseEPSt13_Rb_tree_nodeISG_E@Base 0.14.0
 (optional=templinst)_ZNSt8_Rb_treeINSt7__cxx1112basic_stringIcSt11char_traitsIcESaIcEEESt4pairIKS5_PFvRN4butl10ln_optionsERNS8_3cli7scannerEEESt10_Select1stISG_ESt4lessIS5_ESaISG_EE24_M_get_insert_unique_posERS7_@Base 0.14.0
 (optional=templinst)_ZNSt8_Rb_treeINSt7__cxx1112basic_stringIcSt11char_traitsIcESaIcEEESt4pairIKS5_PFvRN4butl10ln_optionsERNS8_3cli7scannerEEESt10_Select1stISG_ESt4lessIS5_ESaISG_EE29_M_get_insert_hint_unique_posESt23_Rb_tree_const_iteratorISG_ERS7_@Base 0.14.0
 (optional=templinst)_ZNSt8_Rb_treeINSt7__cxx1112basic_stringIcSt11char_traitsIcESaIcEEESt4pairIKS5_PFvRN4butl10ln_optionsERNS8_3cli7scannerEEESt10_Select1stISG_ESt4lessIS5_ESaISG_EE8_M_eraseEPSt13_Rb_tree_nodeISG_E@Base 0.14.0
 (optional=templinst)_ZNSt8_Rb_treeINSt7__cxx1112basic_stringIcSt11char_traitsIcESaIcEEESt4pairIKS5_PFvRN4butl10mv_optionsERNS8_3cli7scannerEEESt10_Select1stISG_ESt4lessIS5_ESaISG_EE24_M_get_insert_unique_posERS7_@Base 0.14.0
 (optional=templinst)_ZNSt8_Rb_treeINSt7__cxx1112basic_stringIcSt11char_traitsIcESaIcEEESt4pairIKS5_PFvRN4butl10mv_optionsERNS8_3cli7scannerEEESt10_Select1stISG_ESt4lessIS5_ESaISG_EE29_M_get_insert_hint_unique_posESt23_Rb_tree_const_iteratorISG_ERS7_@Base 0.14.0
 (optional=templinst)_ZNSt8_Rb_treeINSt7__cxx1112basic_stringIcSt11char_traitsIcESaIcEEESt4pairIKS5_PFvRN4butl10mv_optionsERNS8_3cli7scannerEEESt10_Select1stISG_ESt4lessIS5_ESaISG_EE8_M_eraseEPSt13_Rb_tree_nodeISG_E@Base 0.14.0
 (optional=templinst)_ZNSt8_Rb_treeINSt7__cxx1112basic_stringIcSt11char_traitsIcESaIcEEESt4pairIKS5_PFvRN4butl10rm_optionsERNS8_3cli7scannerEEESt10_Select1stISG_ESt4lessIS5_ESaISG_EE24_M_get_insert_unique_posERS7_@Base 0.14.0
 (optional=templinst)_ZNSt8_Rb_treeINSt7__cxx1112basic_stringIcSt11char_traitsIcESaIcEEESt4pairIKS5_PFvRN4butl10rm_optionsERNS8_3cli7scannerEEESt10_Select1stISG_ESt4lessIS5_ESaISG_EE29_M_get_insert_hint_unique_posESt23_Rb_tree_const_iteratorISG_ERS7_@Base 0.14.0
 (optional=templinst)_ZNSt8_Rb_treeINSt7__cxx1112basic_stringIcSt11char_traitsIcESaIcEEESt4pairIKS5_PFvRN4butl10rm_optionsERNS8_3cli7scannerEEESt10_Select1stISG_ESt4lessIS5_ESaISG_EE8_M_eraseEPSt13_Rb_tree_nodeISG_E@Base 0.14.0
 (optional=templinst)_ZNSt8_Rb_treeINSt7__cxx1112basic_stringIcSt11char_traitsIcESaIcEEESt4pairIKS5_PFvRN4butl11cat_optionsERNS8_3cli7scannerEEESt10_Select1stISG_ESt4lessIS5_ESaISG_EE8_M_eraseEPSt13_Rb_tree_nodeISG_E@Base 0.14.0
 (optional=templinst)_ZNSt8_Rb_treeINSt7__cxx1112basic_stringIcSt11char_traitsIcESaIcEEESt4pairIKS5_PFvRN4butl11sed_optionsERNS8_3cli7scannerEEESt10_Select1stISG_ESt4lessIS5_ESaISG_EE24_M_get_insert_unique_posERS7_@Base 0.14.0
 (optional=templinst)_ZNSt8_Rb_treeINSt7__cxx1112basic_stringIcSt11char_traitsIcESaIcEEESt4pairIKS5_PFvRN4butl11sed_optionsERNS8_3cli7scannerEEESt10_Select1stISG_ESt4lessIS5_ESaISG_EE29_M_get_insert_hint_unique_posESt23_Rb_tree_const_iteratorISG_ERS7_@Base 0.14.0
 (optional=templinst)_ZNSt8_Rb_treeINSt7__cxx1112basic_stringIcSt11char_traitsIcESaIcEEESt4pairIKS5_PFvRN4butl11sed_optionsERNS8_3cli7scannerEEESt10_Select1stISG_ESt4lessIS5_ESaISG_EE8_M_eraseEPSt13_Rb_tree_nodeISG_E@Base 0.14.0
 (optional=templinst)_ZNSt8_Rb_treeINSt7__cxx1112basic_stringIcSt11char_traitsIcESaIcEEESt4pairIKS5_PFvRN4butl12date_optionsERNS8_3cli7scannerEEESt10_Select1stISG_ESt4lessIS5_ESaISG_EE24_M_get_insert_unique_posERS7_@Base 0.14.0
 (optional=templinst)_ZNSt8_Rb_treeINSt7__cxx1112basic_stringIcSt11char_traitsIcESaIcEEESt4pairIKS5_PFvRN4butl12date_optionsERNS8_3cli7scannerEEESt10_Select1stISG_ESt4lessIS5_ESaISG_EE29_M_get_insert_hint_unique_posESt23_Rb_tree_const_iteratorISG_ERS7_@Base 0.14.0
 (optional=templinst)_ZNSt8_Rb_treeINSt7__cxx1112basic_stringIcSt11char_traitsIcESaIcEEESt4pairIKS5_PFvRN4butl12date_optionsERNS8_3cli7scannerEEESt10_Select1stISG_ESt4lessIS5_ESaISG_EE8_M_eraseEPSt13_Rb_tree_nodeISG_E@Base 0.14.0
 (optional=templinst)_ZNSt8_Rb_treeINSt7__cxx1112basic_stringIcSt11char_traitsIcESaIcEEESt4pairIKS5_PFvRN4butl12test_optionsERNS8_3cli7scannerEEESt10_Select1stISG_ESt4lessIS5_ESaISG_EE24_M_get_insert_unique_posERS7_@Base 0.14.0
 (optional=templinst)_ZNSt8_Rb_treeINSt7__cxx1112basic_stringIcSt11char_traitsIcESaIcEEESt4pairIKS5_PFvRN4butl12test_optionsERNS8_3cli7scannerEEESt10_Select1stISG_ESt4lessIS5_ESaISG_EE29_M_get_insert_hint_unique_posESt23_Rb_tree_const_iteratorISG_ERS7_@Base 0.14.0
 (optional=templinst)_ZNSt8_Rb_treeINSt7__cxx1112basic_stringIcSt11char_traitsIcESaIcEEESt4pairIKS5_PFvRN4butl12test_optionsERNS8_3cli7scannerEEESt10_Select1stISG_ESt4lessIS5_ESaISG_EE8_M_eraseEPSt13_Rb_tree_nodeISG_E@Base 0.14.0
 (optional=templinst)_ZNSt8_Rb_treeINSt7__cxx1112basic_stringIcSt11char_traitsIcESaIcEEESt4pairIKS5_PFvRN4butl13mkdir_optionsERNS8_3cli7scannerEEESt10_Select1stISG_ESt4lessIS5_ESaISG_EE24_M_get_insert_unique_posERS7_@Base 0.14.0
 (optional=templinst)_ZNSt8_Rb_treeINSt7__cxx1112basic_stringIcSt11char_traitsIcESaIcEEESt4pairIKS5_PFvRN4butl13mkdir_optionsERNS8_3cli7scannerEEESt10_Select1stISG_ESt4lessIS5_ESaISG_EE29_M_get_insert_hint_unique_posESt23_Rb_tree_const_iteratorISG_ERS7_@Base 0.14.0
 (optional=templinst)_ZNSt8_Rb_treeINSt7__cxx1112basic_stringIcSt11char_traitsIcESaIcEEESt4pairIKS5_PFvRN4butl13mkdir_optionsERNS8_3cli7scannerEEESt10_Select1stISG_ESt4lessIS5_ESaISG_EE8_M_eraseEPSt13_Rb_tree_nodeISG_E@Base 0.14.0
 (optional=templinst)_ZNSt8_Rb_treeINSt7__cxx1112basic_stringIcSt11char_traitsIcESaIcEEESt4pairIKS5_PFvRN4butl13rmdir_optionsERNS8_3cli7scannerEEESt10_Select1stISG_ESt4lessIS5_ESaISG_EE24_M_get_insert_unique_posERS7_@Base 0.14.0
 (optional=templinst)_ZNSt8_Rb_treeINSt7__cxx1112basic_stringIcSt11char_traitsIcESaIcEEESt4pairIKS5_PFvRN4butl13rmdir_optionsERNS8_3cli7scannerEEESt10_Select1stISG_ESt4lessIS5_ESaISG_EE29_M_get_insert_hint_unique_posESt23_Rb_tree_const_iteratorISG_ERS7_@Base 0.14.0
 (optional=templinst)_ZNSt8_Rb_treeINSt7__cxx1112basic_stringIcSt11char_traitsIcESaIcEEESt4pairIKS5_PFvRN4butl13rmdir_optionsERNS8_3cli7scannerEEESt10_Select1stISG_ESt4lessIS5_ESaISG_EE8_M_eraseEPSt13_Rb_tree_nodeISG_E@Base 0.14.0
 (optional=templinst)_ZNSt8_Rb_treeINSt7__cxx1112basic_stringIcSt11char_traitsIcESaIcEEESt4pairIKS5_PFvRN4butl13sleep_optionsERNS8_3cli7scannerEEESt10_Select1stISG_ESt4lessIS5_ESaISG_EE8_M_eraseEPSt13_Rb_tree_nodeISG_E@Base 0.14.0
 (optional=templinst)_ZNSt8_Rb_treeINSt7__cxx1112basic_stringIcSt11char_traitsIcESaIcEEESt4pairIKS5_PFvRN4butl13touch_optionsERNS8_3cli7scannerEEESt10_Select1stISG_ESt4lessIS5_ESaISG_EE24_M_get_insert_unique_posERS7_@Base 0.14.0
 (optional=templinst)_ZNSt8_Rb_treeINSt7__cxx1112basic_stringIcSt11char_traitsIcESaIcEEESt4pairIKS5_PFvRN4butl13touch_optionsERNS8_3cli7scannerEEESt10_Select1stISG_ESt4lessIS5_ESaISG_EE29_M_get_insert_hint_unique_posESt23_Rb_tree_const_iteratorISG_ERS7_@Base 0.14.0
 (optional=templinst)_ZNSt8_Rb_treeINSt7__cxx1112basic_stringIcSt11char_traitsIcESaIcEEESt4pairIKS5_PFvRN4butl13touch_optionsERNS8_3cli7scannerEEESt10_Select1stISG_ESt4lessIS5_ESaISG_EE8_M_eraseEPSt13_Rb_tree_nodeISG_E@Base 0.14.0
 (optional=templinst)_ZNSt8_Rb_treeIlSt4pairIKllESt10_Select1stIS2_ESt4lessIlESaIS2_EE22_M_emplace_hint_uniqueIJRKSt21piecewise_construct_tSt5tupleIJRS1_EESD_IJEEEEESt17_Rb_tree_iteratorIS2_ESt23_Rb_tree_const_iteratorIS2_EDpOT_@Base 0.14.0
 (optional=templinst)_ZNSt8_Rb_treeIlSt4pairIKllESt10_Select1stIS2_ESt4lessIlESaIS2_EE24_M_get_insert_unique_posERS1_@Base 0.14.0
 (optional=templinst)_ZNSt8_Rb_treeIlSt4pairIKllESt10_Select1stIS2_ESt4lessIlESaIS2_EE29_M_get_insert_hint_unique_posESt23_Rb_tree_const_iteratorIS2_ERS1_@Base 0.14.0
 (optional=templinst)_ZNSt8_Rb_treeIlSt4pairIKllESt10_Select1stIS2_ESt4lessIlESaIS2_EE8_M_eraseEPSt13_Rb_tree_nodeIS2_E@Base 0.14.0
 (optional=templinst)_ZNSt8__detail15_BracketMatcherINSt7__cxx1112regex_traitsIcEELb0ELb0EE8_M_readyEv@Base 0.14.0
 (optional=templinst)_ZNSt8__detail15_BracketMatcherINSt7__cxx1112regex_traitsIcEELb0ELb0EED1Ev@Base 0.14.0
 (optional=templinst)_ZNSt8__detail15_BracketMatcherINSt7__cxx1112regex_traitsIcEELb0ELb0EED2Ev@Base 0.14.0
 (optional=templinst)_ZNSt8__detail15_BracketMatcherINSt7__cxx1112regex_traitsIcEELb0ELb1EE13_M_make_rangeEcc@Base 0.14.0
 (optional=templinst)_ZNSt8__detail15_BracketMatcherINSt7__cxx1112regex_traitsIcEELb0ELb1EE8_M_readyEv@Base 0.14.0
 (optional=templinst)_ZNSt8__detail15_BracketMatcherINSt7__cxx1112regex_traitsIcEELb0ELb1EED1Ev@Base 0.14.0
 (optional=templinst)_ZNSt8__detail15_BracketMatcherINSt7__cxx1112regex_traitsIcEELb0ELb1EED2Ev@Base 0.14.0
 (optional=templinst)_ZNSt8__detail15_BracketMatcherINSt7__cxx1112regex_traitsIcEELb1ELb0EE8_M_readyEv@Base 0.14.0
 (optional=templinst)_ZNSt8__detail15_BracketMatcherINSt7__cxx1112regex_traitsIcEELb1ELb0EED1Ev@Base 0.14.0
 (optional=templinst)_ZNSt8__detail15_BracketMatcherINSt7__cxx1112regex_traitsIcEELb1ELb0EED2Ev@Base 0.14.0
 (optional=templinst)_ZNSt8__detail15_BracketMatcherINSt7__cxx1112regex_traitsIcEELb1ELb1EE13_M_make_rangeEcc@Base 0.14.0
 (optional=templinst)_ZNSt8__detail15_BracketMatcherINSt7__cxx1112regex_traitsIcEELb1ELb1EE8_M_readyEv@Base 0.14.0
 (optional=templinst)_ZNSt8__detail15_BracketMatcherINSt7__cxx1112regex_traitsIcEELb1ELb1EED1Ev@Base 0.14.0
 (optional=templinst)_ZNSt8__detail15_BracketMatcherINSt7__cxx1112regex_traitsIcEELb1ELb1EED2Ev@Base 0.14.0
 (optional=templinst)_ZNSt8__detail17__regex_algo_implIN9__gnu_cxx17__normal_iteratorIPKcNSt7__cxx1112basic_stringIcSt11char_traitsIcESaIcEEEEESaINS5_9sub_matchISB_EEEcNS5_12regex_traitsIcEELNS_20_RegexExecutorPolicyE0ELb0EEEbT_SI_RNS5_13match_resultsISI_T0_EERKNS5_11basic_regexIT1_T2_EENSt15regex_constants15match_flag_typeE@Base 0.14.0
 (optional=templinst)_ZNSt8__detail4_NFAINSt7__cxx1112regex_traitsIcEEE17_M_insert_backrefEm@Base 0.14.0
 (optional=templinst)_ZNSt8__detail6_StateIcEC1EOS1_@Base 0.14.0
 (optional=templinst)_ZNSt8__detail6_StateIcEC2EOS1_@Base 0.14.0
 (optional=templinst)_ZNSt8__detail6_StateIcED1Ev@Base 0.14.0
 (optional=templinst)_ZNSt8__detail6_StateIcED2Ev@Base 0.14.0
 (optional=templinst)_ZNSt8__detail8_ScannerIcE10_M_advanceEv@Base 0.14.0
 (optional=templinst)_ZNSt8__detail8_ScannerIcE12_M_eat_classEc@Base 0.14.0
 (optional=templinst)_ZNSt8__detail8_ScannerIcE14_M_scan_normalEv@Base 0.14.0
 (optional=templinst)_ZNSt8__detail8_ScannerIcE16_M_scan_in_braceEv@Base 0.14.0
 (optional=templinst)_ZNSt8__detail8_ScannerIcE17_M_eat_escape_awkEv@Base 0.14.0
 (optional=templinst)_ZNSt8__detail8_ScannerIcE18_M_eat_escape_ecmaEv@Base 0.14.0
 (optional=templinst)_ZNSt8__detail8_ScannerIcE18_M_scan_in_bracketEv@Base 0.14.0
 (optional=templinst)_ZNSt8__detail8_ScannerIcE19_M_eat_escape_posixEv@Base 0.14.0
 (optional=templinst)_ZNSt8__detail8_ScannerIcEC1EPKcS3_NSt15regex_constants18syntax_option_typeESt6locale@Base 0.14.0
 (optional=templinst)_ZNSt8__detail8_ScannerIcEC2EPKcS3_NSt15regex_constants18syntax_option_typeESt6locale@Base 0.14.0
 (optional=templinst)_ZNSt8__detail9_CompilerINSt7__cxx1112regex_traitsIcEEE11_M_try_charEv@Base 0.14.0
 (optional=templinst)_ZNSt8__detail9_CompilerINSt7__cxx1112regex_traitsIcEEE12_M_assertionEv@Base 0.14.0
 (optional=templinst)_ZNSt8__detail9_CompilerINSt7__cxx1112regex_traitsIcEEE13_M_quantifierEv@Base 0.14.0
 (optional=templinst)_ZNSt8__detail9_CompilerINSt7__cxx1112regex_traitsIcEEE14_M_alternativeEv@Base 0.14.0
 (optional=templinst)_ZNSt8__detail9_CompilerINSt7__cxx1112regex_traitsIcEEE14_M_disjunctionEv@Base 0.14.0
 (optional=templinst)_ZNSt8__detail9_CompilerINSt7__cxx1112regex_traitsIcEEE16_M_cur_int_valueEi@Base 0.14.0
 (optional=templinst)_ZNSt8__detail9_CompilerINSt7__cxx1112regex_traitsIcEEE18_M_expression_termILb0ELb0EEEbRSt4pairIbcERNS_15_BracketMatcherIS3_XT_EXT0_EEE@Base 0.14.0
 (optional=templinst)_ZNSt8__detail9_CompilerINSt7__cxx1112regex_traitsIcEEE18_M_expression_termILb0ELb1EEEbRSt4pairIbcERNS_15_BracketMatcherIS3_XT_EXT0_EEE@Base 0.14.0
 (optional=templinst)_ZNSt8__detail9_CompilerINSt7__cxx1112regex_traitsIcEEE18_M_expression_termILb1ELb0EEEbRSt4pairIbcERNS_15_BracketMatcherIS3_XT_EXT0_EEE@Base 0.14.0
 (optional=templinst)_ZNSt8__detail9_CompilerINSt7__cxx1112regex_traitsIcEEE18_M_expression_termILb1ELb1EEEbRSt4pairIbcERNS_15_BracketMatcherIS3_XT_EXT0_EEE@Base 0.14.0
 (optional=templinst)_ZNSt8__detail9_CompilerINSt7__cxx1112regex_traitsIcEEE21_M_bracket_expressionEv@Base 0.14.0
 (optional=templinst)_ZNSt8__detail9_CompilerINSt7__cxx1112regex_traitsIcEEE22_M_insert_char_matcherILb0ELb0EEEvv@Base 0.14.0
 (optional=templinst)_ZNSt8__detail9_CompilerINSt7__cxx1112regex_traitsIcEEE22_M_insert_char_matcherILb0ELb1EEEvv@Base 0.14.0
 (optional=templinst)_ZNSt8__detail9_CompilerINSt7__cxx1112regex_traitsIcEEE22_M_insert_char_matcherILb1ELb0EEEvv@Base 0.14.0
 (optional=templinst)_ZNSt8__detail9_CompilerINSt7__cxx1112regex_traitsIcEEE22_M_insert_char_matcherILb1ELb1EEEvv@Base 0.14.0
 (optional=templinst)_ZNSt8__detail9_CompilerINSt7__cxx1112regex_traitsIcEEE25_M_insert_bracket_matcherILb0ELb0EEEvb@Base 0.14.0
 (optional=templinst)_ZNSt8__detail9_CompilerINSt7__cxx1112regex_traitsIcEEE25_M_insert_bracket_matcherILb0ELb1EEEvb@Base 0.14.0
 (optional=templinst)_ZNSt8__detail9_CompilerINSt7__cxx1112regex_traitsIcEEE25_M_insert_bracket_matcherILb1ELb0EEEvb@Base 0.14.0
 (optional=templinst)_ZNSt8__detail9_CompilerINSt7__cxx1112regex_traitsIcEEE25_M_insert_bracket_matcherILb1ELb1EEEvb@Base 0.14.0
 (optional=templinst)_ZNSt8__detail9_CompilerINSt7__cxx1112regex_traitsIcEEE26_M_insert_any_matcher_ecmaILb0ELb0EEEvv@Base 0.14.0
 (optional=templinst)_ZNSt8__detail9_CompilerINSt7__cxx1112regex_traitsIcEEE26_M_insert_any_matcher_ecmaILb0ELb1EEEvv@Base 0.14.0
 (optional=templinst)_ZNSt8__detail9_CompilerINSt7__cxx1112regex_traitsIcEEE26_M_insert_any_matcher_ecmaILb1ELb0EEEvv@Base 0.14.0
 (optional=templinst)_ZNSt8__detail9_CompilerINSt7__cxx1112regex_traitsIcEEE26_M_insert_any_matcher_ecmaILb1ELb1EEEvv@Base 0.14.0
 (optional=templinst)_ZNSt8__detail9_CompilerINSt7__cxx1112regex_traitsIcEEE27_M_insert_any_matcher_posixILb0ELb0EEEvv@Base 0.14.0
 (optional=templinst)_ZNSt8__detail9_CompilerINSt7__cxx1112regex_traitsIcEEE27_M_insert_any_matcher_posixILb0ELb1EEEvv@Base 0.14.0
 (optional=templinst)_ZNSt8__detail9_CompilerINSt7__cxx1112regex_traitsIcEEE27_M_insert_any_matcher_posixILb1ELb0EEEvv@Base 0.14.0
 (optional=templinst)_ZNSt8__detail9_CompilerINSt7__cxx1112regex_traitsIcEEE27_M_insert_any_matcher_posixILb1ELb1EEEvv@Base 0.14.0
 (optional=templinst)_ZNSt8__detail9_CompilerINSt7__cxx1112regex_traitsIcEEE33_M_insert_character_class_matcherILb0ELb0EEEvv@Base 0.14.0
 (optional=templinst)_ZNSt8__detail9_CompilerINSt7__cxx1112regex_traitsIcEEE33_M_insert_character_class_matcherILb0ELb1EEEvv@Base 0.14.0
 (optional=templinst)_ZNSt8__detail9_CompilerINSt7__cxx1112regex_traitsIcEEE33_M_insert_character_class_matcherILb1ELb0EEEvv@Base 0.14.0
 (optional=templinst)_ZNSt8__detail9_CompilerINSt7__cxx1112regex_traitsIcEEE33_M_insert_character_class_matcherILb1ELb1EEEvv@Base 0.14.0
 (optional=templinst)_ZNSt8__detail9_CompilerINSt7__cxx1112regex_traitsIcEEE7_M_atomEv@Base 0.14.0
 (optional=templinst)_ZNSt8__detail9_CompilerINSt7__cxx1112regex_traitsIcEEEC1EPKcS6_RKSt6localeNSt15regex_constants18syntax_option_typeE@Base 0.14.0
 (optional=templinst)_ZNSt8__detail9_CompilerINSt7__cxx1112regex_traitsIcEEEC2EPKcS6_RKSt6localeNSt15regex_constants18syntax_option_typeE@Base 0.14.0
 (optional=templinst)_ZNSt8__detail9_ExecutorIN9__gnu_cxx17__normal_iteratorIPKcNSt7__cxx1112basic_stringIcSt11char_traitsIcESaIcEEEEESaINS5_9sub_matchISB_EEENS5_12regex_traitsIcEELb0EE12_M_lookaheadEl@Base 0.14.0
 (optional=templinst)_ZNSt8__detail9_ExecutorIN9__gnu_cxx17__normal_iteratorIPKcNSt7__cxx1112basic_stringIcSt11char_traitsIcESaIcEEEEESaINS5_9sub_matchISB_EEENS5_12regex_traitsIcEELb0EE16_M_main_dispatchENSH_11_Match_modeESt17integral_constantIbLb0EE@Base 0.14.0
 (optional=templinst)_ZNSt8__detail9_ExecutorIN9__gnu_cxx17__normal_iteratorIPKcNSt7__cxx1112basic_stringIcSt11char_traitsIcESaIcEEEEESaINS5_9sub_matchISB_EEENS5_12regex_traitsIcEELb0EE16_M_rep_once_moreENSH_11_Match_modeEl@Base 0.14.0
 (optional=templinst)_ZNSt8__detail9_ExecutorIN9__gnu_cxx17__normal_iteratorIPKcNSt7__cxx1112basic_stringIcSt11char_traitsIcESaIcEEEEESaINS5_9sub_matchISB_EEENS5_12regex_traitsIcEELb0EE6_M_dfsENSH_11_Match_modeEl@Base 0.14.0
 (optional=templinst)_ZNSt8__detail9_ExecutorIN9__gnu_cxx17__normal_iteratorIPKcNSt7__cxx1112basic_stringIcSt11char_traitsIcESaIcEEEEESaINS5_9sub_matchISB_EEENS5_12regex_traitsIcEELb0EED1Ev@Base 0.14.0
 (optional=templinst)_ZNSt8__detail9_ExecutorIN9__gnu_cxx17__normal_iteratorIPKcNSt7__cxx1112basic_stringIcSt11char_traitsIcESaIcEEEEESaINS5_9sub_matchISB_EEENS5_12regex_traitsIcEELb0EED2Ev@Base 0.14.0
 (optional=templinst)_ZNSt8__detail9_ExecutorIN9__gnu_cxx17__normal_iteratorIPKcNSt7__cxx1112basic_stringIcSt11char_traitsIcESaIcEEEEESaINS5_9sub_matchISB_EEENS5_12regex_traitsIcEELb1EE12_M_lookaheadEl@Base 0.14.0
 (optional=templinst)_ZNSt8__detail9_ExecutorIN9__gnu_cxx17__normal_iteratorIPKcNSt7__cxx1112basic_stringIcSt11char_traitsIcESaIcEEEEESaINS5_9sub_matchISB_EEENS5_12regex_traitsIcEELb1EE16_M_rep_once_moreENSH_11_Match_modeEl@Base 0.14.0
 (optional=templinst)_ZNSt8__detail9_ExecutorIN9__gnu_cxx17__normal_iteratorIPKcNSt7__cxx1112basic_stringIcSt11char_traitsIcESaIcEEEEESaINS5_9sub_matchISB_EEENS5_12regex_traitsIcEELb1EE6_M_dfsENSH_11_Match_modeEl@Base 0.14.0
 (optional=templinst)_ZNSt8__detail9_ExecutorIN9__gnu_cxx17__normal_iteratorIPKcNSt7__cxx1112basic_stringIcSt11char_traitsIcESaIcEEEEESaINS5_9sub_matchISB_EEENS5_12regex_traitsIcEELb1EED1Ev@Base 0.14.0
 (optional=templinst)_ZNSt8__detail9_ExecutorIN9__gnu_cxx17__normal_iteratorIPKcNSt7__cxx1112basic_stringIcSt11char_traitsIcESaIcEEEEESaINS5_9sub_matchISB_EEENS5_12regex_traitsIcEELb1EED2Ev@Base 0.14.0
 (optional=templinst)_ZNSt8__detail9_StateSeqINSt7__cxx1112regex_traitsIcEEE8_M_cloneEv@Base 0.14.0
 (optional=templinst)_ZNSt8functionIFbcEEC1ERKS1_@Base 0.14.0
 (optional=templinst)_ZNSt8functionIFbcEEC1INSt8__detail15_BracketMatcherINSt7__cxx1112regex_traitsIcEELb0ELb0EEEvvEET_@Base 0.14.0
 (optional=templinst)_ZNSt8functionIFbcEEC1INSt8__detail15_BracketMatcherINSt7__cxx1112regex_traitsIcEELb0ELb1EEEvvEET_@Base 0.14.0
 (optional=templinst)_ZNSt8functionIFbcEEC1INSt8__detail15_BracketMatcherINSt7__cxx1112regex_traitsIcEELb1ELb0EEEvvEET_@Base 0.14.0
 (optional=templinst)_ZNSt8functionIFbcEEC1INSt8__detail15_BracketMatcherINSt7__cxx1112regex_traitsIcEELb1ELb1EEEvvEET_@Base 0.14.0
 (optional=templinst)_ZNSt8functionIFbcEEC2ERKS1_@Base 0.14.0
 (optional=templinst)_ZNSt8functionIFbcEEC2INSt8__detail15_BracketMatcherINSt7__cxx1112regex_traitsIcEELb0ELb0EEEvvEET_@Base 0.14.0
 (optional=templinst)_ZNSt8functionIFbcEEC2INSt8__detail15_BracketMatcherINSt7__cxx1112regex_traitsIcEELb0ELb1EEEvvEET_@Base 0.14.0
 (optional=templinst)_ZNSt8functionIFbcEEC2INSt8__detail15_BracketMatcherINSt7__cxx1112regex_traitsIcEELb1ELb0EEEvvEET_@Base 0.14.0
 (optional=templinst)_ZNSt8functionIFbcEEC2INSt8__detail15_BracketMatcherINSt7__cxx1112regex_traitsIcEELb1ELb1EEEvvEET_@Base 0.14.0
 (optional=templinst)_ZSt13__adjust_heapIN9__gnu_cxx17__normal_iteratorIPcSt6vectorIcSaIcEEEElcNS0_5__ops15_Iter_less_iterEEvT_T0_SA_T1_T2_@Base 0.14.0
 (optional=templinst)_ZSt13binary_searchIN9__gnu_cxx17__normal_iteratorIPKcSt6vectorIcSaIcEEEEcEbT_S8_RKT0_@Base 0.14.0
 (optional=templinst)_ZSt16__insertion_sortIN9__gnu_cxx17__normal_iteratorIPcSt6vectorIcSaIcEEEENS0_5__ops15_Iter_less_iterEEvT_S9_T0_@Base 0.14.0
 (optional=templinst)_ZSt16__introsort_loopIN9__gnu_cxx17__normal_iteratorIPcSt6vectorIcSaIcEEEElNS0_5__ops15_Iter_less_iterEEvT_S9_T0_T1_@Base 0.14.0
 _ZSt19__throw_regex_errorNSt15regex_constants10error_typeEPKc@Base 0.14.0
 _ZSt19piecewise_construct@Base 0.14.0
 (optional=templinst)_ZSt22__final_insertion_sortIN9__gnu_cxx17__normal_iteratorIPcSt6vectorIcSaIcEEEENS0_5__ops15_Iter_less_iterEEvT_S9_T0_@Base 0.14.0
 (optional=templinst)_ZSt22__uninitialized_copy_aIPKNSt7__cxx1112basic_stringIcSt11char_traitsIcESaIcEEEPS5_N4butl15small_allocatorIS5_Lm4ENS9_22small_allocator_bufferIS5_Lm4EEEEEET0_T_SF_SE_RT1_@Base 0.14.0
 (optional=templinst)_ZSt8__uniqueIN9__gnu_cxx17__normal_iteratorIPcSt6vectorIcSaIcEEEENS0_5__ops19_Iter_equal_to_iterEET_S9_S9_T0_@Base 0.14.0
 (optional=templinst)_ZSt9__find_ifIN9__gnu_cxx17__normal_iteratorIPKNSt7__cxx1112basic_stringIcSt11char_traitsIcESaIcEEESt6vectorIS7_SaIS7_EEEENS0_5__ops16_Iter_equals_valIS8_EEET_SH_SH_T0_St26random_access_iterator_tag@Base 0.14.0
 _ZStlsRSoRKSt11regex_error@Base 0.14.0
 _ZStlsRSoRKSt9exception@Base 0.14.0
 (optional=templinst)_ZStplIcSt11char_traitsIcESaIcEENSt7__cxx1112basic_stringIT_T0_T1_EEOS8_PKS5_@Base 0.14.0
 (optional=templinst)_ZStplIcSt11char_traitsIcESaIcEENSt7__cxx1112basic_stringIT_T0_T1_EEOS8_RKS8_@Base 0.14.0
 (optional=templinst)_ZStplIcSt11char_traitsIcESaIcEENSt7__cxx1112basic_stringIT_T0_T1_EEPKS5_RKS8_@Base 0.14.0
 (optional=templinst)_ZStplIcSt11char_traitsIcESaIcEENSt7__cxx1112basic_stringIT_T0_T1_EES5_RKS8_@Base 0.14.0
 _ZTIN4butl11tab_parsingE@Base 0.14.0
 _ZTIN4butl13fdstream_baseE@Base 0.14.0
 _ZTIN4butl13process_errorE@Base 0.14.0
 _ZTIN4butl13string_parser14invalid_stringE@Base 0.14.0
 _ZTIN4butl14uuid_generatorE@Base 0.14.0
 _ZTIN4butl16manifest_parsingE@Base 0.14.0
 _ZTIN4butl17invalid_path_baseE@Base 0.14.0
 _ZTIN4butl18invalid_basic_pathIcEE@Base 0.14.0
 _ZTIN4butl19process_child_errorE@Base 0.14.0
 _ZTIN4butl21uuid_system_generatorE@Base 0.14.0
 _ZTIN4butl22manifest_serializationE@Base 0.14.0
 _ZTIN4butl3cli11eos_reachedE@Base 0.14.0
 _ZTIN4butl3cli12argv_scannerE@Base 0.14.0
 _ZTIN4butl3cli13invalid_valueE@Base 0.14.0
 _ZTIN4butl3cli13missing_valueE@Base 0.14.0
 _ZTIN4butl3cli14unknown_optionE@Base 0.14.0
 _ZTIN4butl3cli14vector_scannerE@Base 0.14.0
 _ZTIN4butl3cli16unknown_argumentE@Base 0.14.0
 _ZTIN4butl3cli7scannerE@Base 0.14.0
 _ZTIN4butl3cli9exceptionE@Base 0.14.0
 _ZTIN4butl5fdbufE@Base 0.14.0
 _ZTIN4butl5pagerE@Base 0.14.0
 _ZTIN4butl6failedE@Base 0.14.0
 _ZTIN4butl7b_errorE@Base 0.14.0
 _ZTIN4butl9ifdstreamE@Base 0.14.0
 _ZTIN4butl9ofdstreamE@Base 0.14.0
 _ZTINSt8__detail11_AnyMatcherINSt7__cxx1112regex_traitsIcEELb0ELb0ELb0EEE@Base 0.14.0
 _ZTINSt8__detail11_AnyMatcherINSt7__cxx1112regex_traitsIcEELb0ELb0ELb1EEE@Base 0.14.0
 _ZTINSt8__detail11_AnyMatcherINSt7__cxx1112regex_traitsIcEELb0ELb1ELb0EEE@Base 0.14.0
 _ZTINSt8__detail11_AnyMatcherINSt7__cxx1112regex_traitsIcEELb0ELb1ELb1EEE@Base 0.14.0
 _ZTINSt8__detail11_AnyMatcherINSt7__cxx1112regex_traitsIcEELb1ELb0ELb0EEE@Base 0.14.0
 _ZTINSt8__detail11_AnyMatcherINSt7__cxx1112regex_traitsIcEELb1ELb0ELb1EEE@Base 0.14.0
 _ZTINSt8__detail11_AnyMatcherINSt7__cxx1112regex_traitsIcEELb1ELb1ELb0EEE@Base 0.14.0
 _ZTINSt8__detail11_AnyMatcherINSt7__cxx1112regex_traitsIcEELb1ELb1ELb1EEE@Base 0.14.0
 _ZTINSt8__detail12_CharMatcherINSt7__cxx1112regex_traitsIcEELb0ELb0EEE@Base 0.14.0
 _ZTINSt8__detail12_CharMatcherINSt7__cxx1112regex_traitsIcEELb0ELb1EEE@Base 0.14.0
 _ZTINSt8__detail12_CharMatcherINSt7__cxx1112regex_traitsIcEELb1ELb0EEE@Base 0.14.0
 _ZTINSt8__detail12_CharMatcherINSt7__cxx1112regex_traitsIcEELb1ELb1EEE@Base 0.14.0
 _ZTINSt8__detail15_BracketMatcherINSt7__cxx1112regex_traitsIcEELb0ELb0EEE@Base 0.14.0
 _ZTINSt8__detail15_BracketMatcherINSt7__cxx1112regex_traitsIcEELb0ELb1EEE@Base 0.14.0
 _ZTINSt8__detail15_BracketMatcherINSt7__cxx1112regex_traitsIcEELb1ELb0EEE@Base 0.14.0
 _ZTINSt8__detail15_BracketMatcherINSt7__cxx1112regex_traitsIcEELb1ELb1EEE@Base 0.14.0
 _ZTISt11_Mutex_baseILN9__gnu_cxx12_Lock_policyE2EE@Base 0.14.0
 _ZTISt11__pair_baseIN4butl10entry_typeESt12system_errorE@Base 0.14.0
 _ZTISt16_Sp_counted_baseILN9__gnu_cxx12_Lock_policyE2EE@Base 0.14.0
 _ZTISt23_Sp_counted_ptr_inplaceINSt8__detail4_NFAINSt7__cxx1112regex_traitsIcEEEESaIS5_ELN9__gnu_cxx12_Lock_policyE2EE@Base 0.14.0
 _ZTISt4pairIN4butl10entry_typeESt12system_errorE@Base 0.14.0
 _ZTSN4butl11tab_parsingE@Base 0.14.0
 _ZTSN4butl13fdstream_baseE@Base 0.14.0
 _ZTSN4butl13process_errorE@Base 0.14.0
 _ZTSN4butl13string_parser14invalid_stringE@Base 0.14.0
 _ZTSN4butl14uuid_generatorE@Base 0.14.0
 _ZTSN4butl16manifest_parsingE@Base 0.14.0
 _ZTSN4butl17invalid_path_baseE@Base 0.14.0
 _ZTSN4butl18invalid_basic_pathIcEE@Base 0.14.0
 _ZTSN4butl19process_child_errorE@Base 0.14.0
 _ZTSN4butl21uuid_system_generatorE@Base 0.14.0
 _ZTSN4butl22manifest_serializationE@Base 0.14.0
 _ZTSN4butl3cli11eos_reachedE@Base 0.14.0
 _ZTSN4butl3cli12argv_scannerE@Base 0.14.0
 _ZTSN4butl3cli13invalid_valueE@Base 0.14.0
 _ZTSN4butl3cli13missing_valueE@Base 0.14.0
 _ZTSN4butl3cli14unknown_optionE@Base 0.14.0
 _ZTSN4butl3cli14vector_scannerE@Base 0.14.0
 _ZTSN4butl3cli16unknown_argumentE@Base 0.14.0
 _ZTSN4butl3cli7scannerE@Base 0.14.0
 _ZTSN4butl3cli9exceptionE@Base 0.14.0
 _ZTSN4butl5fdbufE@Base 0.14.0
 _ZTSN4butl5pagerE@Base 0.14.0
 _ZTSN4butl6failedE@Base 0.14.0
 _ZTSN4butl7b_errorE@Base 0.14.0
 _ZTSN4butl9ifdstreamE@Base 0.14.0
 _ZTSN4butl9ofdstreamE@Base 0.14.0
 _ZTSNSt8__detail11_AnyMatcherINSt7__cxx1112regex_traitsIcEELb0ELb0ELb0EEE@Base 0.14.0
 _ZTSNSt8__detail11_AnyMatcherINSt7__cxx1112regex_traitsIcEELb0ELb0ELb1EEE@Base 0.14.0
 _ZTSNSt8__detail11_AnyMatcherINSt7__cxx1112regex_traitsIcEELb0ELb1ELb0EEE@Base 0.14.0
 _ZTSNSt8__detail11_AnyMatcherINSt7__cxx1112regex_traitsIcEELb0ELb1ELb1EEE@Base 0.14.0
 _ZTSNSt8__detail11_AnyMatcherINSt7__cxx1112regex_traitsIcEELb1ELb0ELb0EEE@Base 0.14.0
 _ZTSNSt8__detail11_AnyMatcherINSt7__cxx1112regex_traitsIcEELb1ELb0ELb1EEE@Base 0.14.0
 _ZTSNSt8__detail11_AnyMatcherINSt7__cxx1112regex_traitsIcEELb1ELb1ELb0EEE@Base 0.14.0
 _ZTSNSt8__detail11_AnyMatcherINSt7__cxx1112regex_traitsIcEELb1ELb1ELb1EEE@Base 0.14.0
 _ZTSNSt8__detail12_CharMatcherINSt7__cxx1112regex_traitsIcEELb0ELb0EEE@Base 0.14.0
 _ZTSNSt8__detail12_CharMatcherINSt7__cxx1112regex_traitsIcEELb0ELb1EEE@Base 0.14.0
 _ZTSNSt8__detail12_CharMatcherINSt7__cxx1112regex_traitsIcEELb1ELb0EEE@Base 0.14.0
 _ZTSNSt8__detail12_CharMatcherINSt7__cxx1112regex_traitsIcEELb1ELb1EEE@Base 0.14.0
 _ZTSNSt8__detail15_BracketMatcherINSt7__cxx1112regex_traitsIcEELb0ELb0EEE@Base 0.14.0
 _ZTSNSt8__detail15_BracketMatcherINSt7__cxx1112regex_traitsIcEELb0ELb1EEE@Base 0.14.0
 _ZTSNSt8__detail15_BracketMatcherINSt7__cxx1112regex_traitsIcEELb1ELb0EEE@Base 0.14.0
 _ZTSNSt8__detail15_BracketMatcherINSt7__cxx1112regex_traitsIcEELb1ELb1EEE@Base 0.14.0
 _ZTSSt11_Mutex_baseILN9__gnu_cxx12_Lock_policyE2EE@Base 0.14.0
 _ZTSSt11__pair_baseIN4butl10entry_typeESt12system_errorE@Base 0.14.0
 _ZTSSt16_Sp_counted_baseILN9__gnu_cxx12_Lock_policyE2EE@Base 0.14.0
 _ZTSSt19_Sp_make_shared_tag@Base 0.14.0
 _ZTSSt23_Sp_counted_ptr_inplaceINSt8__detail4_NFAINSt7__cxx1112regex_traitsIcEEEESaIS5_ELN9__gnu_cxx12_Lock_policyE2EE@Base 0.14.0
 _ZTSSt4pairIN4butl10entry_typeESt12system_errorE@Base 0.14.0
 _ZTTN4butl9ifdstreamE@Base 0.14.0
 _ZTTN4butl9ofdstreamE@Base 0.14.0
 _ZTVN4butl11tab_parsingE@Base 0.14.0
 _ZTVN4butl13process_errorE@Base 0.14.0
 _ZTVN4butl13string_parser14invalid_stringE@Base 0.14.0
 _ZTVN4butl16manifest_parsingE@Base 0.14.0
 _ZTVN4butl17invalid_path_baseE@Base 0.14.0
 _ZTVN4butl18invalid_basic_pathIcEE@Base 0.14.0
 _ZTVN4butl21uuid_system_generatorE@Base 0.14.0
 _ZTVN4butl22manifest_serializationE@Base 0.14.0
 _ZTVN4butl3cli11eos_reachedE@Base 0.14.0
 _ZTVN4butl3cli12argv_scannerE@Base 0.14.0
 _ZTVN4butl3cli13invalid_valueE@Base 0.14.0
 _ZTVN4butl3cli13missing_valueE@Base 0.14.0
 _ZTVN4butl3cli14unknown_optionE@Base 0.14.0
 _ZTVN4butl3cli14vector_scannerE@Base 0.14.0
 _ZTVN4butl3cli16unknown_argumentE@Base 0.14.0
 _ZTVN4butl3cli7scannerE@Base 0.14.0
 _ZTVN4butl3cli9exceptionE@Base 0.14.0
 _ZTVN4butl5fdbufE@Base 0.14.0
 _ZTVN4butl5pagerE@Base 0.14.0
 _ZTVN4butl7b_errorE@Base 0.14.0
 _ZTVN4butl9ifdstreamE@Base 0.14.0
 _ZTVN4butl9ofdstreamE@Base 0.14.0
 _ZTVSt23_Sp_counted_ptr_inplaceINSt8__detail4_NFAINSt7__cxx1112regex_traitsIcEEEESaIS5_ELN9__gnu_cxx12_Lock_policyE2EE@Base 0.14.0
 (optional=templinst)_ZZN4butl15path_filesystem8iteratorERKNS_10basic_pathIcNS_13dir_path_kindIcEEEEbbbSt8functionIFbS6_EEENKUlRKNS1_IcNS_13any_path_kindIcEEEES6_E_clESE_S6_@Base 0.14.0
 (optional=templinst)_ZZNKSt7__cxx1112regex_traitsIcE16lookup_classnameIPKcEENS1_10_RegexMaskET_S6_bE12__classnames@Base 0.14.0
 (optional=templinst)_ZZNKSt7__cxx1112regex_traitsIcE18lookup_collatenameIPKcEENS_12basic_stringIcSt11char_traitsIcESaIcEEET_SA_E14__collatenames@Base 0.14.0
 (optional=templinst)_ZZNKSt8__detail11_AnyMatcherINSt7__cxx1112regex_traitsIcEELb0ELb0ELb0EEclEcE5__nul@Base 0.14.0
 (optional=templinst)_ZZNKSt8__detail11_AnyMatcherINSt7__cxx1112regex_traitsIcEELb0ELb0ELb1EEclEcE5__nul@Base 0.14.0
 (optional=templinst)_ZZNKSt8__detail11_AnyMatcherINSt7__cxx1112regex_traitsIcEELb0ELb1ELb0EEclEcE5__nul@Base 0.14.0
 (optional=templinst)_ZZNKSt8__detail11_AnyMatcherINSt7__cxx1112regex_traitsIcEELb0ELb1ELb1EEclEcE5__nul@Base 0.14.0
 (optional=templinst)_ZZNKSt8__detail9_ExecutorIN9__gnu_cxx17__normal_iteratorIPKcNSt7__cxx1112basic_stringIcSt11char_traitsIcESaIcEEEEESaINS5_9sub_matchISB_EEENS5_12regex_traitsIcEELb0EE10_M_is_wordEcE3__s@Base 0.14.0
 (optional=templinst)_ZZNKSt8__detail9_ExecutorIN9__gnu_cxx17__normal_iteratorIPKcNSt7__cxx1112basic_stringIcSt11char_traitsIcESaIcEEEEESaINS5_9sub_matchISB_EEENS5_12regex_traitsIcEELb1EE10_M_is_wordEcE3__s@Base 0.14.0
 _ZZNSt19_Sp_make_shared_tag5_S_tiEvE5__tag@Base 0.14.0
 (c++)"virtual thunk to butl::ifdstream::~ifdstream()@Base" 0.14.0
 (c++)"virtual thunk to butl::ofdstream::~ofdstream()@Base" 0.14.0
