# SymbolsHelper-Confirmed: 0.14.0 amd64
libbuild2-0.14.so libbuild2-staged-0.14 #MINVER#
* Build-Depends-Package: build2-staged-dev
 _ZGVN6build212value_traitsISt3mapIN4butl12project_nameENS2_10basic_pathIcNS2_13dir_path_kindIcEEEESt4lessIS3_ESaISt4pairIKS3_S7_EEEE10value_typeE@Base 0.14.0
 _ZGVN6build212value_traitsISt3mapIN4butl12project_nameENS2_10basic_pathIcNS2_13dir_path_kindIcEEEESt4lessIS3_ESaISt4pairIKS3_S7_EEEE14empty_instanceE@Base 0.14.0
 _ZGVN6build212value_traitsISt3mapINSt7__cxx1112basic_stringIcSt11char_traitsIcESaIcEEES7_St4lessIS7_ESaISt4pairIKS7_S7_EEEE10value_typeE@Base 0.14.0
 _ZGVN6build212value_traitsISt3mapINSt7__cxx1112basic_stringIcSt11char_traitsIcESaIcEEES7_St4lessIS7_ESaISt4pairIKS7_S7_EEEE14empty_instanceE@Base 0.14.0
 _ZGVN6build212value_traitsISt3mapINSt7__cxx1112basic_stringIcSt11char_traitsIcESaIcEEESt8optionalIS7_ESt4lessIS7_ESaISt4pairIKS7_S9_EEEE10value_typeE@Base 0.14.0
 _ZGVN6build212value_traitsISt3mapINSt7__cxx1112basic_stringIcSt11char_traitsIcESaIcEEESt8optionalIS7_ESt4lessIS7_ESaISt4pairIKS7_S9_EEEE14empty_instanceE@Base 0.14.0
 _ZGVN6build212value_traitsISt3mapINSt7__cxx1112basic_stringIcSt11char_traitsIcESaIcEEESt8optionalIbESt4lessIS7_ESaISt4pairIKS7_S9_EEEE10value_typeE@Base 0.14.0
 _ZGVN6build212value_traitsISt3mapINSt7__cxx1112basic_stringIcSt11char_traitsIcESaIcEEESt8optionalIbESt4lessIS7_ESaISt4pairIKS7_S9_EEEE14empty_instanceE@Base 0.14.0
 _ZGVN6build212value_traitsISt3mapISt8optionalINSt7__cxx1112basic_stringIcSt11char_traitsIcESaIcEEEES8_St4lessIS9_ESaISt4pairIKS9_S8_EEEE10value_typeE@Base 0.14.0
 _ZGVN6build212value_traitsISt3mapISt8optionalINSt7__cxx1112basic_stringIcSt11char_traitsIcESaIcEEEES8_St4lessIS9_ESaISt4pairIKS9_S8_EEEE14empty_instanceE@Base 0.14.0
 _ZGVN6build212value_traitsISt6vectorIN4butl10basic_pathIcNS2_13any_path_kindIcEEEESaIS6_EEE10value_typeE@Base 0.14.0
 _ZGVN6build212value_traitsISt6vectorIN4butl10basic_pathIcNS2_13any_path_kindIcEEEESaIS6_EEE14empty_instanceE@Base 0.14.0
 _ZGVN6build212value_traitsISt6vectorIN4butl10basic_pathIcNS2_13dir_path_kindIcEEEESaIS6_EEE10value_typeE@Base 0.14.0
 _ZGVN6build212value_traitsISt6vectorIN4butl10basic_pathIcNS2_13dir_path_kindIcEEEESaIS6_EEE14empty_instanceE@Base 0.14.0
 _ZGVN6build212value_traitsISt6vectorINS_4nameESaIS2_EEE10value_typeE@Base 0.14.0
 _ZGVN6build212value_traitsISt6vectorINS_4nameESaIS2_EEE14empty_instanceE@Base 0.14.0
 _ZGVN6build212value_traitsISt6vectorINSt7__cxx1112basic_stringIcSt11char_traitsIcESaIcEEESaIS7_EEE10value_typeE@Base 0.14.0
 _ZGVN6build212value_traitsISt6vectorINSt7__cxx1112basic_stringIcSt11char_traitsIcESaIcEEESaIS7_EEE14empty_instanceE@Base 0.14.0
 _ZGVN6build212value_traitsISt6vectorISt4pairINSt7__cxx1112basic_stringIcSt11char_traitsIcESaIcEEES8_ESaIS9_EEE10value_typeE@Base 0.14.0
 _ZGVN6build212value_traitsISt6vectorISt4pairINSt7__cxx1112basic_stringIcSt11char_traitsIcESaIcEEES8_ESaIS9_EEE14empty_instanceE@Base 0.14.0
 _ZGVN6build212value_traitsISt6vectorISt4pairINSt7__cxx1112basic_stringIcSt11char_traitsIcESaIcEEESt8optionalIS8_EESaISB_EEE10value_typeE@Base 0.14.0
 _ZGVN6build212value_traitsISt6vectorISt4pairINSt7__cxx1112basic_stringIcSt11char_traitsIcESaIcEEESt8optionalIS8_EESaISB_EEE14empty_instanceE@Base 0.14.0
 _ZGVN6build212value_traitsISt6vectorISt4pairINSt7__cxx1112basic_stringIcSt11char_traitsIcESaIcEEESt8optionalIbEESaISB_EEE10value_typeE@Base 0.14.0
 _ZGVN6build212value_traitsISt6vectorISt4pairINSt7__cxx1112basic_stringIcSt11char_traitsIcESaIcEEESt8optionalIbEESaISB_EEE14empty_instanceE@Base 0.14.0
 _ZGVN6build212value_traitsISt6vectorISt4pairISt8optionalINSt7__cxx1112basic_stringIcSt11char_traitsIcESaIcEEEES9_ESaISB_EEE10value_typeE@Base 0.14.0
 _ZGVN6build212value_traitsISt6vectorISt4pairISt8optionalINSt7__cxx1112basic_stringIcSt11char_traitsIcESaIcEEEES9_ESaISB_EEE14empty_instanceE@Base 0.14.0
 _ZGVN6build212value_traitsISt6vectorIlSaIlEEE10value_typeE@Base 0.14.0
 _ZGVN6build212value_traitsISt6vectorIlSaIlEEE14empty_instanceE@Base 0.14.0
 _ZGVN6build212value_traitsISt6vectorImSaImEEE10value_typeE@Base 0.14.0
 _ZGVN6build212value_traitsISt6vectorImSaImEEE14empty_instanceE@Base 0.14.0
 _ZGVZNKSt8__detail11_AnyMatcherINSt7__cxx1112regex_traitsIN6build26script5regex9line_charEEELb0ELb0ELb0EEclES6_E5__nul@Base 0.14.0
 _ZGVZNKSt8__detail11_AnyMatcherINSt7__cxx1112regex_traitsIN6build26script5regex9line_charEEELb0ELb0ELb1EEclES6_E5__nul@Base 0.14.0
 _ZGVZNKSt8__detail11_AnyMatcherINSt7__cxx1112regex_traitsIN6build26script5regex9line_charEEELb0ELb1ELb0EEclES6_E5__nul@Base 0.14.0
 _ZGVZNKSt8__detail11_AnyMatcherINSt7__cxx1112regex_traitsIN6build26script5regex9line_charEEELb0ELb1ELb1EEclES6_E5__nul@Base 0.14.0
 _ZGVZNKSt8__detail11_AnyMatcherINSt7__cxx1112regex_traitsIcEELb0ELb0ELb0EEclEcE5__nul@Base 0.14.0
 _ZGVZNKSt8__detail11_AnyMatcherINSt7__cxx1112regex_traitsIcEELb0ELb0ELb1EEclEcE5__nul@Base 0.14.0
 _ZGVZNKSt8__detail11_AnyMatcherINSt7__cxx1112regex_traitsIcEELb0ELb1ELb0EEclEcE5__nul@Base 0.14.0
 _ZGVZNKSt8__detail11_AnyMatcherINSt7__cxx1112regex_traitsIcEELb0ELb1ELb1EEclEcE5__nul@Base 0.14.0
 _ZGVZNKSt8__detail9_ExecutorIN9__gnu_cxx17__normal_iteratorIPKN6build26script5regex9line_charENSt7__cxx1112basic_stringIS6_St11char_traitsIS6_ESaIS6_EEEEESaINS9_9sub_matchISF_EEENS9_12regex_traitsIS6_EELb0EE10_M_is_wordES6_E3__s@Base 0.14.0
 _ZGVZNKSt8__detail9_ExecutorIN9__gnu_cxx17__normal_iteratorIPKN6build26script5regex9line_charENSt7__cxx1112basic_stringIS6_St11char_traitsIS6_ESaIS6_EEEEESaINS9_9sub_matchISF_EEENS9_12regex_traitsIS6_EELb1EE10_M_is_wordES6_E3__s@Base 0.14.0
 (optional=templinst)_ZN4butl10basic_pathIcNS_13any_path_kindIcEEE12combine_implEPKcm@Base 0.14.0
 (optional=templinst)_ZN4butl10basic_pathIcNS_13any_path_kindIcEEE9normalizeEbb@Base 0.14.0
 (optional=templinst)_ZN4butl10basic_pathIcNS_13any_path_kindIcEEEC1EPKc@Base 0.14.0
 (optional=templinst)_ZN4butl10basic_pathIcNS_13any_path_kindIcEEEC2EPKc@Base 0.14.0
 (optional=templinst)_ZN4butl10basic_pathIcNS_13any_path_kindIcEEED1Ev@Base 0.14.0
 (optional=templinst)_ZN4butl10basic_pathIcNS_13any_path_kindIcEEED2Ev@Base 0.14.0
 (optional=templinst)_ZN4butl10basic_pathIcNS_13any_path_kindIcEEEdVERKS3_@Base 0.14.0
 (optional=templinst)_ZN4butl10basic_pathIcNS_13dir_path_kindIcEEE14make_directoryEv@Base 0.14.0
 (optional=templinst)_ZN4butl10basic_pathIcNS_13dir_path_kindIcEEE9normalizeEbb@Base 0.14.0
 (optional=templinst)_ZN4butl10basic_pathIcNS_13dir_path_kindIcEEEC1ENSt7__cxx1112basic_stringIcSt11char_traitsIcESaIcEEE@Base 0.14.0
 (optional=templinst)_ZN4butl10basic_pathIcNS_13dir_path_kindIcEEEC1EPKc@Base 0.14.0
 (optional=templinst)_ZN4butl10basic_pathIcNS_13dir_path_kindIcEEEC1ERKNSt7__cxx1112basic_stringIcSt11char_traitsIcESaIcEEEmm@Base 0.14.0
 (optional=templinst)_ZN4butl10basic_pathIcNS_13dir_path_kindIcEEEC2ENSt7__cxx1112basic_stringIcSt11char_traitsIcESaIcEEE@Base 0.14.0
 (optional=templinst)_ZN4butl10basic_pathIcNS_13dir_path_kindIcEEEC2EPKc@Base 0.14.0
 (optional=templinst)_ZN4butl10basic_pathIcNS_13dir_path_kindIcEEEC2ERKNSt7__cxx1112basic_stringIcSt11char_traitsIcESaIcEEEmm@Base 0.14.0
 (optional=templinst)_ZN4butl10basic_pathIcNS_13dir_path_kindIcEEED1Ev@Base 0.14.0
 (optional=templinst)_ZN4butl10basic_pathIcNS_13dir_path_kindIcEEED2Ev@Base 0.14.0
 (optional=templinst)_ZN4butl10basic_pathIcNS_13dir_path_kindIcEEEdVEPKc@Base 0.14.0
 (optional=templinst)_ZN4butl10basic_pathIcNS_13dir_path_kindIcEEEdVERKS3_@Base 0.14.0
 (optional=templinst)_ZN4butl11diag_recordC1IN6build214fail_mark_baseEEERKNS_9diag_markIT_EE@Base 0.14.0
 (optional=templinst)_ZN4butl11diag_recordC1IN6build222location_prologue_baseEEERKNS_13diag_prologueIT_EE@Base 0.14.0
 (optional=templinst)_ZN4butl11diag_recordC2IN6build214fail_mark_baseEEERKNS_9diag_markIT_EE@Base 0.14.0
 (optional=templinst)_ZN4butl11diag_recordC2IN6build222location_prologue_baseEEERKNS_13diag_prologueIT_EE@Base 0.14.0
 (optional=templinst)_ZN4butl11path_traitsIcE7compareERKNSt7__cxx1112basic_stringIcSt11char_traitsIcESaIcEEES9_m@Base 0.14.0
 (optional=templinst)_ZN4butl11process_env9init_varsINS_12small_vectorINSt7__cxx1112basic_stringIcSt11char_traitsIcESaIcEEELm4EEEEEvRKT_@Base 0.14.0
 _ZN4butl11process_envD1Ev@Base 0.14.0
 _ZN4butl11process_envD2Ev@Base 0.14.0
 (optional=templinst)_ZN4butl12char_scannerINS_14utf8_validatorELm2EE3getERKNS2_5xcharE@Base 0.14.0
 (optional=templinst)_ZN4butl12char_scannerINS_14utf8_validatorELm2EE4peekEPNSt7__cxx1112basic_stringIcSt11char_traitsIcESaIcEEE@Base 0.14.0
 (optional=templinst)_ZN4butl12char_scannerINS_14utf8_validatorELm2EE5ungetERKNS2_5xcharE@Base 0.14.0
 _ZN4butl12path_patternERKNS_10basic_pathIcNS_13any_path_kindIcEEEE@Base 0.14.0
 _ZN4butl12process_pathD1Ev@Base 0.14.0
 _ZN4butl12process_pathD2Ev@Base 0.14.0
 _ZN4butl12project_nameD1Ev@Base 0.14.0
 _ZN4butl12project_nameD2Ev@Base 0.14.0
 (optional=templinst)_ZN4butl12small_vectorIN6build24nameELm1EEC1EOS3_@Base 0.14.0
 (optional=templinst)_ZN4butl12small_vectorIN6build24nameELm1EEC1Ev@Base 0.14.0
 (optional=templinst)_ZN4butl12small_vectorIN6build24nameELm1EEC2EOS3_@Base 0.14.0
 (optional=templinst)_ZN4butl12small_vectorIN6build24nameELm1EEC2Ev@Base 0.14.0
 (optional=templinst)_ZN4butl12small_vectorIN6build24nameELm1EED1Ev@Base 0.14.0
 (optional=templinst)_ZN4butl12small_vectorIN6build24nameELm1EED2Ev@Base 0.14.0
 (optional=templinst)_ZN4butl12small_vectorISt10shared_ptrIN6build210adhoc_ruleEELm1EEC1Ev@Base 0.14.0
 (optional=templinst)_ZN4butl12small_vectorISt10shared_ptrIN6build210adhoc_ruleEELm1EEC2Ev@Base 0.14.0
 (optional=templinst)_ZN4butl12string_tableIhN6build219meta_operation_dataEE6insertERKS2_@Base 0.14.0
 (optional=templinst)_ZN4butl12string_tableIhN6build219meta_operation_dataEED1Ev@Base 0.14.0
 (optional=templinst)_ZN4butl12string_tableIhN6build219meta_operation_dataEED2Ev@Base 0.14.0
 (optional=templinst)_ZN4butl12string_tableIhNSt7__cxx1112basic_stringIcSt11char_traitsIcESaIcEEEE6insertERKS6_@Base 0.14.0
 (optional=templinst)_ZN4butl12string_tableIhNSt7__cxx1112basic_stringIcSt11char_traitsIcESaIcEEEED1Ev@Base 0.14.0
 (optional=templinst)_ZN4butl12string_tableIhNSt7__cxx1112basic_stringIcSt11char_traitsIcESaIcEEEED2Ev@Base 0.14.0
 (optional=templinst)_ZN4butl13any_path_kindIcE4initEONSt7__cxx1112basic_stringIcSt11char_traitsIcESaIcEEEb@Base 0.14.0
 (optional=templinst)_ZN4butl13dir_path_kindIcE4initEONSt7__cxx1112basic_stringIcSt11char_traitsIcESaIcEEEb@Base 0.14.0
 _ZN4butl13process_errorD0Ev@Base 0.14.0
 _ZN4butl13process_errorD1Ev@Base 0.14.0
 _ZN4butl13process_errorD2Ev@Base 0.14.0
 (optional=templinst)_ZN4butl14path_cast_implIcNS_13dir_path_kindIcEENS_13any_path_kindIcEEEENS_10basic_pathIT_T0_EERKNS5_IS6_T1_EEPS8_@Base 0.14.0
 _ZN4butl14target_tripletC1EOS0_@Base 0.14.0
 _ZN4butl14target_tripletC2EOS0_@Base 0.14.0
 _ZN4butl14target_tripletD1Ev@Base 0.14.0
 _ZN4butl14target_tripletD2Ev@Base 0.14.0
 _ZN4butl14utf8_validator8validateEcPNSt7__cxx1112basic_stringIcSt11char_traitsIcESaIcEEE@Base 0.14.0
 _ZN4butl16standard_versionD1Ev@Base 0.14.0
 _ZN4butl16standard_versionD2Ev@Base 0.14.0
 _ZN4butl17builtin_callbacksD1Ev@Base 0.14.0
 _ZN4butl17builtin_callbacksD2Ev@Base 0.14.0
 _ZN4butl17invalid_path_baseD0Ev@Base 0.14.0
 _ZN4butl17invalid_path_baseD1Ev@Base 0.14.0
 _ZN4butl17invalid_path_baseD2Ev@Base 0.14.0
 (optional=templinst)_ZN4butl17prefix_map_commonISt3mapINS_10basic_pathIcNS_13dir_path_kindIcEEEEN6build29scope_map6scopesENS_14compare_prefixIS5_EESaISt4pairIKS5_S8_EEEE8find_subERSC_@Base 0.14.0
 (optional=templinst)_ZN4butl17prefix_map_commonISt3mapINSt7__cxx1112basic_stringIcSt11char_traitsIcESaIcEEEN6build26config15saved_variablesENS_14compare_prefixIS7_EESaISt4pairIKS7_SA_EEEE8find_supERSE_@Base 0.14.0
 (optional=templinst)_ZN4butl18invalid_basic_pathIcEC1EPKcm@Base 0.14.0
 (optional=templinst)_ZN4butl18invalid_basic_pathIcEC1ERKNSt7__cxx1112basic_stringIcSt11char_traitsIcESaIcEEE@Base 0.14.0
 (optional=templinst)_ZN4butl18invalid_basic_pathIcEC2EPKcm@Base 0.14.0
 (optional=templinst)_ZN4butl18invalid_basic_pathIcEC2ERKNSt7__cxx1112basic_stringIcSt11char_traitsIcESaIcEEE@Base 0.14.0
 (optional=templinst)_ZN4butl18invalid_basic_pathIcED0Ev@Base 0.14.0
 (optional=templinst)_ZN4butl18invalid_basic_pathIcED1Ev@Base 0.14.0
 (optional=templinst)_ZN4butl18invalid_basic_pathIcED2Ev@Base 0.14.0
 (optional=templinst)_ZN4butl20regex_replace_searchIcZNS_20regex_replace_searchIcEESt4pairINSt7__cxx1112basic_stringIT_St11char_traitsIS5_ESaIS5_EEEbERKS9_RKNS3_11basic_regexIS5_NS3_12regex_traitsIS5_EEEESC_NSt15regex_constants15match_flag_typeEEUlN9__gnu_cxx17__normal_iteratorIPKcNS4_IcS6_IcESaIcEEEEESS_E_EEbSC_SI_SC_OT0_SK_@Base 0.14.0
 (optional=templinst)_ZN4butl21basic_path_name_valueINS_10basic_pathIcNS_13any_path_kindIcEEEEED1Ev@Base 0.14.0
 (optional=templinst)_ZN4butl21basic_path_name_valueINS_10basic_pathIcNS_13any_path_kindIcEEEEED2Ev@Base 0.14.0
 (optional=templinst)_ZN4butl27regex_replace_match_resultsIcEENSt7__cxx1112basic_stringIT_St11char_traitsIS3_ESaIS3_EEERKNS1_13match_resultsINS7_14const_iteratorESaINS1_9sub_matchIS9_EEEEEPKS3_m@Base 0.14.0
 _ZN4butl5fdbufD0Ev@Base 0.14.0
 _ZN4butl5fdbufD1Ev@Base 0.14.0
 _ZN4butl5fdbufD2Ev@Base 0.14.0
 (optional=templinst)_ZN4butl7auto_rmINS_10basic_pathIcNS_13any_path_kindIcEEEEED1Ev@Base 0.14.0
 (optional=templinst)_ZN4butl7auto_rmINS_10basic_pathIcNS_13any_path_kindIcEEEEED2Ev@Base 0.14.0
 (optional=templinst)_ZN4butl7auto_rmINS_10basic_pathIcNS_13dir_path_kindIcEEEEED1Ev@Base 0.14.0
 (optional=templinst)_ZN4butl7auto_rmINS_10basic_pathIcNS_13dir_path_kindIcEEEEED2Ev@Base 0.14.0
 _ZN4butl7processD1Ev@Base 0.14.0
 _ZN4butl7processD2Ev@Base 0.14.0
 (optional=templinst)_ZN4butldvIcEENS_10basic_pathIT_NS_13any_path_kindIS2_EEEERKNS1_IS2_NS_13dir_path_kindIS2_EEEERKS5_@Base 0.14.0
 (optional=templinst)_ZN4butldvIcNS_13dir_path_kindIcEEEENS_10basic_pathIT_NS_13any_path_kindIS4_EEEERKNS3_IS4_T0_EEPKS4_@Base 0.14.0
 (optional=templinst)_ZN4butldvIcNS_13dir_path_kindIcEEEENS_10basic_pathIT_T0_EERKS6_S8_@Base 0.14.0
 _ZN4butllsERKNS_11diag_recordERKNS_13diag_prologueIN6build222location_prologue_baseEEE@Base 0.14.0
 _ZN4butllsERKNS_11diag_recordERKNS_9diag_markIN6build214fail_mark_baseEEE@Base 0.14.0
 _ZN4butllsERKNS_11diag_recordERKNS_9diag_markIN6build215basic_mark_baseEEE@Base 0.14.0
 _ZN6build210adhoc_rule17recipes_build_dirE@Base 0.14.0
 _ZN6build210adhoc_rule19clean_recipes_buildENS_6actionERKNS_5scopeERKNS_3dirE@Base 0.14.0
 _ZN6build210alias_rule8instanceE@Base 0.14.0
 _ZN6build210alias_ruleD0Ev@Base 0.14.0
 _ZN6build210alias_ruleD1Ev@Base 0.14.0
 _ZN6build210alias_ruleD2Ev@Base 0.14.0
 _ZN6build210apply_implENS_6actionERNS_6targetERKSt4pairIKNSt7__cxx1112basic_stringIcSt11char_traitsIcESaIcEEESt17reference_wrapperIKNS_4ruleEEE@Base 0.14.0
 _ZN6build210config_subE@Base 0.14.0
 _ZN6build210depdb_baseC1ERKN4butl10basic_pathIcNS1_13any_path_kindIcEEEENSt6chrono10time_pointINS8_3_V212system_clockENS8_8durationIlSt5ratioILl1ELl1000000000EEEEEE@Base 0.14.0
 _ZN6build210depdb_baseC2ERKN4butl10basic_pathIcNS1_13any_path_kindIcEEEENSt6chrono10time_pointINS8_3_V212system_clockENS8_8durationIlSt5ratioILl1ELl1000000000EEEEEE@Base 0.14.0
 _ZN6build210diag_doingB5cxx11ERNS_7contextERKNS_6actionE@Base 0.14.0
 _ZN6build210diag_doingERSoRKNS_6actionERKNS_6targetE@Base 0.14.0
 _ZN6build210diag_frame5applyERKN4butl11diag_recordE@Base 0.14.0
 _ZN6build210diag_frame5stackEPKS0_@Base 0.14.0
 _ZN6build210diag_frame5stackEv@Base 0.14.0
 _ZN6build210empty_nameE@Base 0.14.0
 _ZN6build210empty_pathE@Base 0.14.0
 _ZN6build210file_cache5entry10decompressEv@Base 0.14.0
 _ZN6build210file_cache5entry13init_existingEv@Base 0.14.0
 _ZN6build210file_cache5entry6removeEv@Base 0.14.0
 _ZN6build210file_cache5entry7preemptEv@Base 0.14.0
 _ZN6build210file_cache5entry8compressEv@Base 0.14.0
 _ZN6build210file_cache5entry8init_newEv@Base 0.14.0
 _ZN6build210fsdir_rule13perform_cleanENS_6actionERKNS_6targetE@Base 0.14.0
 _ZN6build210fsdir_rule14perform_updateENS_6actionERKNS_6targetE@Base 0.14.0
 _ZN6build210fsdir_rule21perform_update_directENS_6actionERKNS_6targetE@Base 0.14.0
 _ZN6build210fsdir_rule8instanceE@Base 0.14.0
 _ZN6build210fsdir_ruleD0Ev@Base 0.14.0
 _ZN6build210fsdir_ruleD1Ev@Base 0.14.0
 _ZN6build210fsdir_ruleD2Ev@Base 0.14.0
 (optional=templinst)_ZN6build210map_appendIN4butl12project_nameENS1_10basic_pathIcNS1_13dir_path_kindIcEEEEEEvRNS_5valueEONS1_12small_vectorINS_4nameELm1EEEPKNS_8variableE@Base 0.14.0
 (optional=templinst)_ZN6build210map_appendINSt7__cxx1112basic_stringIcSt11char_traitsIcESaIcEEES6_EEvRNS_5valueEON4butl12small_vectorINS_4nameELm1EEEPKNS_8variableE@Base 0.14.0
 (optional=templinst)_ZN6build210map_appendINSt7__cxx1112basic_stringIcSt11char_traitsIcESaIcEEESt8optionalIS6_EEEvRNS_5valueEON4butl12small_vectorINS_4nameELm1EEEPKNS_8variableE@Base 0.14.0
 (optional=templinst)_ZN6build210map_appendINSt7__cxx1112basic_stringIcSt11char_traitsIcESaIcEEESt8optionalIbEEEvRNS_5valueEON4butl12small_vectorINS_4nameELm1EEEPKNS_8variableE@Base 0.14.0
 (optional=templinst)_ZN6build210map_appendISt8optionalINSt7__cxx1112basic_stringIcSt11char_traitsIcESaIcEEEES7_EEvRNS_5valueEON4butl12small_vectorINS_4nameELm1EEEPKNS_8variableE@Base 0.14.0
 (optional=templinst)_ZN6build210map_assignIN4butl12project_nameENS1_10basic_pathIcNS1_13dir_path_kindIcEEEEEEvRNS_5valueEONS1_12small_vectorINS_4nameELm1EEEPKNS_8variableE@Base 0.14.0
 (optional=templinst)_ZN6build210map_assignINSt7__cxx1112basic_stringIcSt11char_traitsIcESaIcEEES6_EEvRNS_5valueEON4butl12small_vectorINS_4nameELm1EEEPKNS_8variableE@Base 0.14.0
 (optional=templinst)_ZN6build210map_assignINSt7__cxx1112basic_stringIcSt11char_traitsIcESaIcEEESt8optionalIS6_EEEvRNS_5valueEON4butl12small_vectorINS_4nameELm1EEEPKNS_8variableE@Base 0.14.0
 (optional=templinst)_ZN6build210map_assignINSt7__cxx1112basic_stringIcSt11char_traitsIcESaIcEEESt8optionalIbEEEvRNS_5valueEON4butl12small_vectorINS_4nameELm1EEEPKNS_8variableE@Base 0.14.0
 (optional=templinst)_ZN6build210map_assignISt8optionalINSt7__cxx1112basic_stringIcSt11char_traitsIcESaIcEEEES7_EEvRNS_5valueEON4butl12small_vectorINS_4nameELm1EEEPKNS_8variableE@Base 0.14.0
 _ZN6build210match_ruleB5cxx11ENS_6actionERNS_6targetEPKNS_4ruleEb@Base 0.14.0
 _ZN6build210metaopspecD1Ev@Base 0.14.0
 _ZN6build210metaopspecD2Ev@Base 0.14.0
 _ZN6build210mo_performE@Base 0.14.0
 _ZN6build210op_defaultE@Base 0.14.0
 _ZN6build210path_permsERKN4butl10basic_pathIcNS0_13any_path_kindIcEEEE@Base 0.14.0
 _ZN6build210path_permsERKN4butl10basic_pathIcNS0_13any_path_kindIcEEEENS0_11permissionsE@Base 0.14.0
 _ZN6build210phase_lockC1ERNS_7contextENS_9run_phaseE@Base 0.14.0
 _ZN6build210phase_lockC2ERNS_7contextENS_9run_phaseE@Base 0.14.0
 _ZN6build210phase_lockD1Ev@Base 0.14.0
 _ZN6build210phase_lockD2Ev@Base 0.14.0
 _ZN6build210run_searchERKN4butl10basic_pathIcNS0_13any_path_kindIcEEEEbRKNS1_IcNS0_13dir_path_kindIcEEEEbRKNS_8locationE@Base 0.14.0
 _ZN6build210run_searchERPKcbRKNS_8locationE@Base 0.14.0
 _ZN6build210setup_baseESt17_Rb_tree_iteratorISt4pairIKN4butl10basic_pathIcNS2_13dir_path_kindIcEEEENS_9scope_map6scopesEEERS7_SC_@Base 0.14.0
 _ZN6build210setup_rootERNS_5scopeEb@Base 0.14.0
 _ZN6build210target_set13insert_lockedERKNS_11target_typeEN4butl10basic_pathIcNS4_13dir_path_kindIcEEEES8_NSt7__cxx1112basic_stringIcSt11char_traitsIcESaIcEEESt8optionalISE_ENS_11target_declERNS4_9diag_markINS_15trace_mark_baseEEE@Base 0.14.0
 _ZN6build210target_set6insertERKNS_11target_typeEN4butl10basic_pathIcNS4_13dir_path_kindIcEEEES8_NSt7__cxx1112basic_stringIcSt11char_traitsIcESaIcEEESt8optionalISE_ENS_11target_declERNS4_9diag_markINS_15trace_mark_baseEEE@Base 0.14.0
 (optional=templinst)_ZN6build210target_set6insertINS_4fileEEERT_RKN4butl10basic_pathIcNS5_13dir_path_kindIcEEEESB_RKNSt7__cxx1112basic_stringIcSt11char_traitsIcESaIcEEERKSt8optionalISH_ERNS5_9diag_markINS_15trace_mark_baseEEE@Base 0.14.0
 (optional=templinst)_ZN6build210target_set6insertINS_9buildfileEEERT_RKN4butl10basic_pathIcNS5_13dir_path_kindIcEEEESB_RKNSt7__cxx1112basic_stringIcSt11char_traitsIcESaIcEEERKSt8optionalISH_ERNS5_9diag_markINS_15trace_mark_baseEEE@Base 0.14.0
 _ZN6build210targetspecD1Ev@Base 0.14.0
 _ZN6build210targetspecD2Ev@Base 0.14.0
 _ZN6build210wait_guard4waitEv@Base 0.14.0
 _ZN6build211boot_moduleERNS_5scopeERKNSt7__cxx1112basic_stringIcSt11char_traitsIcESaIcEEERKNS_8locationE@Base 0.14.0
 _ZN6build211create_rootERNS_7contextERKN4butl10basic_pathIcNS2_13dir_path_kindIcEEEES8_@Base 0.14.0
 _ZN6build211empty_namesE@Base 0.14.0
 _ZN6build211file_searchERKNS_6targetERKNS_16prerequisite_keyE@Base 0.14.0
 _ZN6build211find_optionEPKcRKNS_6lookupEb@Base 0.14.0
 _ZN6build211find_optionEPKcRKSt6vectorINSt7__cxx1112basic_stringIcSt11char_traitsIcESaIcEEESaIS8_EEb@Base 0.14.0
 _ZN6build211find_optionEPKcRKSt6vectorIS1_SaIS1_EEb@Base 0.14.0
 _ZN6build211import_loadERNS_7contextESt4pairINS_4nameESt8optionalIN4butl10basic_pathIcNS5_13dir_path_kindIcEEEEEEbRKNS_8locationE@Base 0.14.0
 _ZN6build211info_searchERKN4butl12small_vectorINS_5valueELm1EEERKNS_5scopeES8_RKNS0_10basic_pathIcNS0_13any_path_kindIcEEEERKNS_10target_keyERKNS_8locationERNS_14action_targetsE@Base 0.14.0
 _ZN6build211init_moduleERNS_5scopeES1_RKNSt7__cxx1112basic_stringIcSt11char_traitsIcESaIcEEERKNS_8locationEbRKNS_12variable_mapE@Base 0.14.0
 _ZN6build211is_out_rootERKN4butl10basic_pathIcNS0_13dir_path_kindIcEEEERSt8optionalIbE@Base 0.14.0
 _ZN6build211is_src_rootERKN4butl10basic_pathIcNS0_13dir_path_kindIcEEEERSt8optionalIbE@Base 0.14.0
 _ZN6build211load_moduleERNS_5scopeES1_RKNSt7__cxx1112basic_stringIcSt11char_traitsIcESaIcEEERKNS_8locationERKNS_12variable_mapE@Base 0.14.0
 _ZN6build211load_moduleERNS_5scopeES1_RKNSt7__cxx1112basic_stringIcSt11char_traitsIcESaIcEEERKNS_8locationEbRKNS_12variable_mapE@Base 0.14.0
 (optional=templinst)_ZN6build211map_prependIN4butl12project_nameENS1_10basic_pathIcNS1_13dir_path_kindIcEEEEEEvRNS_5valueEONS1_12small_vectorINS_4nameELm1EEEPKNS_8variableE@Base 0.14.0
 (optional=templinst)_ZN6build211map_prependINSt7__cxx1112basic_stringIcSt11char_traitsIcESaIcEEES6_EEvRNS_5valueEON4butl12small_vectorINS_4nameELm1EEEPKNS_8variableE@Base 0.14.0
 (optional=templinst)_ZN6build211map_prependINSt7__cxx1112basic_stringIcSt11char_traitsIcESaIcEEESt8optionalIS6_EEEvRNS_5valueEON4butl12small_vectorINS_4nameELm1EEEPKNS_8variableE@Base 0.14.0
 (optional=templinst)_ZN6build211map_prependINSt7__cxx1112basic_stringIcSt11char_traitsIcESaIcEEESt8optionalIbEEEvRNS_5valueEON4butl12small_vectorINS_4nameELm1EEEPKNS_8variableE@Base 0.14.0
 (optional=templinst)_ZN6build211map_prependISt8optionalINSt7__cxx1112basic_stringIcSt11char_traitsIcESaIcEEEES7_EEvRNS_5valueEON4butl12small_vectorINS_4nameELm1EEEPKNS_8variableE@Base 0.14.0
 _ZN6build211noop_actionENS_6actionERKNS_6targetE@Base 0.14.0
 _ZN6build211noop_recipeE@Base 0.14.0
 _ZN6build211parse_regexERKNSt7__cxx1112basic_stringIcSt11char_traitsIcESaIcEEENSt15regex_constants18syntax_option_typeE@Base 0.14.0
 _ZN6build211path_target11derive_pathEN4butl10basic_pathIcNS1_13any_path_kindIcEEEEPKcS7_@Base 0.14.0
 _ZN6build211path_target11derive_pathEPKcS2_S2_S2_@Base 0.14.0
 _ZN6build211path_target11static_typeE@Base 0.14.0
 _ZN6build211path_target16derive_extensionB5cxx11EbPKc@Base 0.14.0
 _ZN6build211path_target26derive_path_with_extensionEN4butl10basic_pathIcNS1_13any_path_kindIcEEEERKNSt7__cxx1112basic_stringIcSt11char_traitsIcESaIcEEEPKc@Base 0.14.0
 _ZN6build211path_target26derive_path_with_extensionERKNSt7__cxx1112basic_stringIcSt11char_traitsIcESaIcEEEPKcSA_SA_@Base 0.14.0
 _ZN6build211source_onceERNS_5scopeES1_RKN4butl10basic_pathIcNS2_13any_path_kindIcEEEES1_@Base 0.14.0
 _ZN6build211stderr_termE@Base 0.14.0
 _ZN6build211target_lock5stackEPKS0_@Base 0.14.0
 _ZN6build211target_lock5stackEv@Base 0.14.0
 _ZN6build211target_lock6unlockEv@Base 0.14.0
 _ZN6build211unlock_implENS_6actionERNS_6targetEm@Base 0.14.0
 _ZN6build212bootstrappedERNS_5scopeE@Base 0.14.0
 _ZN6build212config_guessE@Base 0.14.0
 _ZN6build212diag_no_lineE@Base 0.14.0
 _ZN6build212empty_recipeE@Base 0.14.0
 _ZN6build212empty_stringB5cxx11E@Base 0.14.0
 _ZN6build212entry_existsERKN4butl10basic_pathIcNS0_13any_path_kindIcEEEEbb@Base 0.14.0
 _ZN6build212find_optionsERKSt16initializer_listIPKcERKNS_6lookupEb@Base 0.14.0
 _ZN6build212find_optionsERKSt16initializer_listIPKcERKSt6vectorINSt7__cxx1112basic_stringIcSt11char_traitsIcESaIcEEESaISC_EEb@Base 0.14.0
 _ZN6build212find_optionsERKSt16initializer_listIPKcERKSt6vectorIS2_SaIS2_EEb@Base 0.14.0
 (optional=templinst)_ZN6build212global_cacheIbED1Ev@Base 0.14.0
 (optional=templinst)_ZN6build212global_cacheIbED2Ev@Base 0.14.0
 _ZN6build212group_actionENS_6actionERKNS_6targetE@Base 0.14.0
 _ZN6build212group_recipeE@Base 0.14.0
 _ZN6build212include_implENS_6actionERKNS_6targetERKNSt7__cxx1112basic_stringIcSt11char_traitsIcESaIcEEERKNS_12prerequisiteEPS2_@Base 0.14.0
 _ZN6build212inject_fsdirENS_6actionERNS_6targetEb@Base 0.14.0
 _ZN6build212load_projectERNS_7contextERKN4butl10basic_pathIcNS2_13dir_path_kindIcEEEES8_bb@Base 0.14.0
 _ZN6build212module_stateD1Ev@Base 0.14.0
 _ZN6build212module_stateD2Ev@Base 0.14.0
 _ZN6build212mtime_target11static_typeE@Base 0.14.0
 _ZN6build212nullopt_pathE@Base 0.14.0
 _ZN6build212parse_numberERKNSt7__cxx1112basic_stringIcSt11char_traitsIcESaIcEEEm@Base 0.14.0
 _ZN6build212phase_switchC1ERNS_7contextENS_9run_phaseE@Base 0.14.0
 _ZN6build212phase_switchC2ERNS_7contextENS_9run_phaseE@Base 0.14.0
 _ZN6build212phase_switchD1Ev@Base 0.14.0
 _ZN6build212phase_switchD2Ev@Base 0.14.0
 _ZN6build212phase_unlock6unlockEv@Base 0.14.0
 _ZN6build212phase_unlockC1ERNS_7contextEbb@Base 0.14.0
 _ZN6build212phase_unlockC2ERNS_7contextEbb@Base 0.14.0
 _ZN6build212phase_unlockD1Ev@Base 0.14.0
 _ZN6build212phase_unlockD2Ev@Base 0.14.0
 _ZN6build212prerequisite6appendERKNS_8variableERKNS_6targetE@Base 0.14.0
 _ZN6build212prerequisiteC1ERKNS_6targetE@Base 0.14.0
 _ZN6build212prerequisiteC2ERKNS_6targetE@Base 0.14.0
 _ZN6build212prerequisiteD1Ev@Base 0.14.0
 _ZN6build212prerequisiteD2Ev@Base 0.14.0
 _ZN6build212run_io_errorEPPKcRKNSt8ios_base7failureB5cxx11E@Base 0.14.0
 _ZN6build212switch_scopeERNS_5scopeERKN4butl10basic_pathIcNS2_13dir_path_kindIcEEEEb@Base 0.14.0
 _ZN6build212value_traitsIN4butl10basic_pathIcNS1_13any_path_kindIcEEEEE10value_typeE@Base 0.14.0
 _ZN6build212value_traitsIN4butl10basic_pathIcNS1_13any_path_kindIcEEEEE14empty_instanceE@Base 0.14.0
 (optional=templinst)_ZN6build212value_traitsIN4butl10basic_pathIcNS1_13any_path_kindIcEEEEE7convertEONS_4nameEPS7_@Base 0.14.0
 _ZN6build212value_traitsIN4butl10basic_pathIcNS1_13any_path_kindIcEEEEE9type_nameE@Base 0.14.0
 _ZN6build212value_traitsIN4butl10basic_pathIcNS1_13dir_path_kindIcEEEEE10value_typeE@Base 0.14.0
 _ZN6build212value_traitsIN4butl10basic_pathIcNS1_13dir_path_kindIcEEEEE14empty_instanceE@Base 0.14.0
 (optional=templinst)_ZN6build212value_traitsIN4butl10basic_pathIcNS1_13dir_path_kindIcEEEEE7convertEONS_4nameEPS7_@Base 0.14.0
 _ZN6build212value_traitsIN4butl10basic_pathIcNS1_13dir_path_kindIcEEEEE9type_nameE@Base 0.14.0
 _ZN6build212value_traitsIN4butl12process_pathEE10value_typeE@Base 0.14.0
 (optional=templinst)_ZN6build212value_traitsIN4butl12process_pathEE7convertEONS_4nameEPS4_@Base 0.14.0
 _ZN6build212value_traitsIN4butl12process_pathEE9type_nameE@Base 0.14.0
 _ZN6build212value_traitsIN4butl12project_nameEE10value_typeE@Base 0.14.0
 _ZN6build212value_traitsIN4butl12project_nameEE14empty_instanceE@Base 0.14.0
 (optional=templinst)_ZN6build212value_traitsIN4butl12project_nameEE7convertEONS_4nameEPS4_@Base 0.14.0
 _ZN6build212value_traitsIN4butl12project_nameEE9type_nameE@Base 0.14.0
 _ZN6build212value_traitsIN4butl12small_vectorINS_4nameELm1EEEE14empty_instanceE@Base 0.14.0
 _ZN6build212value_traitsIN4butl14target_tripletEE10value_typeE@Base 0.14.0
 (optional=templinst)_ZN6build212value_traitsIN4butl14target_tripletEE7convertEONS_4nameEPS4_@Base 0.14.0
 _ZN6build212value_traitsIN4butl14target_tripletEE9type_nameE@Base 0.14.0
 _ZN6build212value_traitsINS_12abs_dir_pathEE10value_typeE@Base 0.14.0
 (optional=templinst)_ZN6build212value_traitsINS_12abs_dir_pathEE7convertEONS_4nameEPS3_@Base 0.14.0
 _ZN6build212value_traitsINS_12abs_dir_pathEE9type_nameE@Base 0.14.0
 _ZN6build212value_traitsINS_15process_path_exEE10value_typeE@Base 0.14.0
 (optional=templinst)_ZN6build212value_traitsINS_15process_path_exEE7convertEON4butl12small_vectorINS_4nameELm1EEE@Base 0.14.0
 (optional=templinst)_ZN6build212value_traitsINS_15process_path_exEE8find_endERN4butl12small_vectorINS_4nameELm1EEE@Base 0.14.0
 _ZN6build212value_traitsINS_15process_path_exEE9type_nameE@Base 0.14.0
 _ZN6build212value_traitsINS_4nameEE10value_typeE@Base 0.14.0
 (optional=templinst)_ZN6build212value_traitsINS_4nameEE7convertEOS1_PS1_@Base 0.14.0
 _ZN6build212value_traitsINS_4nameEE9type_nameE@Base 0.14.0
 _ZN6build212value_traitsINSt7__cxx1112basic_stringIcSt11char_traitsIcESaIcEEEE10value_typeE@Base 0.14.0
 _ZN6build212value_traitsINSt7__cxx1112basic_stringIcSt11char_traitsIcESaIcEEEE14empty_instanceE@Base 0.14.0
 (optional=templinst)_ZN6build212value_traitsINSt7__cxx1112basic_stringIcSt11char_traitsIcESaIcEEEE7convertEONS_4nameEPS8_@Base 0.14.0
 _ZN6build212value_traitsINSt7__cxx1112basic_stringIcSt11char_traitsIcESaIcEEEE9type_nameE@Base 0.14.0
 _ZN6build212value_traitsISt3mapIN4butl12project_nameENS2_10basic_pathIcNS2_13dir_path_kindIcEEEESt4lessIS3_ESaISt4pairIKS3_S7_EEEE10value_typeE@Base 0.14.0
 _ZN6build212value_traitsISt3mapIN4butl12project_nameENS2_10basic_pathIcNS2_13dir_path_kindIcEEEESt4lessIS3_ESaISt4pairIKS3_S7_EEEE14empty_instanceE@Base 0.14.0
 (optional=templinst)_ZN6build212value_traitsISt3mapIN4butl12project_nameENS2_10basic_pathIcNS2_13dir_path_kindIcEEEESt4lessIS3_ESaISt4pairIKS3_S7_EEEE5emptyERKSE_@Base 0.14.0
 (optional=templinst)_ZN6build212value_traitsISt3mapIN4butl12project_nameENS2_10basic_pathIcNS2_13dir_path_kindIcEEEESt4lessIS3_ESaISt4pairIKS3_S7_EEEE6appendERNS_5valueEOSE_@Base 0.14.0
 (optional=templinst)_ZN6build212value_traitsISt3mapIN4butl12project_nameENS2_10basic_pathIcNS2_13dir_path_kindIcEEEESt4lessIS3_ESaISt4pairIKS3_S7_EEEE6assignERNS_5valueEOSE_@Base 0.14.0
 (optional=templinst)_ZN6build212value_traitsISt3mapIN4butl12project_nameENS2_10basic_pathIcNS2_13dir_path_kindIcEEEESt4lessIS3_ESaISt4pairIKS3_S7_EEEE7prependERNS_5valueEOSE_@Base 0.14.0
 _ZN6build212value_traitsISt3mapINSt7__cxx1112basic_stringIcSt11char_traitsIcESaIcEEES7_St4lessIS7_ESaISt4pairIKS7_S7_EEEE10value_typeE@Base 0.14.0
 _ZN6build212value_traitsISt3mapINSt7__cxx1112basic_stringIcSt11char_traitsIcESaIcEEES7_St4lessIS7_ESaISt4pairIKS7_S7_EEEE14empty_instanceE@Base 0.14.0
 (optional=templinst)_ZN6build212value_traitsISt3mapINSt7__cxx1112basic_stringIcSt11char_traitsIcESaIcEEES7_St4lessIS7_ESaISt4pairIKS7_S7_EEEE5emptyERKSE_@Base 0.14.0
 (optional=templinst)_ZN6build212value_traitsISt3mapINSt7__cxx1112basic_stringIcSt11char_traitsIcESaIcEEES7_St4lessIS7_ESaISt4pairIKS7_S7_EEEE6appendERNS_5valueEOSE_@Base 0.14.0
 (optional=templinst)_ZN6build212value_traitsISt3mapINSt7__cxx1112basic_stringIcSt11char_traitsIcESaIcEEES7_St4lessIS7_ESaISt4pairIKS7_S7_EEEE6assignERNS_5valueEOSE_@Base 0.14.0
 (optional=templinst)_ZN6build212value_traitsISt3mapINSt7__cxx1112basic_stringIcSt11char_traitsIcESaIcEEES7_St4lessIS7_ESaISt4pairIKS7_S7_EEEE7prependERNS_5valueEOSE_@Base 0.14.0
 _ZN6build212value_traitsISt3mapINSt7__cxx1112basic_stringIcSt11char_traitsIcESaIcEEESt8optionalIS7_ESt4lessIS7_ESaISt4pairIKS7_S9_EEEE10value_typeE@Base 0.14.0
 _ZN6build212value_traitsISt3mapINSt7__cxx1112basic_stringIcSt11char_traitsIcESaIcEEESt8optionalIS7_ESt4lessIS7_ESaISt4pairIKS7_S9_EEEE14empty_instanceE@Base 0.14.0
 (optional=templinst)_ZN6build212value_traitsISt3mapINSt7__cxx1112basic_stringIcSt11char_traitsIcESaIcEEESt8optionalIS7_ESt4lessIS7_ESaISt4pairIKS7_S9_EEEE5emptyERKSG_@Base 0.14.0
 (optional=templinst)_ZN6build212value_traitsISt3mapINSt7__cxx1112basic_stringIcSt11char_traitsIcESaIcEEESt8optionalIS7_ESt4lessIS7_ESaISt4pairIKS7_S9_EEEE6appendERNS_5valueEOSG_@Base 0.14.0
 (optional=templinst)_ZN6build212value_traitsISt3mapINSt7__cxx1112basic_stringIcSt11char_traitsIcESaIcEEESt8optionalIS7_ESt4lessIS7_ESaISt4pairIKS7_S9_EEEE6assignERNS_5valueEOSG_@Base 0.14.0
 (optional=templinst)_ZN6build212value_traitsISt3mapINSt7__cxx1112basic_stringIcSt11char_traitsIcESaIcEEESt8optionalIS7_ESt4lessIS7_ESaISt4pairIKS7_S9_EEEE7prependERNS_5valueEOSG_@Base 0.14.0
 _ZN6build212value_traitsISt3mapINSt7__cxx1112basic_stringIcSt11char_traitsIcESaIcEEESt8optionalIbESt4lessIS7_ESaISt4pairIKS7_S9_EEEE10value_typeE@Base 0.14.0
 _ZN6build212value_traitsISt3mapINSt7__cxx1112basic_stringIcSt11char_traitsIcESaIcEEESt8optionalIbESt4lessIS7_ESaISt4pairIKS7_S9_EEEE14empty_instanceE@Base 0.14.0
 (optional=templinst)_ZN6build212value_traitsISt3mapINSt7__cxx1112basic_stringIcSt11char_traitsIcESaIcEEESt8optionalIbESt4lessIS7_ESaISt4pairIKS7_S9_EEEE5emptyERKSG_@Base 0.14.0
 (optional=templinst)_ZN6build212value_traitsISt3mapINSt7__cxx1112basic_stringIcSt11char_traitsIcESaIcEEESt8optionalIbESt4lessIS7_ESaISt4pairIKS7_S9_EEEE6appendERNS_5valueEOSG_@Base 0.14.0
 (optional=templinst)_ZN6build212value_traitsISt3mapINSt7__cxx1112basic_stringIcSt11char_traitsIcESaIcEEESt8optionalIbESt4lessIS7_ESaISt4pairIKS7_S9_EEEE6assignERNS_5valueEOSG_@Base 0.14.0
 (optional=templinst)_ZN6build212value_traitsISt3mapINSt7__cxx1112basic_stringIcSt11char_traitsIcESaIcEEESt8optionalIbESt4lessIS7_ESaISt4pairIKS7_S9_EEEE7prependERNS_5valueEOSG_@Base 0.14.0
 _ZN6build212value_traitsISt3mapISt8optionalINSt7__cxx1112basic_stringIcSt11char_traitsIcESaIcEEEES8_St4lessIS9_ESaISt4pairIKS9_S8_EEEE10value_typeE@Base 0.14.0
 _ZN6build212value_traitsISt3mapISt8optionalINSt7__cxx1112basic_stringIcSt11char_traitsIcESaIcEEEES8_St4lessIS9_ESaISt4pairIKS9_S8_EEEE14empty_instanceE@Base 0.14.0
 (optional=templinst)_ZN6build212value_traitsISt3mapISt8optionalINSt7__cxx1112basic_stringIcSt11char_traitsIcESaIcEEEES8_St4lessIS9_ESaISt4pairIKS9_S8_EEEE5emptyERKSG_@Base 0.14.0
 (optional=templinst)_ZN6build212value_traitsISt3mapISt8optionalINSt7__cxx1112basic_stringIcSt11char_traitsIcESaIcEEEES8_St4lessIS9_ESaISt4pairIKS9_S8_EEEE6appendERNS_5valueEOSG_@Base 0.14.0
 (optional=templinst)_ZN6build212value_traitsISt3mapISt8optionalINSt7__cxx1112basic_stringIcSt11char_traitsIcESaIcEEEES8_St4lessIS9_ESaISt4pairIKS9_S8_EEEE6assignERNS_5valueEOSG_@Base 0.14.0
 (optional=templinst)_ZN6build212value_traitsISt3mapISt8optionalINSt7__cxx1112basic_stringIcSt11char_traitsIcESaIcEEEES8_St4lessIS9_ESaISt4pairIKS9_S8_EEEE7prependERNS_5valueEOSG_@Base 0.14.0
 _ZN6build212value_traitsISt4pairINS_4nameES2_EE10value_typeE@Base 0.14.0
 (optional=templinst)_ZN6build212value_traitsISt4pairINS_4nameES2_EE7convertEOS2_PS2_@Base 0.14.0
 _ZN6build212value_traitsISt4pairINS_4nameES2_EE9type_nameE@Base 0.14.0
 _ZN6build212value_traitsISt6vectorIN4butl10basic_pathIcNS2_13any_path_kindIcEEEESaIS6_EEE10value_typeE@Base 0.14.0
 _ZN6build212value_traitsISt6vectorIN4butl10basic_pathIcNS2_13any_path_kindIcEEEESaIS6_EEE14empty_instanceE@Base 0.14.0
 (optional=templinst)_ZN6build212value_traitsISt6vectorIN4butl10basic_pathIcNS2_13any_path_kindIcEEEESaIS6_EEE5emptyERKS8_@Base 0.14.0
 (optional=templinst)_ZN6build212value_traitsISt6vectorIN4butl10basic_pathIcNS2_13any_path_kindIcEEEESaIS6_EEE6appendERNS_5valueEOS8_@Base 0.14.0
 (optional=templinst)_ZN6build212value_traitsISt6vectorIN4butl10basic_pathIcNS2_13any_path_kindIcEEEESaIS6_EEE6assignERNS_5valueEOS8_@Base 0.14.0
 (optional=templinst)_ZN6build212value_traitsISt6vectorIN4butl10basic_pathIcNS2_13any_path_kindIcEEEESaIS6_EEE7convertEONS2_12small_vectorINS_4nameELm1EEE@Base 0.14.0
 (optional=templinst)_ZN6build212value_traitsISt6vectorIN4butl10basic_pathIcNS2_13any_path_kindIcEEEESaIS6_EEE7prependERNS_5valueEOS8_@Base 0.14.0
 _ZN6build212value_traitsISt6vectorIN4butl10basic_pathIcNS2_13dir_path_kindIcEEEESaIS6_EEE10value_typeE@Base 0.14.0
 _ZN6build212value_traitsISt6vectorIN4butl10basic_pathIcNS2_13dir_path_kindIcEEEESaIS6_EEE14empty_instanceE@Base 0.14.0
 (optional=templinst)_ZN6build212value_traitsISt6vectorIN4butl10basic_pathIcNS2_13dir_path_kindIcEEEESaIS6_EEE5emptyERKS8_@Base 0.14.0
 (optional=templinst)_ZN6build212value_traitsISt6vectorIN4butl10basic_pathIcNS2_13dir_path_kindIcEEEESaIS6_EEE6appendERNS_5valueEOS8_@Base 0.14.0
 (optional=templinst)_ZN6build212value_traitsISt6vectorIN4butl10basic_pathIcNS2_13dir_path_kindIcEEEESaIS6_EEE6assignERNS_5valueEOS8_@Base 0.14.0
 (optional=templinst)_ZN6build212value_traitsISt6vectorIN4butl10basic_pathIcNS2_13dir_path_kindIcEEEESaIS6_EEE7convertEONS2_12small_vectorINS_4nameELm1EEE@Base 0.14.0
 (optional=templinst)_ZN6build212value_traitsISt6vectorIN4butl10basic_pathIcNS2_13dir_path_kindIcEEEESaIS6_EEE7prependERNS_5valueEOS8_@Base 0.14.0
 _ZN6build212value_traitsISt6vectorINS_4nameESaIS2_EEE10value_typeE@Base 0.14.0
 _ZN6build212value_traitsISt6vectorINS_4nameESaIS2_EEE14empty_instanceE@Base 0.14.0
 (optional=templinst)_ZN6build212value_traitsISt6vectorINS_4nameESaIS2_EEE5emptyERKS4_@Base 0.14.0
 (optional=templinst)_ZN6build212value_traitsISt6vectorINS_4nameESaIS2_EEE6appendERNS_5valueEOS4_@Base 0.14.0
 (optional=templinst)_ZN6build212value_traitsISt6vectorINS_4nameESaIS2_EEE6assignERNS_5valueEOS4_@Base 0.14.0
 (optional=templinst)_ZN6build212value_traitsISt6vectorINS_4nameESaIS2_EEE7convertEON4butl12small_vectorIS2_Lm1EEE@Base 0.14.0
 (optional=templinst)_ZN6build212value_traitsISt6vectorINS_4nameESaIS2_EEE7prependERNS_5valueEOS4_@Base 0.14.0
 _ZN6build212value_traitsISt6vectorINSt7__cxx1112basic_stringIcSt11char_traitsIcESaIcEEESaIS7_EEE10value_typeE@Base 0.14.0
 _ZN6build212value_traitsISt6vectorINSt7__cxx1112basic_stringIcSt11char_traitsIcESaIcEEESaIS7_EEE14empty_instanceE@Base 0.14.0
 (optional=templinst)_ZN6build212value_traitsISt6vectorINSt7__cxx1112basic_stringIcSt11char_traitsIcESaIcEEESaIS7_EEE5emptyERKS9_@Base 0.14.0
 (optional=templinst)_ZN6build212value_traitsISt6vectorINSt7__cxx1112basic_stringIcSt11char_traitsIcESaIcEEESaIS7_EEE6appendERNS_5valueEOS9_@Base 0.14.0
 (optional=templinst)_ZN6build212value_traitsISt6vectorINSt7__cxx1112basic_stringIcSt11char_traitsIcESaIcEEESaIS7_EEE6assignERNS_5valueEOS9_@Base 0.14.0
 (optional=templinst)_ZN6build212value_traitsISt6vectorINSt7__cxx1112basic_stringIcSt11char_traitsIcESaIcEEESaIS7_EEE7convertEON4butl12small_vectorINS_4nameELm1EEE@Base 0.14.0
 (optional=templinst)_ZN6build212value_traitsISt6vectorINSt7__cxx1112basic_stringIcSt11char_traitsIcESaIcEEESaIS7_EEE7prependERNS_5valueEOS9_@Base 0.14.0
 _ZN6build212value_traitsISt6vectorISt4pairINSt7__cxx1112basic_stringIcSt11char_traitsIcESaIcEEES8_ESaIS9_EEE10value_typeE@Base 0.14.0
 _ZN6build212value_traitsISt6vectorISt4pairINSt7__cxx1112basic_stringIcSt11char_traitsIcESaIcEEES8_ESaIS9_EEE14empty_instanceE@Base 0.14.0
 (optional=templinst)_ZN6build212value_traitsISt6vectorISt4pairINSt7__cxx1112basic_stringIcSt11char_traitsIcESaIcEEES8_ESaIS9_EEE5emptyERKSB_@Base 0.14.0
 (optional=templinst)_ZN6build212value_traitsISt6vectorISt4pairINSt7__cxx1112basic_stringIcSt11char_traitsIcESaIcEEES8_ESaIS9_EEE6appendERNS_5valueEOSB_@Base 0.14.0
 (optional=templinst)_ZN6build212value_traitsISt6vectorISt4pairINSt7__cxx1112basic_stringIcSt11char_traitsIcESaIcEEES8_ESaIS9_EEE6assignERNS_5valueEOSB_@Base 0.14.0
 (optional=templinst)_ZN6build212value_traitsISt6vectorISt4pairINSt7__cxx1112basic_stringIcSt11char_traitsIcESaIcEEES8_ESaIS9_EEE7prependERNS_5valueEOSB_@Base 0.14.0
 _ZN6build212value_traitsISt6vectorISt4pairINSt7__cxx1112basic_stringIcSt11char_traitsIcESaIcEEESt8optionalIS8_EESaISB_EEE10value_typeE@Base 0.14.0
 _ZN6build212value_traitsISt6vectorISt4pairINSt7__cxx1112basic_stringIcSt11char_traitsIcESaIcEEESt8optionalIS8_EESaISB_EEE14empty_instanceE@Base 0.14.0
 (optional=templinst)_ZN6build212value_traitsISt6vectorISt4pairINSt7__cxx1112basic_stringIcSt11char_traitsIcESaIcEEESt8optionalIS8_EESaISB_EEE5emptyERKSD_@Base 0.14.0
 (optional=templinst)_ZN6build212value_traitsISt6vectorISt4pairINSt7__cxx1112basic_stringIcSt11char_traitsIcESaIcEEESt8optionalIS8_EESaISB_EEE6appendERNS_5valueEOSD_@Base 0.14.0
 (optional=templinst)_ZN6build212value_traitsISt6vectorISt4pairINSt7__cxx1112basic_stringIcSt11char_traitsIcESaIcEEESt8optionalIS8_EESaISB_EEE6assignERNS_5valueEOSD_@Base 0.14.0
 (optional=templinst)_ZN6build212value_traitsISt6vectorISt4pairINSt7__cxx1112basic_stringIcSt11char_traitsIcESaIcEEESt8optionalIS8_EESaISB_EEE7prependERNS_5valueEOSD_@Base 0.14.0
 _ZN6build212value_traitsISt6vectorISt4pairINSt7__cxx1112basic_stringIcSt11char_traitsIcESaIcEEESt8optionalIbEESaISB_EEE10value_typeE@Base 0.14.0
 _ZN6build212value_traitsISt6vectorISt4pairINSt7__cxx1112basic_stringIcSt11char_traitsIcESaIcEEESt8optionalIbEESaISB_EEE14empty_instanceE@Base 0.14.0
 (optional=templinst)_ZN6build212value_traitsISt6vectorISt4pairINSt7__cxx1112basic_stringIcSt11char_traitsIcESaIcEEESt8optionalIbEESaISB_EEE5emptyERKSD_@Base 0.14.0
 (optional=templinst)_ZN6build212value_traitsISt6vectorISt4pairINSt7__cxx1112basic_stringIcSt11char_traitsIcESaIcEEESt8optionalIbEESaISB_EEE6appendERNS_5valueEOSD_@Base 0.14.0
 (optional=templinst)_ZN6build212value_traitsISt6vectorISt4pairINSt7__cxx1112basic_stringIcSt11char_traitsIcESaIcEEESt8optionalIbEESaISB_EEE6assignERNS_5valueEOSD_@Base 0.14.0
 (optional=templinst)_ZN6build212value_traitsISt6vectorISt4pairINSt7__cxx1112basic_stringIcSt11char_traitsIcESaIcEEESt8optionalIbEESaISB_EEE7prependERNS_5valueEOSD_@Base 0.14.0
 _ZN6build212value_traitsISt6vectorISt4pairISt8optionalINSt7__cxx1112basic_stringIcSt11char_traitsIcESaIcEEEES9_ESaISB_EEE10value_typeE@Base 0.14.0
 _ZN6build212value_traitsISt6vectorISt4pairISt8optionalINSt7__cxx1112basic_stringIcSt11char_traitsIcESaIcEEEES9_ESaISB_EEE14empty_instanceE@Base 0.14.0
 (optional=templinst)_ZN6build212value_traitsISt6vectorISt4pairISt8optionalINSt7__cxx1112basic_stringIcSt11char_traitsIcESaIcEEEES9_ESaISB_EEE5emptyERKSD_@Base 0.14.0
 (optional=templinst)_ZN6build212value_traitsISt6vectorISt4pairISt8optionalINSt7__cxx1112basic_stringIcSt11char_traitsIcESaIcEEEES9_ESaISB_EEE6appendERNS_5valueEOSD_@Base 0.14.0
 (optional=templinst)_ZN6build212value_traitsISt6vectorISt4pairISt8optionalINSt7__cxx1112basic_stringIcSt11char_traitsIcESaIcEEEES9_ESaISB_EEE6assignERNS_5valueEOSD_@Base 0.14.0
 (optional=templinst)_ZN6build212value_traitsISt6vectorISt4pairISt8optionalINSt7__cxx1112basic_stringIcSt11char_traitsIcESaIcEEEES9_ESaISB_EEE7prependERNS_5valueEOSD_@Base 0.14.0
 _ZN6build212value_traitsISt6vectorIlSaIlEEE10value_typeE@Base 0.14.0
 _ZN6build212value_traitsISt6vectorIlSaIlEEE14empty_instanceE@Base 0.14.0
 (optional=templinst)_ZN6build212value_traitsISt6vectorIlSaIlEEE5emptyERKS3_@Base 0.14.0
 (optional=templinst)_ZN6build212value_traitsISt6vectorIlSaIlEEE6appendERNS_5valueEOS3_@Base 0.14.0
 (optional=templinst)_ZN6build212value_traitsISt6vectorIlSaIlEEE6assignERNS_5valueEOS3_@Base 0.14.0
 (optional=templinst)_ZN6build212value_traitsISt6vectorIlSaIlEEE7convertEON4butl12small_vectorINS_4nameELm1EEE@Base 0.14.0
 (optional=templinst)_ZN6build212value_traitsISt6vectorIlSaIlEEE7prependERNS_5valueEOS3_@Base 0.14.0
 _ZN6build212value_traitsISt6vectorImSaImEEE10value_typeE@Base 0.14.0
 _ZN6build212value_traitsISt6vectorImSaImEEE14empty_instanceE@Base 0.14.0
 (optional=templinst)_ZN6build212value_traitsISt6vectorImSaImEEE5emptyERKS3_@Base 0.14.0
 (optional=templinst)_ZN6build212value_traitsISt6vectorImSaImEEE6appendERNS_5valueEOS3_@Base 0.14.0
 (optional=templinst)_ZN6build212value_traitsISt6vectorImSaImEEE6assignERNS_5valueEOS3_@Base 0.14.0
 (optional=templinst)_ZN6build212value_traitsISt6vectorImSaImEEE7convertEON4butl12small_vectorINS_4nameELm1EEE@Base 0.14.0
 (optional=templinst)_ZN6build212value_traitsISt6vectorImSaImEEE7prependERNS_5valueEOS3_@Base 0.14.0
 _ZN6build212value_traitsIbE10value_typeE@Base 0.14.0
 (optional=templinst)_ZN6build212value_traitsIbE7convertERKNS_4nameEPS3_@Base 0.14.0
 _ZN6build212value_traitsIbE9type_nameE@Base 0.14.0
 _ZN6build212value_traitsIlE10value_typeE@Base 0.14.0
 (optional=templinst)_ZN6build212value_traitsIlE7convertERKNS_4nameEPS3_@Base 0.14.0
 _ZN6build212value_traitsIlE9type_nameE@Base 0.14.0
 _ZN6build212value_traitsImE10value_typeE@Base 0.14.0
 (optional=templinst)_ZN6build212value_traitsImE7convertERKNS_4nameEPS3_@Base 0.14.0
 _ZN6build212value_traitsImE9type_nameE@Base 0.14.0
 _ZN6build212variable_map16lookup_to_modifyERKNS_8variableEb@Base 0.14.0
 _ZN6build212variable_map5eraseERKNS_8variableE@Base 0.14.0
 _ZN6build212variable_map6assignEPKNS_8variableE@Base 0.14.0
 _ZN6build212variable_map6insertERKNS_8variableEb@Base 0.14.0
 _ZN6build212variable_mapD1Ev@Base 0.14.0
 _ZN6build212variable_mapD2Ev@Base 0.14.0
 _ZN6build213apply_patternB5cxx11EPKcS1_@Base 0.14.0
 _ZN6build213bootstrap_fwdERNS_7contextERKN4butl10basic_pathIcNS2_13dir_path_kindIcEEEERSt8optionalIbE@Base 0.14.0
 _ZN6build213bootstrap_outERNS_5scopeERSt8optionalIbE@Base 0.14.0
 _ZN6build213bootstrap_preERNS_5scopeERSt8optionalIbE@Base 0.14.0
 _ZN6build213bootstrap_srcERNS_5scopeERSt8optionalIbE@Base 0.14.0
 _ZN6build213build_versionE@Base 0.14.0
 _ZN6build213convert_throwEPKNS_10value_typeERS1_@Base 0.14.0
 _ZN6build213diag_relativeB5cxx11ERKN4butl10basic_pathIcNS0_13any_path_kindIcEEEEb@Base 0.14.0
 _ZN6build213execute_innerENS_6actionERKNS_6targetE@Base 0.14.0
 _ZN6build213find_out_rootERKN4butl10basic_pathIcNS0_13dir_path_kindIcEEEERSt8optionalIbE@Base 0.14.0
 _ZN6build213find_src_rootERKN4butl10basic_pathIcNS0_13dir_path_kindIcEEEERSt8optionalIbE@Base 0.14.0
 _ZN6build213function_argsIJN4butl10basic_pathIcNS1_13any_path_kindIcEEEEEE5typesE@Base 0.14.0
 _ZN6build213function_argsIJN4butl10basic_pathIcNS1_13any_path_kindIcEEEENS1_12small_vectorINS_4nameELm1EEEEE5typesE@Base 0.14.0
 _ZN6build213function_argsIJN4butl10basic_pathIcNS1_13any_path_kindIcEEEENS1_12small_vectorINS_4nameELm1EEESt8optionalIS8_EEE5typesE@Base 0.14.0
 _ZN6build213function_argsIJN4butl10basic_pathIcNS1_13any_path_kindIcEEEENS2_IcNS1_13dir_path_kindIcEEEEEE5typesE@Base 0.14.0
 _ZN6build213function_argsIJN4butl10basic_pathIcNS1_13any_path_kindIcEEEENSt7__cxx1112basic_stringIcSt11char_traitsIcESaIcEEEEE5typesE@Base 0.14.0
 _ZN6build213function_argsIJN4butl10basic_pathIcNS1_13any_path_kindIcEEEES5_St8optionalINS2_IcNS1_13dir_path_kindIcEEEEEEE5typesE@Base 0.14.0
 _ZN6build213function_argsIJN4butl10basic_pathIcNS1_13any_path_kindIcEEEESt8optionalINS2_IcNS1_13dir_path_kindIcEEEEEEE5typesE@Base 0.14.0
 _ZN6build213function_argsIJN4butl10basic_pathIcNS1_13dir_path_kindIcEEEEEE5typesE@Base 0.14.0
 _ZN6build213function_argsIJN4butl10basic_pathIcNS1_13dir_path_kindIcEEEENS1_12small_vectorINS_4nameELm1EEEEE5typesE@Base 0.14.0
 _ZN6build213function_argsIJN4butl10basic_pathIcNS1_13dir_path_kindIcEEEENS_4nameEEE5typesE@Base 0.14.0
 _ZN6build213function_argsIJN4butl10basic_pathIcNS1_13dir_path_kindIcEEEENSt7__cxx1112basic_stringIcSt11char_traitsIcESaIcEEEEE5typesE@Base 0.14.0
 _ZN6build213function_argsIJN4butl12process_pathEEE5typesE@Base 0.14.0
 _ZN6build213function_argsIJN4butl12process_pathENS1_12small_vectorINS_4nameELm1EEESt8optionalIS5_EEE5typesE@Base 0.14.0
 _ZN6build213function_argsIJN4butl12process_pathENSt7__cxx1112basic_stringIcSt11char_traitsIcESaIcEEESt8optionalIS8_EEE5typesE@Base 0.14.0
 _ZN6build213function_argsIJN4butl12project_nameEEE5typesE@Base 0.14.0
 _ZN6build213function_argsIJN4butl12project_nameENS1_12small_vectorINS_4nameELm1EEEEE5typesE@Base 0.14.0
 _ZN6build213function_argsIJN4butl12project_nameENSt7__cxx1112basic_stringIcSt11char_traitsIcESaIcEEEEE5typesE@Base 0.14.0
 _ZN6build213function_argsIJN4butl12project_nameESt8optionalINSt7__cxx1112basic_stringIcSt11char_traitsIcESaIcEEEEEE5typesE@Base 0.14.0
 _ZN6build213function_argsIJN4butl12small_vectorINS_4nameELm1EEEEE5typesE@Base 0.14.0
 _ZN6build213function_argsIJN4butl12small_vectorINS_4nameELm1EEENS1_10basic_pathIcNS1_13any_path_kindIcEEEESt8optionalIS4_EEE5typesE@Base 0.14.0
 _ZN6build213function_argsIJN4butl12small_vectorINS_4nameELm1EEENS1_12project_nameEEE5typesE@Base 0.14.0
 _ZN6build213function_argsIJN4butl12small_vectorINS_4nameELm1EEENS1_14target_tripletEEE5typesE@Base 0.14.0
 _ZN6build213function_argsIJN4butl12small_vectorINS_4nameELm1EEENSt7__cxx1112basic_stringIcSt11char_traitsIcESaIcEEEEE5typesE@Base 0.14.0
 _ZN6build213function_argsIJN4butl12small_vectorINS_4nameELm1EEENSt7__cxx1112basic_stringIcSt11char_traitsIcESaIcEEESA_St8optionalIS4_EEE5typesE@Base 0.14.0
 _ZN6build213function_argsIJN4butl12small_vectorINS_4nameELm1EEENSt7__cxx1112basic_stringIcSt11char_traitsIcESaIcEEESA_St8optionalISA_ESB_IS4_EEE5typesE@Base 0.14.0
 _ZN6build213function_argsIJN4butl12small_vectorINS_4nameELm1EEENSt7__cxx1112basic_stringIcSt11char_traitsIcESaIcEEESt8optionalIS4_EEE5typesE@Base 0.14.0
 _ZN6build213function_argsIJN4butl12small_vectorINS_4nameELm1EEENSt7__cxx1112basic_stringIcSt11char_traitsIcESaIcEEESt8optionalISA_EEE5typesE@Base 0.14.0
 _ZN6build213function_argsIJN4butl12small_vectorINS_4nameELm1EEES4_EE5typesE@Base 0.14.0
 _ZN6build213function_argsIJN4butl12small_vectorINS_4nameELm1EEES4_S4_St8optionalIS4_EEE5typesE@Base 0.14.0
 _ZN6build213function_argsIJN4butl12small_vectorINS_4nameELm1EEES4_S4_St8optionalIS4_ES6_EE5typesE@Base 0.14.0
 _ZN6build213function_argsIJN4butl12small_vectorINS_4nameELm1EEES4_St8optionalIS4_EEE5typesE@Base 0.14.0
 _ZN6build213function_argsIJN4butl12small_vectorINS_4nameELm1EEESt8optionalINS1_10basic_pathIcNS1_13dir_path_kindIcEEEEEEE5typesE@Base 0.14.0
 _ZN6build213function_argsIJN4butl14target_tripletEEE5typesE@Base 0.14.0
 _ZN6build213function_argsIJN4butl14target_tripletENS1_12small_vectorINS_4nameELm1EEEEE5typesE@Base 0.14.0
 _ZN6build213function_argsIJN4butl14target_tripletENSt7__cxx1112basic_stringIcSt11char_traitsIcESaIcEEEEE5typesE@Base 0.14.0
 _ZN6build213function_argsIJNS_15process_path_exEEE5typesE@Base 0.14.0
 _ZN6build213function_argsIJNS_4nameEEE5typesE@Base 0.14.0
 _ZN6build213function_argsIJNS_5valueEN4butl12small_vectorINS_4nameELm1EEEPS5_St8optionalIS5_EEE5typesE@Base 0.14.0
 _ZN6build213function_argsIJNS_5valueEN4butl12small_vectorINS_4nameELm1EEES5_St8optionalIS5_EEE5typesE@Base 0.14.0
 _ZN6build213function_argsIJNS_5valueEN4butl12small_vectorINS_4nameELm1EEESt8optionalIS5_EEE5typesE@Base 0.14.0
 _ZN6build213function_argsIJNS_5valueENSt7__cxx1112basic_stringIcSt11char_traitsIcESaIcEEES7_St8optionalIN4butl12small_vectorINS_4nameELm1EEEEEE5typesE@Base 0.14.0
 _ZN6build213function_argsIJNS_5valueENSt7__cxx1112basic_stringIcSt11char_traitsIcESaIcEEESt8optionalIN4butl12small_vectorINS_4nameELm1EEEEEE5typesE@Base 0.14.0
 _ZN6build213function_argsIJNSt7__cxx1112basic_stringIcSt11char_traitsIcESaIcEEEEE5typesE@Base 0.14.0
 _ZN6build213function_argsIJNSt7__cxx1112basic_stringIcSt11char_traitsIcESaIcEEEN4butl12project_nameEEE5typesE@Base 0.14.0
 _ZN6build213function_argsIJNSt7__cxx1112basic_stringIcSt11char_traitsIcESaIcEEEN4butl12small_vectorINS_4nameELm1EEEEE5typesE@Base 0.14.0
 _ZN6build213function_argsIJNSt7__cxx1112basic_stringIcSt11char_traitsIcESaIcEEEN4butl14target_tripletEEE5typesE@Base 0.14.0
 _ZN6build213function_argsIJNSt7__cxx1112basic_stringIcSt11char_traitsIcESaIcEEES6_EE5typesE@Base 0.14.0
 _ZN6build213function_argsIJPNS_5valueEEE5typesE@Base 0.14.0
 _ZN6build213function_argsIJPNS_5valueESt8optionalIS1_EEE5typesE@Base 0.14.0
 _ZN6build213function_argsIJSt6vectorIN4butl10basic_pathIcNS2_13any_path_kindIcEEEESaIS6_EEEE5typesE@Base 0.14.0
 _ZN6build213function_argsIJSt6vectorIN4butl10basic_pathIcNS2_13any_path_kindIcEEEESaIS6_EESt8optionalINS3_IcNS2_13dir_path_kindIcEEEEEEE5typesE@Base 0.14.0
 _ZN6build213function_argsIJSt6vectorIN4butl10basic_pathIcNS2_13dir_path_kindIcEEEESaIS6_EEEE5typesE@Base 0.14.0
 _ZN6build213function_argsIJSt6vectorIN4butl10basic_pathIcNS2_13dir_path_kindIcEEEESaIS6_EESt8optionalIS6_EEE5typesE@Base 0.14.0
 _ZN6build213function_argsIJbEE5typesE@Base 0.14.0
 _ZN6build213function_argsIJlEE5typesE@Base 0.14.0
 _ZN6build213function_argsIJmEE5typesE@Base 0.14.0
 _ZN6build213import_directERbRNS_5scopeENS_4nameEbbbRKNS_8locationEPKc@Base 0.14.0
 _ZN6build213import_searchERbRNS_5scopeENS_4nameEbRKSt8optionalINSt7__cxx1112basic_stringIcSt11char_traitsIcESaIcEEEEbRKNS_8locationEPKc@Base 0.14.0
 (optional=templinst)_ZN6build213match_membersINS_19prerequisite_targetEEEvNS_6actionERNS_6targetEPKT_m@Base 0.14.0
 (optional=templinst)_ZN6build213match_membersIPKNS_6targetEEEvNS_6actionERS1_PKT_m@Base 0.14.0
 _ZN6build213parse_timeoutERKNSt7__cxx1112basic_stringIcSt11char_traitsIcESaIcEEEPKcS9_RKNS_8locationE@Base 0.14.0
 _ZN6build213perform_cleanENS_6actionERKNS_6targetE@Base 0.14.0
 _ZN6build213print_processEPKPKcm@Base 0.14.0
 _ZN6build213print_processERKN4butl11process_envEPKPKcm@Base 0.14.0
 _ZN6build213print_processERN4butl11diag_recordEPKPKcm@Base 0.14.0
 _ZN6build213print_processERN4butl11diag_recordERKNS0_11process_envEPKPKcm@Base 0.14.0
 _ZN6build213relative_baseE@Base 0.14.0
 _ZN6build213search_lockedERKNS_6targetERKNS_16prerequisite_keyE@Base 0.14.0
 _ZN6build213std_build_dirE@Base 0.14.0
 _ZN6build213std_root_fileE@Base 0.14.0
 _ZN6build213target_searchERKNS_6targetERKNS_16prerequisite_keyE@Base 0.14.0
 _ZN6build213token_printerERSoRKNS_5tokenENS_10print_modeE@Base 0.14.0
 _ZN6build213typify_atomicERNS_7contextERNS_5valueERKNS_10value_typeEPKNS_8variableE@Base 0.14.0
 _ZN6build213variable_pool12insert_aliasERKNS_8variableENSt7__cxx1112basic_stringIcSt11char_traitsIcESaIcEEE@Base 0.14.0
 _ZN6build213variable_pool14insert_patternERKNSt7__cxx1112basic_stringIcSt11char_traitsIcESaIcEEESt8optionalIPKNS_10value_typeEES9_IbES9_INS_19variable_visibilityEEbb@Base 0.14.0
 _ZN6build213variable_pool6insertENSt7__cxx1112basic_stringIcSt11char_traitsIcESaIcEEE@Base 0.14.0
 _ZN6build213variable_pool6insertENSt7__cxx1112basic_stringIcSt11char_traitsIcESaIcEEEPKNS_10value_typeEPKNS_19variable_visibilityEPKbb@Base 0.14.0
 _ZN6build213variable_pool6insertENSt7__cxx1112basic_stringIcSt11char_traitsIcESaIcEEEb@Base 0.14.0
 (optional=templinst)_ZN6build213variable_pool6insertIN4butl10basic_pathIcNS2_13dir_path_kindIcEEEEEERKNS_8variableENSt7__cxx1112basic_stringIcSt11char_traitsIcESaIcEEE@Base 0.14.0
 (optional=templinst)_ZN6build213variable_pool6insertINSt7__cxx1112basic_stringIcSt11char_traitsIcESaIcEEEEERKNS_8variableES7_@Base 0.14.0
 (optional=templinst)_ZN6build213variable_pool6insertINSt7__cxx1112basic_stringIcSt11char_traitsIcESaIcEEEEERKNS_8variableES7_NS_19variable_visibilityE@Base 0.14.0
 (optional=templinst)_ZN6build213vector_appendIN4butl10basic_pathIcNS1_13any_path_kindIcEEEEEEvRNS_5valueEONS1_12small_vectorINS_4nameELm1EEEPKNS_8variableE@Base 0.14.0
 (optional=templinst)_ZN6build213vector_appendIN4butl10basic_pathIcNS1_13dir_path_kindIcEEEEEEvRNS_5valueEONS1_12small_vectorINS_4nameELm1EEEPKNS_8variableE@Base 0.14.0
 (optional=templinst)_ZN6build213vector_appendINS_4nameEEEvRNS_5valueEON4butl12small_vectorIS1_Lm1EEEPKNS_8variableE@Base 0.14.0
 (optional=templinst)_ZN6build213vector_appendINSt7__cxx1112basic_stringIcSt11char_traitsIcESaIcEEEEEvRNS_5valueEON4butl12small_vectorINS_4nameELm1EEEPKNS_8variableE@Base 0.14.0
 (optional=templinst)_ZN6build213vector_appendIlEEvRNS_5valueEON4butl12small_vectorINS_4nameELm1EEEPKNS_8variableE@Base 0.14.0
 (optional=templinst)_ZN6build213vector_appendImEEvRNS_5valueEON4butl12small_vectorINS_4nameELm1EEEPKNS_8variableE@Base 0.14.0
 (optional=templinst)_ZN6build213vector_assignIN4butl10basic_pathIcNS1_13any_path_kindIcEEEEEEvRNS_5valueEONS1_12small_vectorINS_4nameELm1EEEPKNS_8variableE@Base 0.14.0
 (optional=templinst)_ZN6build213vector_assignIN4butl10basic_pathIcNS1_13dir_path_kindIcEEEEEEvRNS_5valueEONS1_12small_vectorINS_4nameELm1EEEPKNS_8variableE@Base 0.14.0
 (optional=templinst)_ZN6build213vector_assignINS_4nameEEEvRNS_5valueEON4butl12small_vectorIS1_Lm1EEEPKNS_8variableE@Base 0.14.0
 (optional=templinst)_ZN6build213vector_assignINSt7__cxx1112basic_stringIcSt11char_traitsIcESaIcEEEEEvRNS_5valueEON4butl12small_vectorINS_4nameELm1EEEPKNS_8variableE@Base 0.14.0
 (optional=templinst)_ZN6build213vector_assignIlEEvRNS_5valueEON4butl12small_vectorINS_4nameELm1EEEPKNS_8variableE@Base 0.14.0
 (optional=templinst)_ZN6build213vector_assignImEEvRNS_5valueEON4butl12small_vectorINS_4nameELm1EEEPKNS_8variableE@Base 0.14.0
 _ZN6build214adhoc_cxx_rule11recipe_textERKNS_5scopeEONSt7__cxx1112basic_stringIcSt11char_traitsIcESaIcEEERNS_10attributesE@Base 0.14.0
 _ZN6build214adhoc_cxx_ruleC1ENSt7__cxx1112basic_stringIcSt11char_traitsIcESaIcEEERKNS_8locationEmmSt8optionalIS6_E@Base 0.14.0
 _ZN6build214adhoc_cxx_ruleC2ENSt7__cxx1112basic_stringIcSt11char_traitsIcESaIcEEERKNS_8locationEmmSt8optionalIS6_E@Base 0.14.0
 _ZN6build214adhoc_cxx_ruleD0Ev@Base 0.14.0
 _ZN6build214adhoc_cxx_ruleD1Ev@Base 0.14.0
 _ZN6build214adhoc_cxx_ruleD2Ev@Base 0.14.0
 _ZN6build214append_optionsERN4butl6sha256ERKNS_6lookupE@Base 0.14.0
 _ZN6build214append_optionsERN4butl6sha256ERKSt6vectorINSt7__cxx1112basic_stringIcSt11char_traitsIcESaIcEEESaIS9_EEm@Base 0.14.0
 _ZN6build214append_optionsERSt6vectorINSt7__cxx1112basic_stringIcSt11char_traitsIcESaIcEEESaIS6_EERKNS_6lookupEPKc@Base 0.14.0
 _ZN6build214append_optionsERSt6vectorINSt7__cxx1112basic_stringIcSt11char_traitsIcESaIcEEESaIS6_EERKS8_mPKc@Base 0.14.0
 _ZN6build214append_optionsERSt6vectorIPKcSaIS2_EERKNS_6lookupES2_@Base 0.14.0
 _ZN6build214append_optionsERSt6vectorIPKcSaIS2_EERKS0_INSt7__cxx1112basic_stringIcSt11char_traitsIcESaIcEEESaISB_EEmS2_@Base 0.14.0
 _ZN6build214bootstrap_postERNS_5scopeE@Base 0.14.0
 _ZN6build214clean_backlinkERNS_7contextERKN4butl10basic_pathIcNS2_13any_path_kindIcEEEEtNS_13backlink_modeE@Base 0.14.0
 _ZN6build214create_projectERKN4butl10basic_pathIcNS0_13dir_path_kindIcEEEERKSt8optionalIS4_ERKSt6vectorINSt7__cxx1112basic_stringIcSt11char_traitsIcESaIcEEESaISH_EERKSH_SL_SN_RKS7_ISH_ESQ_bPKct@Base 0.14.0
 _ZN6build214default_actionENS_6actionERKNS_6targetE@Base 0.14.0
 _ZN6build214default_recipeE@Base 0.14.0
 _ZN6build214diag_no_columnE@Base 0.14.0
 _ZN6build214empty_dir_pathE@Base 0.14.0
 _ZN6build214execute_directENS_6actionERKNS_6targetE@Base 0.14.0
 _ZN6build214find_buildfileERKN4butl10basic_pathIcNS0_13dir_path_kindIcEEEES6_RSt8optionalIbERKNS1_IcNS0_13any_path_kindIcEEEE@Base 0.14.0
 _ZN6build214loaded_modulesB5cxx11E@Base 0.14.0
 (optional=templinst)_ZN6build214map_value_typeIN4butl12project_nameENS1_10basic_pathIcNS1_13dir_path_kindIcEEEEED1Ev@Base 0.14.0
 (optional=templinst)_ZN6build214map_value_typeIN4butl12project_nameENS1_10basic_pathIcNS1_13dir_path_kindIcEEEEED2Ev@Base 0.14.0
 (optional=templinst)_ZN6build214map_value_typeINSt7__cxx1112basic_stringIcSt11char_traitsIcESaIcEEES6_ED1Ev@Base 0.14.0
 (optional=templinst)_ZN6build214map_value_typeINSt7__cxx1112basic_stringIcSt11char_traitsIcESaIcEEES6_ED2Ev@Base 0.14.0
 (optional=templinst)_ZN6build214map_value_typeINSt7__cxx1112basic_stringIcSt11char_traitsIcESaIcEEESt8optionalIS6_EED1Ev@Base 0.14.0
 (optional=templinst)_ZN6build214map_value_typeINSt7__cxx1112basic_stringIcSt11char_traitsIcESaIcEEESt8optionalIS6_EED2Ev@Base 0.14.0
 (optional=templinst)_ZN6build214map_value_typeINSt7__cxx1112basic_stringIcSt11char_traitsIcESaIcEEESt8optionalIbEED1Ev@Base 0.14.0
 (optional=templinst)_ZN6build214map_value_typeINSt7__cxx1112basic_stringIcSt11char_traitsIcESaIcEEESt8optionalIbEED2Ev@Base 0.14.0
 (optional=templinst)_ZN6build214map_value_typeISt8optionalINSt7__cxx1112basic_stringIcSt11char_traitsIcESaIcEEEES7_ED1Ev@Base 0.14.0
 (optional=templinst)_ZN6build214map_value_typeISt8optionalINSt7__cxx1112basic_stringIcSt11char_traitsIcESaIcEEEES7_ED2Ev@Base 0.14.0
 _ZN6build214name_functionsERNS_12function_mapE@Base 0.14.0
 _ZN6build214nullopt_stringB5cxx11E@Base 0.14.0
 _ZN6build214path_functionsERNS_12function_mapE@Base 0.14.0
 _ZN6build214process_finishEPKNS_5scopeERKSt6vectorIPKcSaIS5_EERN4butl7processE@Base 0.14.0
 _ZN6build214run_try_searchERKN4butl10basic_pathIcNS0_13any_path_kindIcEEEEbRKNS1_IcNS0_13dir_path_kindIcEEEEbPKc@Base 0.14.0
 (optional=templinst)_ZN6build214target_factoryINS_3dirEEEPNS_6targetERNS_7contextERKNS_11target_typeEN4butl10basic_pathIcNS9_13dir_path_kindIcEEEESD_NSt7__cxx1112basic_stringIcSt11char_traitsIcESaIcEEE@Base 0.14.0
 (optional=templinst)_ZN6build214target_factoryINS_3docEEEPNS_6targetERNS_7contextERKNS_11target_typeEN4butl10basic_pathIcNS9_13dir_path_kindIcEEEESD_NSt7__cxx1112basic_stringIcSt11char_traitsIcESaIcEEE@Base 0.14.0
 (optional=templinst)_ZN6build214target_factoryINS_3exeEEEPNS_6targetERNS_7contextERKNS_11target_typeEN4butl10basic_pathIcNS9_13dir_path_kindIcEEEESD_NSt7__cxx1112basic_stringIcSt11char_traitsIcESaIcEEE@Base 0.14.0
 (optional=templinst)_ZN6build214target_factoryINS_3manEEEPNS_6targetERNS_7contextERKNS_11target_typeEN4butl10basic_pathIcNS9_13dir_path_kindIcEEEESD_NSt7__cxx1112basic_stringIcSt11char_traitsIcESaIcEEE@Base 0.14.0
 (optional=templinst)_ZN6build214target_factoryINS_4fileEEEPNS_6targetERNS_7contextERKNS_11target_typeEN4butl10basic_pathIcNS9_13dir_path_kindIcEEEESD_NSt7__cxx1112basic_stringIcSt11char_traitsIcESaIcEEE@Base 0.14.0
 (optional=templinst)_ZN6build214target_factoryINS_4man1EEEPNS_6targetERNS_7contextERKNS_11target_typeEN4butl10basic_pathIcNS9_13dir_path_kindIcEEEESD_NSt7__cxx1112basic_stringIcSt11char_traitsIcESaIcEEE@Base 0.14.0
 (optional=templinst)_ZN6build214target_factoryINS_4test10testscriptEEEPNS_6targetERNS_7contextERKNS_11target_typeEN4butl10basic_pathIcNSA_13dir_path_kindIcEEEESE_NSt7__cxx1112basic_stringIcSt11char_traitsIcESaIcEEE@Base 0.14.0
 (optional=templinst)_ZN6build214target_factoryINS_5aliasEEEPNS_6targetERNS_7contextERKNS_11target_typeEN4butl10basic_pathIcNS9_13dir_path_kindIcEEEESD_NSt7__cxx1112basic_stringIcSt11char_traitsIcESaIcEEE@Base 0.14.0
 (optional=templinst)_ZN6build214target_factoryINS_5fsdirEEEPNS_6targetERNS_7contextERKNS_11target_typeEN4butl10basic_pathIcNS9_13dir_path_kindIcEEEESD_NSt7__cxx1112basic_stringIcSt11char_traitsIcESaIcEEE@Base 0.14.0
 (optional=templinst)_ZN6build214target_factoryINS_5legalEEEPNS_6targetERNS_7contextERKNS_11target_typeEN4butl10basic_pathIcNS9_13dir_path_kindIcEEEESD_NSt7__cxx1112basic_stringIcSt11char_traitsIcESaIcEEE@Base 0.14.0
 (optional=templinst)_ZN6build214target_factoryINS_8manifestEEEPNS_6targetERNS_7contextERKNS_11target_typeEN4butl10basic_pathIcNS9_13dir_path_kindIcEEEESD_NSt7__cxx1112basic_stringIcSt11char_traitsIcESaIcEEE@Base 0.14.0
 (optional=templinst)_ZN6build214target_factoryINS_9buildfileEEEPNS_6targetERNS_7contextERKNS_11target_typeEN4butl10basic_pathIcNS9_13dir_path_kindIcEEEESD_NSt7__cxx1112basic_stringIcSt11char_traitsIcESaIcEEE@Base 0.14.0
 (optional=templinst)_ZN6build214variable_cacheISt4pairIPKNS_8variableEPKNS_12variable_mapEEE6insertERNS_7contextES8_RKNS_6lookupEmRS3_@Base 0.14.0
 (optional=templinst)_ZN6build214variable_cacheISt5tupleIJPKNS_5valueEPKNS_11target_typeENSt7__cxx1112basic_stringIcSt11char_traitsIcESaIcEEEEEE6insertERNS_7contextESE_RKNS_6lookupEmRKNS_8variableE@Base 0.14.0
 (optional=templinst)_ZN6build214vector_prependIN4butl10basic_pathIcNS1_13any_path_kindIcEEEEEEvRNS_5valueEONS1_12small_vectorINS_4nameELm1EEEPKNS_8variableE@Base 0.14.0
 (optional=templinst)_ZN6build214vector_prependIN4butl10basic_pathIcNS1_13dir_path_kindIcEEEEEEvRNS_5valueEONS1_12small_vectorINS_4nameELm1EEEPKNS_8variableE@Base 0.14.0
 (optional=templinst)_ZN6build214vector_prependINS_4nameEEEvRNS_5valueEON4butl12small_vectorIS1_Lm1EEEPKNS_8variableE@Base 0.14.0
 (optional=templinst)_ZN6build214vector_prependINSt7__cxx1112basic_stringIcSt11char_traitsIcESaIcEEEEEvRNS_5valueEON4butl12small_vectorINS_4nameELm1EEEPKNS_8variableE@Base 0.14.0
 (optional=templinst)_ZN6build214vector_prependIlEEvRNS_5valueEON4butl12small_vectorINS_4nameELm1EEEPKNS_8variableE@Base 0.14.0
 (optional=templinst)_ZN6build214vector_prependImEEvRNS_5valueEON4butl12small_vectorINS_4nameELm1EEEPKNS_8variableE@Base 0.14.0
 _ZN6build215build_installedE@Base 0.14.0
 _ZN6build215function_family13default_thunkEPKNS_5scopeEN4butl11vector_viewINS_5valueEEERKNS_17function_overloadE@Base 0.14.0
 _ZN6build215process_path_exC1EOS0_@Base 0.14.0
 _ZN6build215process_path_exC2EOS0_@Base 0.14.0
 _ZN6build215process_path_exD1Ev@Base 0.14.0
 _ZN6build215process_path_exD2Ev@Base 0.14.0
 _ZN6build215regex_functionsERNS_12function_mapE@Base 0.14.0
 _ZN6build215resolve_membersENS_6actionERKNS_6targetE@Base 0.14.0
 _ZN6build215run_finish_implEPPKcRN4butl7processEbRKNSt7__cxx1112basic_stringIcSt11char_traitsIcESaIcEEERKNS_8locationE@Base 0.14.0
 _ZN6build215run_phase_mutex4lockENS_9run_phaseE@Base 0.14.0
 _ZN6build215run_phase_mutex6relockENS_9run_phaseES1_@Base 0.14.0
 _ZN6build215run_phase_mutex6unlockENS_9run_phaseE@Base 0.14.0
 _ZN6build215run_phase_mutexD1Ev@Base 0.14.0
 _ZN6build215run_phase_mutexD2Ev@Base 0.14.0
 _ZN6build215run_search_failERKN4butl10basic_pathIcNS0_13any_path_kindIcEEEERKNS_8locationE@Base 0.14.0
 _ZN6build215search_existingERKN4butl12small_vectorINS_4nameELm1EEERKNS_5scopeE@Base 0.14.0
 _ZN6build215search_existingERKNS_12prerequisiteE@Base 0.14.0
 _ZN6build215search_existingERKNS_4nameERKNS_5scopeERKN4butl10basic_pathIcNS6_13dir_path_kindIcEEEE@Base 0.14.0
 _ZN6build215search_existingERNS_7contextERKNS_16prerequisite_keyE@Base 0.14.0
 _ZN6build215stream_verb_mapEv@Base 0.14.0
 _ZN6build215target_type_map6insertERKNS_11target_typeE@Base 0.14.0
 _ZN6build215update_backlinkERKNS_4fileERKN4butl10basic_pathIcNS3_13any_path_kindIcEEEEbNS_13backlink_modeE@Base 0.14.0
 _ZN6build215update_backlinkERNS_7contextERKN4butl10basic_pathIcNS2_13any_path_kindIcEEEES8_NS_13backlink_modeEt@Base 0.14.0
 _ZN6build215update_backlinkERNS_7contextERKN4butl10basic_pathIcNS2_13any_path_kindIcEEEES8_bNS_13backlink_modeE@Base 0.14.0
 _ZN6build216add_adhoc_memberERNS_6targetERKNS_11target_typeEN4butl10basic_pathIcNS5_13dir_path_kindIcEEEES9_NSt7__cxx1112basic_stringIcSt11char_traitsIcESaIcEEE@Base 0.14.0
 _ZN6build216boot_post_moduleERNS_5scopeERNS_12module_stateE@Base 0.14.0
 _ZN6build216extract_variableERNS_7contextERKN4butl10basic_pathIcNS2_13any_path_kindIcEEEERKNS_8variableE@Base 0.14.0
 _ZN6build216extract_variableERNS_7contextERNS_5lexerERKNS_8variableE@Base 0.14.0
 _ZN6build216extract_variableERNS_7contextERSiRKN4butl10basic_pathIcNS3_13any_path_kindIcEEEERKNS_8variableE@Base 0.14.0
 _ZN6build216nullopt_dir_pathE@Base 0.14.0
 _ZN6build216string_functionsERNS_12function_mapE@Base 0.14.0
 _ZN6build217build_install_libE@Base 0.14.0
 _ZN6build217builtin_functionsERNS_12function_mapE@Base 0.14.0
 _ZN6build217create_new_targetERNS_7contextERKNS_16prerequisite_keyE@Base 0.14.0
 _ZN6build217empty_buildignoreERKN4butl10basic_pathIcNS0_13dir_path_kindIcEEEERKNS1_IcNS0_13any_path_kindIcEEEE@Base 0.14.0
 _ZN6build217mkdir_buildignoreERNS_7contextERKN4butl10basic_pathIcNS2_13dir_path_kindIcEEEERKNS3_IcNS2_13any_path_kindIcEEEEt@Base 0.14.0
 (optional=templinst)_ZN6build217pair_value_traitsIN4butl12project_nameENS1_10basic_pathIcNS1_13dir_path_kindIcEEEEE7convertEONS_4nameEPS8_PKcSC_PKNS_8variableE@Base 0.14.0
 (optional=templinst)_ZN6build217pair_value_traitsIN4butl12project_nameENS1_10basic_pathIcNS1_13dir_path_kindIcEEEEE7reverseERKS2_RKS6_RNS1_12small_vectorINS_4nameELm1EEE@Base 0.14.0
 (optional=templinst)_ZN6build217pair_value_traitsINSt7__cxx1112basic_stringIcSt11char_traitsIcESaIcEEES6_E7convertEONS_4nameEPS8_PKcSC_PKNS_8variableE@Base 0.14.0
 (optional=templinst)_ZN6build217pair_value_traitsINSt7__cxx1112basic_stringIcSt11char_traitsIcESaIcEEES6_E7reverseERKS6_S9_RN4butl12small_vectorINS_4nameELm1EEE@Base 0.14.0
 (optional=templinst)_ZN6build217pair_value_traitsINSt7__cxx1112basic_stringIcSt11char_traitsIcESaIcEEESt8optionalIS6_EE7convertEONS_4nameEPSA_PKcSE_PKNS_8variableE@Base 0.14.0
 (optional=templinst)_ZN6build217pair_value_traitsINSt7__cxx1112basic_stringIcSt11char_traitsIcESaIcEEESt8optionalIS6_EE7reverseERKS6_RKS8_RN4butl12small_vectorINS_4nameELm1EEE@Base 0.14.0
 (optional=templinst)_ZN6build217pair_value_traitsINSt7__cxx1112basic_stringIcSt11char_traitsIcESaIcEEESt8optionalIbEE7convertEONS_4nameEPSA_PKcSE_PKNS_8variableE@Base 0.14.0
 (optional=templinst)_ZN6build217pair_value_traitsINSt7__cxx1112basic_stringIcSt11char_traitsIcESaIcEEESt8optionalIbEE7reverseERKS6_RKS8_RN4butl12small_vectorINS_4nameELm1EEE@Base 0.14.0
 (optional=templinst)_ZN6build217pair_value_traitsISt8optionalINSt7__cxx1112basic_stringIcSt11char_traitsIcESaIcEEEES7_E7convertEONS_4nameEPSA_PKcSE_PKNS_8variableE@Base 0.14.0
 (optional=templinst)_ZN6build217pair_value_traitsISt8optionalINSt7__cxx1112basic_stringIcSt11char_traitsIcESaIcEEEES7_E7reverseERKS8_RKS7_RN4butl12small_vectorINS_4nameELm1EEE@Base 0.14.0
 _ZN6build217process_functionsERNS_12function_mapE@Base 0.14.0
 _ZN6build217rmdir_buildignoreERNS_7contextERKN4butl10basic_pathIcNS2_13dir_path_kindIcEEEERKNS3_IcNS2_13any_path_kindIcEEEEt@Base 0.14.0
 _ZN6build217stream_verb_indexE@Base 0.14.0
 _ZN6build217variable_overrideD1Ev@Base 0.14.0
 _ZN6build217variable_overrideD2Ev@Base 0.14.0
 (optional=templinst)_ZN6build217vector_value_typeIN4butl10basic_pathIcNS1_13any_path_kindIcEEEEED1Ev@Base 0.14.0
 (optional=templinst)_ZN6build217vector_value_typeIN4butl10basic_pathIcNS1_13any_path_kindIcEEEEED2Ev@Base 0.14.0
 (optional=templinst)_ZN6build217vector_value_typeIN4butl10basic_pathIcNS1_13dir_path_kindIcEEEEED1Ev@Base 0.14.0
 (optional=templinst)_ZN6build217vector_value_typeIN4butl10basic_pathIcNS1_13dir_path_kindIcEEEEED2Ev@Base 0.14.0
 (optional=templinst)_ZN6build217vector_value_typeINS_4nameEED1Ev@Base 0.14.0
 (optional=templinst)_ZN6build217vector_value_typeINS_4nameEED2Ev@Base 0.14.0
 (optional=templinst)_ZN6build217vector_value_typeINSt7__cxx1112basic_stringIcSt11char_traitsIcESaIcEEEED1Ev@Base 0.14.0
 (optional=templinst)_ZN6build217vector_value_typeINSt7__cxx1112basic_stringIcSt11char_traitsIcESaIcEEEED2Ev@Base 0.14.0
 (optional=templinst)_ZN6build217vector_value_typeIlED1Ev@Base 0.14.0
 (optional=templinst)_ZN6build217vector_value_typeIlED2Ev@Base 0.14.0
 (optional=templinst)_ZN6build217vector_value_typeImED1Ev@Base 0.14.0
 (optional=templinst)_ZN6build217vector_value_typeImED2Ev@Base 0.14.0
 _ZN6build218adhoc_rule_pattern13fallback_ruleD0Ev@Base 0.14.0
 _ZN6build218adhoc_rule_pattern13fallback_ruleD1Ev@Base 0.14.0
 _ZN6build218adhoc_rule_pattern13fallback_ruleD2Ev@Base 0.14.0
 _ZN6build218adhoc_rule_patternD0Ev@Base 0.14.0
 _ZN6build218adhoc_rule_patternD1Ev@Base 0.14.0
 _ZN6build218adhoc_rule_patternD2Ev@Base 0.14.0
 _ZN6build218alt_buildfile_fileE@Base 0.14.0
 _ZN6build218config_save_moduleE@Base 0.14.0
 _ZN6build218empty_project_nameE@Base 0.14.0
 _ZN6build218empty_variable_mapE@Base 0.14.0
 _ZN6build218find_option_prefixB5cxx11EPKcRKNS_6lookupEb@Base 0.14.0
 _ZN6build218find_option_prefixEPKcRKSt6vectorINSt7__cxx1112basic_stringIcSt11char_traitsIcESaIcEEESaIS8_EEb@Base 0.14.0
 _ZN6build218find_option_prefixEPKcRKSt6vectorIS1_SaIS1_EEb@Base 0.14.0
 (optional=templinst)_ZN6build218function_cast_funcIN4butl10basic_pathIcNS1_13any_path_kindIcEEEEJNS1_12process_pathEEE5thunkEPKNS_5scopeENS1_11vector_viewINS_5valueEEEPKv@Base 0.14.0
 (optional=templinst)_ZN6build218function_cast_funcIN4butl10basic_pathIcNS1_13any_path_kindIcEEEEJS5_EE5thunkEPKNS_5scopeENS1_11vector_viewINS_5valueEEEPKv@Base 0.14.0
 (optional=templinst)_ZN6build218function_cast_funcIN4butl10basic_pathIcNS1_13any_path_kindIcEEEEJS5_NS2_IcNS1_13dir_path_kindIcEEEEEE5thunkEPKNS_5scopeENS1_11vector_viewINS_5valueEEEPKv@Base 0.14.0
 (optional=templinst)_ZN6build218function_cast_funcIN4butl10basic_pathIcNS1_13dir_path_kindIcEEEEJPKNS_5scopeENS1_12small_vectorINS_4nameELm1EEEEE5thunkES8_NS1_11vector_viewINS_5valueEEEPKv@Base 0.14.0
 (optional=templinst)_ZN6build218function_cast_funcIN4butl10basic_pathIcNS1_13dir_path_kindIcEEEEJPKNS_5scopeENS_4nameEEE5thunkES8_NS1_11vector_viewINS_5valueEEEPKv@Base 0.14.0
 (optional=templinst)_ZN6build218function_cast_funcIN4butl10basic_pathIcNS1_13dir_path_kindIcEEEEJPKNS_5scopeES5_EE5thunkES8_NS1_11vector_viewINS_5valueEEEPKv@Base 0.14.0
 (optional=templinst)_ZN6build218function_cast_funcIN4butl10basic_pathIcNS1_13dir_path_kindIcEEEEJS5_EE5thunkEPKNS_5scopeENS1_11vector_viewINS_5valueEEEPKv@Base 0.14.0
 (optional=templinst)_ZN6build218function_cast_funcIN4butl12process_pathEJPKNS_5scopeENS1_12small_vectorINS_4nameELm1EEEEE5thunkES5_NS1_11vector_viewINS_5valueEEEPKv@Base 0.14.0
 (optional=templinst)_ZN6build218function_cast_funcIN4butl12process_pathEJPKNS_5scopeENS1_12small_vectorINS_4nameELm1EEEEE5thunkIJLm0EEEENS_5valueES5_NS1_11vector_viewISB_EEPFS2_S5_S8_ESt16integer_sequenceImJXspT_EEE@Base 0.14.0
 (optional=templinst)_ZN6build218function_cast_funcIN4butl12small_vectorINS_4nameELm1EEEJNS1_10basic_pathIcNS1_13any_path_kindIcEEEES4_EE5thunkEPKNS_5scopeENS1_11vector_viewINS_5valueEEEPKv@Base 0.14.0
 (optional=templinst)_ZN6build218function_cast_funcIN4butl12small_vectorINS_4nameELm1EEEJNS1_10basic_pathIcNS1_13any_path_kindIcEEEES4_EE5thunkIJLm0ELm1EEEENS_5valueENS1_11vector_viewISB_EEPFS4_S8_S4_ESt16integer_sequenceImJXspT_EEE@Base 0.14.0
 (optional=templinst)_ZN6build218function_cast_funcIN4butl12small_vectorINS_4nameELm1EEEJNS1_10basic_pathIcNS1_13any_path_kindIcEEEESt8optionalINS5_IcNS1_13dir_path_kindIcEEEEEEE5thunkEPKNS_5scopeENS1_11vector_viewINS_5valueEEEPKv@Base 0.14.0
 (optional=templinst)_ZN6build218function_cast_funcIN4butl12small_vectorINS_4nameELm1EEEJNS1_10basic_pathIcNS1_13any_path_kindIcEEEESt8optionalINS5_IcNS1_13dir_path_kindIcEEEEEEE5thunkIJLm0ELm1EEEENS_5valueENS1_11vector_viewISG_EEPFS4_S8_SD_ESt16integer_sequenceImJXspT_EEE@Base 0.14.0
 (optional=templinst)_ZN6build218function_cast_funcIN4butl12small_vectorINS_4nameELm1EEEJNS_5valueENSt7__cxx1112basic_stringIcSt11char_traitsIcESaIcEEESB_St8optionalIS4_EEE5thunkEPKNS_5scopeENS1_11vector_viewIS5_EEPKv@Base 0.14.0
 (optional=templinst)_ZN6build218function_cast_funcIN4butl12small_vectorINS_4nameELm1EEEJNS_5valueENSt7__cxx1112basic_stringIcSt11char_traitsIcESaIcEEESB_St8optionalIS4_EEE5thunkIJLm0ELm1ELm2ELm3EEEES5_NS1_11vector_viewIS5_EEPFS4_S5_SB_SB_SD_ESt16integer_sequenceImJXspT_EEE@Base 0.14.0
 (optional=templinst)_ZN6build218function_cast_funcIN4butl12small_vectorINS_4nameELm1EEEJNS_5valueES4_PS4_St8optionalIS4_EEE5thunkEPKNS_5scopeENS1_11vector_viewIS5_EEPKv@Base 0.14.0
 (optional=templinst)_ZN6build218function_cast_funcIN4butl12small_vectorINS_4nameELm1EEEJNS_5valueES4_PS4_St8optionalIS4_EEE5thunkIJLm0ELm1ELm2ELm3EEEES5_NS1_11vector_viewIS5_EEPFS4_S5_S4_S6_S8_ESt16integer_sequenceImJXspT_EEE@Base 0.14.0
 (optional=templinst)_ZN6build218function_cast_funcIN4butl12small_vectorINS_4nameELm1EEEJNS_5valueES4_S4_St8optionalIS4_EEE5thunkEPKNS_5scopeENS1_11vector_viewIS5_EEPKv@Base 0.14.0
 (optional=templinst)_ZN6build218function_cast_funcIN4butl12small_vectorINS_4nameELm1EEEJNS_5valueES4_S4_St8optionalIS4_EEE5thunkIJLm0ELm1ELm2ELm3EEEES5_NS1_11vector_viewIS5_EEPFS4_S5_S4_S4_S7_ESt16integer_sequenceImJXspT_EEE@Base 0.14.0
 (optional=templinst)_ZN6build218function_cast_funcIN4butl12small_vectorINS_4nameELm1EEEJS4_EE5thunkEPKNS_5scopeENS1_11vector_viewINS_5valueEEEPKv@Base 0.14.0
 (optional=templinst)_ZN6build218function_cast_funcIN4butl12small_vectorINS_4nameELm1EEEJS4_EE5thunkIJLm0EEEENS_5valueENS1_11vector_viewIS7_EEPFS4_S4_ESt16integer_sequenceImJXspT_EEE@Base 0.14.0
 (optional=templinst)_ZN6build218function_cast_funcIN4butl12small_vectorINS_4nameELm1EEEJS4_NSt7__cxx1112basic_stringIcSt11char_traitsIcESaIcEEESA_St8optionalIS4_EEE5thunkEPKNS_5scopeENS1_11vector_viewINS_5valueEEEPKv@Base 0.14.0
 (optional=templinst)_ZN6build218function_cast_funcIN4butl12small_vectorINS_4nameELm1EEEJS4_NSt7__cxx1112basic_stringIcSt11char_traitsIcESaIcEEESA_St8optionalIS4_EEE5thunkIJLm0ELm1ELm2ELm3EEEENS_5valueENS1_11vector_viewISF_EEPFS4_S4_SA_SA_SC_ESt16integer_sequenceImJXspT_EEE@Base 0.14.0
 (optional=templinst)_ZN6build218function_cast_funcIN4butl12small_vectorINS_4nameELm1EEEJS4_NSt7__cxx1112basic_stringIcSt11char_traitsIcESaIcEEESA_St8optionalISA_ESB_IS4_EEE5thunkEPKNS_5scopeENS1_11vector_viewINS_5valueEEEPKv@Base 0.14.0
 (optional=templinst)_ZN6build218function_cast_funcIN4butl12small_vectorINS_4nameELm1EEEJS4_NSt7__cxx1112basic_stringIcSt11char_traitsIcESaIcEEESA_St8optionalISA_ESB_IS4_EEE5thunkIJLm0ELm1ELm2ELm3ELm4EEEENS_5valueENS1_11vector_viewISG_EEPFS4_S4_SA_SA_SC_SD_ESt16integer_sequenceImJXspT_EEE@Base 0.14.0
 (optional=templinst)_ZN6build218function_cast_funcIN4butl12small_vectorINS_4nameELm1EEEJS4_S4_EE5thunkEPKNS_5scopeENS1_11vector_viewINS_5valueEEEPKv@Base 0.14.0
 (optional=templinst)_ZN6build218function_cast_funcIN4butl12small_vectorINS_4nameELm1EEEJS4_S4_EE5thunkIJLm0ELm1EEEENS_5valueENS1_11vector_viewIS7_EEPFS4_S4_S4_ESt16integer_sequenceImJXspT_EEE@Base 0.14.0
 (optional=templinst)_ZN6build218function_cast_funcIN4butl12small_vectorINS_4nameELm1EEEJS4_S4_S4_St8optionalIS4_EEE5thunkEPKNS_5scopeENS1_11vector_viewINS_5valueEEEPKv@Base 0.14.0
 (optional=templinst)_ZN6build218function_cast_funcIN4butl12small_vectorINS_4nameELm1EEEJS4_S4_S4_St8optionalIS4_EEE5thunkIJLm0ELm1ELm2ELm3EEEENS_5valueENS1_11vector_viewIS9_EEPFS4_S4_S4_S4_S6_ESt16integer_sequenceImJXspT_EEE@Base 0.14.0
 (optional=templinst)_ZN6build218function_cast_funcIN4butl12small_vectorINS_4nameELm1EEEJS4_S4_S4_St8optionalIS4_ES6_EE5thunkEPKNS_5scopeENS1_11vector_viewINS_5valueEEEPKv@Base 0.14.0
 (optional=templinst)_ZN6build218function_cast_funcIN4butl12small_vectorINS_4nameELm1EEEJS4_S4_S4_St8optionalIS4_ES6_EE5thunkIJLm0ELm1ELm2ELm3ELm4EEEENS_5valueENS1_11vector_viewIS9_EEPFS4_S4_S4_S4_S6_S6_ESt16integer_sequenceImJXspT_EEE@Base 0.14.0
 (optional=templinst)_ZN6build218function_cast_funcIN4butl12small_vectorINS_4nameELm1EEEJS4_St8optionalINS1_10basic_pathIcNS1_13dir_path_kindIcEEEEEEE5thunkEPKNS_5scopeENS1_11vector_viewINS_5valueEEEPKv@Base 0.14.0
 (optional=templinst)_ZN6build218function_cast_funcIN4butl12small_vectorINS_4nameELm1EEEJS4_St8optionalINS1_10basic_pathIcNS1_13dir_path_kindIcEEEEEEE5thunkIJLm0ELm1EEEENS_5valueENS1_11vector_viewISD_EEPFS4_S4_SA_ESt16integer_sequenceImJXspT_EEE@Base 0.14.0
 (optional=templinst)_ZN6build218function_cast_funcINS_4nameEJN4butl10basic_pathIcNS2_13dir_path_kindIcEEEES1_EE5thunkEPKNS_5scopeENS2_11vector_viewINS_5valueEEEPKv@Base 0.14.0
 (optional=templinst)_ZN6build218function_cast_funcINS_4nameEJN4butl10basic_pathIcNS2_13dir_path_kindIcEEEES1_EE5thunkIJLm0ELm1EEEENS_5valueENS2_11vector_viewIS9_EEPFS1_S6_S1_ESt16integer_sequenceImJXspT_EEE@Base 0.14.0
 (optional=templinst)_ZN6build218function_cast_funcINS_5valueEJN4butl10basic_pathIcNS2_13any_path_kindIcEEEEEE5thunkEPKNS_5scopeENS2_11vector_viewIS1_EEPKv@Base 0.14.0
 (optional=templinst)_ZN6build218function_cast_funcINS_5valueEJN4butl10basic_pathIcNS2_13any_path_kindIcEEEENS2_12small_vectorINS_4nameELm1EEEEE5thunkEPKNS_5scopeENS2_11vector_viewIS1_EEPKv@Base 0.14.0
 (optional=templinst)_ZN6build218function_cast_funcINS_5valueEJN4butl10basic_pathIcNS2_13any_path_kindIcEEEENSt7__cxx1112basic_stringIcSt11char_traitsIcESaIcEEEEE5thunkEPKNS_5scopeENS2_11vector_viewIS1_EEPKv@Base 0.14.0
 (optional=templinst)_ZN6build218function_cast_funcINS_5valueEJN4butl10basic_pathIcNS2_13dir_path_kindIcEEEENS2_12small_vectorINS_4nameELm1EEEEE5thunkEPKNS_5scopeENS2_11vector_viewIS1_EEPKv@Base 0.14.0
 (optional=templinst)_ZN6build218function_cast_funcINS_5valueEJN4butl10basic_pathIcNS2_13dir_path_kindIcEEEENSt7__cxx1112basic_stringIcSt11char_traitsIcESaIcEEEEE5thunkEPKNS_5scopeENS2_11vector_viewIS1_EEPKv@Base 0.14.0
 (optional=templinst)_ZN6build218function_cast_funcINS_5valueEJN4butl12small_vectorINS_4nameELm1EEEEE5thunkEPKNS_5scopeENS2_11vector_viewIS1_EEPKv@Base 0.14.0
 (optional=templinst)_ZN6build218function_cast_funcINS_5valueEJPKNS_5scopeEN4butl12process_pathEEE5thunkES4_NS5_11vector_viewIS1_EEPKv@Base 0.14.0
 (optional=templinst)_ZN6build218function_cast_funcINS_5valueEJPKNS_5scopeEN4butl12process_pathENS5_12small_vectorINS_4nameELm1EEESt8optionalIS9_EEE5thunkES4_NS5_11vector_viewIS1_EEPKv@Base 0.14.0
 (optional=templinst)_ZN6build218function_cast_funcINS_5valueEJPKNS_5scopeEN4butl12process_pathENS5_12small_vectorINS_4nameELm1EEESt8optionalIS9_EEE5thunkIJLm0ELm1ELm2EEEES1_S4_NS5_11vector_viewIS1_EEPFS1_S4_S6_S9_SB_ESt16integer_sequenceImJXspT_EEE@Base 0.14.0
 (optional=templinst)_ZN6build218function_cast_funcINS_5valueEJPKNS_5scopeEN4butl12process_pathENSt7__cxx1112basic_stringIcSt11char_traitsIcESaIcEEESt8optionalISC_EEE5thunkES4_NS5_11vector_viewIS1_EEPKv@Base 0.14.0
 (optional=templinst)_ZN6build218function_cast_funcINS_5valueEJPKNS_5scopeEN4butl12small_vectorINS_4nameELm1EEEEE5thunkES4_NS5_11vector_viewIS1_EEPKv@Base 0.14.0
 (optional=templinst)_ZN6build218function_cast_funcINS_5valueEJPKNS_5scopeEN4butl12small_vectorINS_4nameELm1EEENSt7__cxx1112basic_stringIcSt11char_traitsIcESaIcEEESt8optionalISE_EEE5thunkES4_NS5_11vector_viewIS1_EEPKv@Base 0.14.0
 (optional=templinst)_ZN6build218function_cast_funcINS_5valueEJPKNS_5scopeEN4butl12small_vectorINS_4nameELm1EEENSt7__cxx1112basic_stringIcSt11char_traitsIcESaIcEEESt8optionalISE_EEE5thunkIJLm0ELm1ELm2EEEES1_S4_NS5_11vector_viewIS1_EEPFS1_S4_S8_SE_SG_ESt16integer_sequenceImJXspT_EEE@Base 0.14.0
 (optional=templinst)_ZN6build218function_cast_funcINS_5valueEJPKNS_5scopeEN4butl12small_vectorINS_4nameELm1EEES8_St8optionalIS8_EEE5thunkES4_NS5_11vector_viewIS1_EEPKv@Base 0.14.0
 (optional=templinst)_ZN6build218function_cast_funcINS_5valueEJPKNS_5scopeEN4butl12small_vectorINS_4nameELm1EEES8_St8optionalIS8_EEE5thunkIJLm0ELm1ELm2EEEES1_S4_NS5_11vector_viewIS1_EEPFS1_S4_S8_S8_SA_ESt16integer_sequenceImJXspT_EEE@Base 0.14.0
 (optional=templinst)_ZN6build218function_cast_funcINS_5valueEJPS1_EE5thunkEPKNS_5scopeEN4butl11vector_viewIS1_EEPKv@Base 0.14.0
 (optional=templinst)_ZN6build218function_cast_funcINS_5valueEJS1_N4butl12small_vectorINS_4nameELm1EEESt8optionalIS5_EEE5thunkEPKNS_5scopeENS2_11vector_viewIS1_EEPKv@Base 0.14.0
 (optional=templinst)_ZN6build218function_cast_funcINS_5valueEJS1_N4butl12small_vectorINS_4nameELm1EEESt8optionalIS5_EEE5thunkIJLm0ELm1ELm2EEEES1_NS2_11vector_viewIS1_EEPFS1_S1_S5_S7_ESt16integer_sequenceImJXspT_EEE@Base 0.14.0
 (optional=templinst)_ZN6build218function_cast_funcINS_5valueEJS1_NSt7__cxx1112basic_stringIcSt11char_traitsIcESaIcEEESt8optionalIN4butl12small_vectorINS_4nameELm1EEEEEE5thunkEPKNS_5scopeENS9_11vector_viewIS1_EEPKv@Base 0.14.0
 (optional=templinst)_ZN6build218function_cast_funcINS_5valueEJS1_NSt7__cxx1112basic_stringIcSt11char_traitsIcESaIcEEESt8optionalIN4butl12small_vectorINS_4nameELm1EEEEEE5thunkIJLm0ELm1ELm2EEEES1_NS9_11vector_viewIS1_EEPFS1_S1_S7_SD_ESt16integer_sequenceImJXspT_EEE@Base 0.14.0
 (optional=templinst)_ZN6build218function_cast_funcINSt7__cxx1112basic_stringIcSt11char_traitsIcESaIcEEEJN4butl10basic_pathIcNS7_13any_path_kindIcEEEEEE5thunkEPKNS_5scopeENS7_11vector_viewINS_5valueEEEPKv@Base 0.14.0
 (optional=templinst)_ZN6build218function_cast_funcINSt7__cxx1112basic_stringIcSt11char_traitsIcESaIcEEEJN4butl12project_nameEEE5thunkEPKNS_5scopeENS7_11vector_viewINS_5valueEEEPKv@Base 0.14.0
 (optional=templinst)_ZN6build218function_cast_funcINSt7__cxx1112basic_stringIcSt11char_traitsIcESaIcEEEJN4butl12project_nameENS7_12small_vectorINS_4nameELm1EEEEE5thunkEPKNS_5scopeENS7_11vector_viewINS_5valueEEEPKv@Base 0.14.0
 (optional=templinst)_ZN6build218function_cast_funcINSt7__cxx1112basic_stringIcSt11char_traitsIcESaIcEEEJN4butl12project_nameES6_EE5thunkEPKNS_5scopeENS7_11vector_viewINS_5valueEEEPKv@Base 0.14.0
 (optional=templinst)_ZN6build218function_cast_funcINSt7__cxx1112basic_stringIcSt11char_traitsIcESaIcEEEJN4butl12project_nameESt8optionalIS6_EEE5thunkEPKNS_5scopeENS7_11vector_viewINS_5valueEEEPKv@Base 0.14.0
 (optional=templinst)_ZN6build218function_cast_funcINSt7__cxx1112basic_stringIcSt11char_traitsIcESaIcEEEJN4butl12small_vectorINS_4nameELm1EEENS7_12project_nameEEE5thunkEPKNS_5scopeENS7_11vector_viewINS_5valueEEEPKv@Base 0.14.0
 (optional=templinst)_ZN6build218function_cast_funcINSt7__cxx1112basic_stringIcSt11char_traitsIcESaIcEEEJN4butl12small_vectorINS_4nameELm1EEENS7_14target_tripletEEE5thunkEPKNS_5scopeENS7_11vector_viewINS_5valueEEEPKv@Base 0.14.0
 (optional=templinst)_ZN6build218function_cast_funcINSt7__cxx1112basic_stringIcSt11char_traitsIcESaIcEEEJN4butl12small_vectorINS_4nameELm1EEENS7_14target_tripletEEE5thunkIJLm0ELm1EEEENS_5valueENS7_11vector_viewISE_EEPFS6_SA_SB_ESt16integer_sequenceImJXspT_EEE@Base 0.14.0
 (optional=templinst)_ZN6build218function_cast_funcINSt7__cxx1112basic_stringIcSt11char_traitsIcESaIcEEEJN4butl12small_vectorINS_4nameELm1EEES6_EE5thunkEPKNS_5scopeENS7_11vector_viewINS_5valueEEEPKv@Base 0.14.0
 (optional=templinst)_ZN6build218function_cast_funcINSt7__cxx1112basic_stringIcSt11char_traitsIcESaIcEEEJN4butl14target_tripletEEE5thunkEPKNS_5scopeENS7_11vector_viewINS_5valueEEEPKv@Base 0.14.0
 (optional=templinst)_ZN6build218function_cast_funcINSt7__cxx1112basic_stringIcSt11char_traitsIcESaIcEEEJN4butl14target_tripletENS7_12small_vectorINS_4nameELm1EEEEE5thunkEPKNS_5scopeENS7_11vector_viewINS_5valueEEEPKv@Base 0.14.0
 (optional=templinst)_ZN6build218function_cast_funcINSt7__cxx1112basic_stringIcSt11char_traitsIcESaIcEEEJN4butl14target_tripletENS7_12small_vectorINS_4nameELm1EEEEE5thunkIJLm0ELm1EEEENS_5valueENS7_11vector_viewISE_EEPFS6_S8_SB_ESt16integer_sequenceImJXspT_EEE@Base 0.14.0
 (optional=templinst)_ZN6build218function_cast_funcINSt7__cxx1112basic_stringIcSt11char_traitsIcESaIcEEEJN4butl14target_tripletES6_EE5thunkEPKNS_5scopeENS7_11vector_viewINS_5valueEEEPKv@Base 0.14.0
 (optional=templinst)_ZN6build218function_cast_funcINSt7__cxx1112basic_stringIcSt11char_traitsIcESaIcEEEJNS_4nameEEE5thunkEPKNS_5scopeEN4butl11vector_viewINS_5valueEEEPKv@Base 0.14.0
 (optional=templinst)_ZN6build218function_cast_funcINSt7__cxx1112basic_stringIcSt11char_traitsIcESaIcEEEJPKNS_5scopeEEE5thunkES9_N4butl11vector_viewINS_5valueEEEPKv@Base 0.14.0
 (optional=templinst)_ZN6build218function_cast_funcINSt7__cxx1112basic_stringIcSt11char_traitsIcESaIcEEEJPKNS_5scopeEN4butl12small_vectorINS_4nameELm1EEEEE5thunkES9_NSA_11vector_viewINS_5valueEEEPKv@Base 0.14.0
 (optional=templinst)_ZN6build218function_cast_funcINSt7__cxx1112basic_stringIcSt11char_traitsIcESaIcEEEJPKNS_5scopeENS_4nameEEE5thunkES9_N4butl11vector_viewINS_5valueEEEPKv@Base 0.14.0
 (optional=templinst)_ZN6build218function_cast_funcINSt7__cxx1112basic_stringIcSt11char_traitsIcESaIcEEEJPNS_5valueESt8optionalIS7_EEE5thunkEPKNS_5scopeEN4butl11vector_viewIS7_EEPKv@Base 0.14.0
 (optional=templinst)_ZN6build218function_cast_funcINSt7__cxx1112basic_stringIcSt11char_traitsIcESaIcEEEJPNS_5valueESt8optionalIS7_EEE5thunkIJLm0ELm1EEEES7_N4butl11vector_viewIS7_EEPFS6_S8_SA_ESt16integer_sequenceImJXspT_EEE@Base 0.14.0
 (optional=templinst)_ZN6build218function_cast_funcINSt7__cxx1112basic_stringIcSt11char_traitsIcESaIcEEEJS6_EE5thunkEPKNS_5scopeEN4butl11vector_viewINS_5valueEEEPKv@Base 0.14.0
 (optional=templinst)_ZN6build218function_cast_funcINSt7__cxx1112basic_stringIcSt11char_traitsIcESaIcEEEJS6_N4butl12project_nameEEE5thunkEPKNS_5scopeENS7_11vector_viewINS_5valueEEEPKv@Base 0.14.0
 (optional=templinst)_ZN6build218function_cast_funcINSt7__cxx1112basic_stringIcSt11char_traitsIcESaIcEEEJS6_N4butl12small_vectorINS_4nameELm1EEEEE5thunkEPKNS_5scopeENS7_11vector_viewINS_5valueEEEPKv@Base 0.14.0
 (optional=templinst)_ZN6build218function_cast_funcINSt7__cxx1112basic_stringIcSt11char_traitsIcESaIcEEEJS6_N4butl14target_tripletEEE5thunkEPKNS_5scopeENS7_11vector_viewINS_5valueEEEPKv@Base 0.14.0
 (optional=templinst)_ZN6build218function_cast_funcINSt7__cxx1112basic_stringIcSt11char_traitsIcESaIcEEEJS6_S6_EE5thunkEPKNS_5scopeEN4butl11vector_viewINS_5valueEEEPKv@Base 0.14.0
 (optional=templinst)_ZN6build218function_cast_funcINSt7__cxx1112basic_stringIcSt11char_traitsIcESaIcEEEJlEE5thunkEPKNS_5scopeEN4butl11vector_viewINS_5valueEEEPKv@Base 0.14.0
 (optional=templinst)_ZN6build218function_cast_funcINSt7__cxx1112basic_stringIcSt11char_traitsIcESaIcEEEJmEE5thunkEPKNS_5scopeEN4butl11vector_viewINS_5valueEEEPKv@Base 0.14.0
 (optional=templinst)_ZN6build218function_cast_funcIPKcJPNS_5valueEEE5thunkEPKNS_5scopeEN4butl11vector_viewIS3_EEPKv@Base 0.14.0
 (optional=templinst)_ZN6build218function_cast_funcIPKcJbEE5thunkEPKNS_5scopeEN4butl11vector_viewINS_5valueEEEPKv@Base 0.14.0
 (optional=templinst)_ZN6build218function_cast_funcISt6vectorIN4butl10basic_pathIcNS2_13any_path_kindIcEEEESaIS6_EEJS8_EE5thunkEPKNS_5scopeENS2_11vector_viewINS_5valueEEEPKv@Base 0.14.0
 (optional=templinst)_ZN6build218function_cast_funcISt6vectorIN4butl10basic_pathIcNS2_13any_path_kindIcEEEESaIS6_EEJS8_St8optionalINS3_IcNS2_13dir_path_kindIcEEEEEEE5thunkEPKNS_5scopeENS2_11vector_viewINS_5valueEEEPKv@Base 0.14.0
 (optional=templinst)_ZN6build218function_cast_funcISt6vectorIN4butl10basic_pathIcNS2_13dir_path_kindIcEEEESaIS6_EEJS1_INS3_IcNS2_13any_path_kindIcEEEESaISB_EEEE5thunkEPKNS_5scopeENS2_11vector_viewINS_5valueEEEPKv@Base 0.14.0
 (optional=templinst)_ZN6build218function_cast_funcISt6vectorIN4butl10basic_pathIcNS2_13dir_path_kindIcEEEESaIS6_EEJS8_EE5thunkEPKNS_5scopeENS2_11vector_viewINS_5valueEEEPKv@Base 0.14.0
 (optional=templinst)_ZN6build218function_cast_funcISt6vectorIN4butl10basic_pathIcNS2_13dir_path_kindIcEEEESaIS6_EEJS8_St8optionalIS6_EEE5thunkEPKNS_5scopeENS2_11vector_viewINS_5valueEEEPKv@Base 0.14.0
 (optional=templinst)_ZN6build218function_cast_funcISt6vectorINSt7__cxx1112basic_stringIcSt11char_traitsIcESaIcEEESaIS7_EEJS1_IN4butl10basic_pathIcNSA_13any_path_kindIcEEEESaISE_EEEE5thunkEPKNS_5scopeENSA_11vector_viewINS_5valueEEEPKv@Base 0.14.0
 (optional=templinst)_ZN6build218function_cast_funcISt6vectorINSt7__cxx1112basic_stringIcSt11char_traitsIcESaIcEEESaIS7_EEJS1_IN4butl10basic_pathIcNSA_13dir_path_kindIcEEEESaISE_EEEE5thunkEPKNS_5scopeENSA_11vector_viewINS_5valueEEEPKv@Base 0.14.0
 (optional=templinst)_ZN6build218function_cast_funcISt8optionalIN4butl12project_nameEEJPKNS_5scopeENS2_12small_vectorINS_4nameELm1EEEEE5thunkES7_NS2_11vector_viewINS_5valueEEEPKv@Base 0.14.0
 (optional=templinst)_ZN6build218function_cast_funcISt8optionalIN4butl12project_nameEEJPKNS_5scopeENS_4nameEEE5thunkES7_NS2_11vector_viewINS_5valueEEEPKv@Base 0.14.0
 (optional=templinst)_ZN6build218function_cast_funcISt8optionalINSt7__cxx1112basic_stringIcSt11char_traitsIcESaIcEEEEJPKNS_5scopeEN4butl12small_vectorINS_4nameELm1EEEEE5thunkESB_NSC_11vector_viewINS_5valueEEEPKv@Base 0.14.0
 (optional=templinst)_ZN6build218function_cast_funcISt8optionalINSt7__cxx1112basic_stringIcSt11char_traitsIcESaIcEEEEJPKNS_5scopeENS_4nameEEE5thunkESB_N4butl11vector_viewINS_5valueEEEPKv@Base 0.14.0
 (optional=templinst)_ZN6build218function_cast_funcIbJN4butl10basic_pathIcNS1_13any_path_kindIcEEEENS1_12small_vectorINS_4nameELm1EEESt8optionalIS8_EEE5thunkEPKNS_5scopeENS1_11vector_viewINS_5valueEEEPKv@Base 0.14.0
 (optional=templinst)_ZN6build218function_cast_funcIbJN4butl10basic_pathIcNS1_13any_path_kindIcEEEENS1_12small_vectorINS_4nameELm1EEESt8optionalIS8_EEE5thunkIJLm0ELm1ELm2EEEENS_5valueENS1_11vector_viewISD_EEPFbS5_S8_SA_ESt16integer_sequenceImJXspT_EEE@Base 0.14.0
 (optional=templinst)_ZN6build218function_cast_funcIbJN4butl10basic_pathIcNS1_13any_path_kindIcEEEES5_St8optionalINS2_IcNS1_13dir_path_kindIcEEEEEEE5thunkEPKNS_5scopeENS1_11vector_viewINS_5valueEEEPKv@Base 0.14.0
 (optional=templinst)_ZN6build218function_cast_funcIbJN4butl12small_vectorINS_4nameELm1EEENS1_10basic_pathIcNS1_13any_path_kindIcEEEESt8optionalIS4_EEE5thunkEPKNS_5scopeENS1_11vector_viewINS_5valueEEEPKv@Base 0.14.0
 (optional=templinst)_ZN6build218function_cast_funcIbJN4butl12small_vectorINS_4nameELm1EEENS1_10basic_pathIcNS1_13any_path_kindIcEEEESt8optionalIS4_EEE5thunkIJLm0ELm1ELm2EEEENS_5valueENS1_11vector_viewISD_EEPFbS4_S8_SA_ESt16integer_sequenceImJXspT_EEE@Base 0.14.0
 (optional=templinst)_ZN6build218function_cast_funcIbJN4butl12small_vectorINS_4nameELm1EEENSt7__cxx1112basic_stringIcSt11char_traitsIcESaIcEEEEE5thunkEPKNS_5scopeENS1_11vector_viewINS_5valueEEEPKv@Base 0.14.0
 (optional=templinst)_ZN6build218function_cast_funcIbJN4butl12small_vectorINS_4nameELm1EEENSt7__cxx1112basic_stringIcSt11char_traitsIcESaIcEEESt8optionalIS4_EEE5thunkEPKNS_5scopeENS1_11vector_viewINS_5valueEEEPKv@Base 0.14.0
 (optional=templinst)_ZN6build218function_cast_funcIbJN4butl12small_vectorINS_4nameELm1EEENSt7__cxx1112basic_stringIcSt11char_traitsIcESaIcEEESt8optionalIS4_EEE5thunkIJLm0ELm1ELm2EEEENS_5valueENS1_11vector_viewISF_EEPFbS4_SA_SC_ESt16integer_sequenceImJXspT_EEE@Base 0.14.0
 (optional=templinst)_ZN6build218function_cast_funcIbJN4butl12small_vectorINS_4nameELm1EEES4_EE5thunkEPKNS_5scopeENS1_11vector_viewINS_5valueEEEPKv@Base 0.14.0
 (optional=templinst)_ZN6build218function_cast_funcIbJN4butl12small_vectorINS_4nameELm1EEES4_EE5thunkIJLm0ELm1EEEENS_5valueENS1_11vector_viewIS7_EEPFbS4_S4_ESt16integer_sequenceImJXspT_EEE@Base 0.14.0
 (optional=templinst)_ZN6build218function_cast_funcIbJN4butl12small_vectorINS_4nameELm1EEES4_St8optionalIS4_EEE5thunkEPKNS_5scopeENS1_11vector_viewINS_5valueEEEPKv@Base 0.14.0
 (optional=templinst)_ZN6build218function_cast_funcIbJN4butl12small_vectorINS_4nameELm1EEES4_St8optionalIS4_EEE5thunkIJLm0ELm1ELm2EEEENS_5valueENS1_11vector_viewIS9_EEPFbS4_S4_S6_ESt16integer_sequenceImJXspT_EEE@Base 0.14.0
 (optional=templinst)_ZN6build218function_cast_funcIbJNSt7__cxx1112basic_stringIcSt11char_traitsIcESaIcEEEN4butl12small_vectorINS_4nameELm1EEEEE5thunkEPKNS_5scopeENS7_11vector_viewINS_5valueEEEPKv@Base 0.14.0
 (optional=templinst)_ZN6build218function_cast_funcIbJNSt7__cxx1112basic_stringIcSt11char_traitsIcESaIcEEES6_EE5thunkEPKNS_5scopeEN4butl11vector_viewINS_5valueEEEPKv@Base 0.14.0
 (optional=templinst)_ZN6build218function_cast_funcIbJPKNS_5scopeEN4butl12small_vectorINS_4nameELm1EEEEE5thunkES3_NS4_11vector_viewINS_5valueEEEPKv@Base 0.14.0
 (optional=templinst)_ZN6build218function_cast_funcIbJPNS_5valueEEE5thunkEPKNS_5scopeEN4butl11vector_viewIS1_EEPKv@Base 0.14.0
 (optional=templinst)_ZN6build218function_cast_memdIN4butl10basic_pathIcNS1_13any_path_kindIcEEEENS1_12process_pathEE5thunkEPKNS_5scopeENS1_11vector_viewINS_5valueEEEPKv@Base 0.14.0
 (optional=templinst)_ZN6build218function_cast_memdISt8optionalINSt7__cxx1112basic_stringIcSt11char_traitsIcESaIcEEEENS_15process_path_exEE5thunkEPKNS_5scopeEN4butl11vector_viewINS_5valueEEEPKv@Base 0.14.0
 (optional=templinst)_ZN6build218function_cast_memfIN4butl10basic_pathIcNS1_13any_path_kindIcEEEES5_E5thunkEPKNS_5scopeENS1_11vector_viewINS_5valueEEEPKv@Base 0.14.0
 (optional=templinst)_ZN6build218function_cast_memfIN4butl10basic_pathIcNS1_13dir_path_kindIcEEEENS2_IcNS1_13any_path_kindIcEEEEE5thunkEPKNS_5scopeENS1_11vector_viewINS_5valueEEEPKv@Base 0.14.0
 (optional=templinst)_ZN6build218function_cast_memfINSt7__cxx1112basic_stringIcSt11char_traitsIcESaIcEEEN4butl12project_nameEE5thunkEPKNS_5scopeENS7_11vector_viewINS_5valueEEEPKv@Base 0.14.0
 _ZN6build218mtime_check_optionE@Base 0.14.0
 (optional=templinst)_ZN6build218pair_vector_appendINSt7__cxx1112basic_stringIcSt11char_traitsIcESaIcEEES6_EEvRNS_5valueEON4butl12small_vectorINS_4nameELm1EEEPKNS_8variableE@Base 0.14.0
 (optional=templinst)_ZN6build218pair_vector_appendINSt7__cxx1112basic_stringIcSt11char_traitsIcESaIcEEESt8optionalIS6_EEEvRNS_5valueEON4butl12small_vectorINS_4nameELm1EEEPKNS_8variableE@Base 0.14.0
 (optional=templinst)_ZN6build218pair_vector_appendINSt7__cxx1112basic_stringIcSt11char_traitsIcESaIcEEESt8optionalIbEEEvRNS_5valueEON4butl12small_vectorINS_4nameELm1EEEPKNS_8variableE@Base 0.14.0
 (optional=templinst)_ZN6build218pair_vector_appendISt8optionalINSt7__cxx1112basic_stringIcSt11char_traitsIcESaIcEEEES7_EEvRNS_5valueEON4butl12small_vectorINS_4nameELm1EEEPKNS_8variableE@Base 0.14.0
 (optional=templinst)_ZN6build218pair_vector_assignINSt7__cxx1112basic_stringIcSt11char_traitsIcESaIcEEES6_EEvRNS_5valueEON4butl12small_vectorINS_4nameELm1EEEPKNS_8variableE@Base 0.14.0
 (optional=templinst)_ZN6build218pair_vector_assignINSt7__cxx1112basic_stringIcSt11char_traitsIcESaIcEEESt8optionalIS6_EEEvRNS_5valueEON4butl12small_vectorINS_4nameELm1EEEPKNS_8variableE@Base 0.14.0
 (optional=templinst)_ZN6build218pair_vector_assignINSt7__cxx1112basic_stringIcSt11char_traitsIcESaIcEEESt8optionalIbEEEvRNS_5valueEON4butl12small_vectorINS_4nameELm1EEEPKNS_8variableE@Base 0.14.0
 (optional=templinst)_ZN6build218pair_vector_assignISt8optionalINSt7__cxx1112basic_stringIcSt11char_traitsIcESaIcEEEES7_EEvRNS_5valueEON4butl12small_vectorINS_4nameELm1EEEPKNS_8variableE@Base 0.14.0
 _ZN6build218resolve_group_implENS_6actionERKNS_6targetENS_11target_lockE@Base 0.14.0
 _ZN6build218std_bootstrap_fileE@Base 0.14.0
 _ZN6build218std_buildfile_fileE@Base 0.14.0
 (optional=templinst)_ZN6build218target_pattern_fixIXadL_ZNS_8man1_extEEEEEbRKNS_11target_typeERKNS_5scopeERNSt7__cxx1112basic_stringIcSt11char_traitsIcESaIcEEERSt8optionalISC_ERKNS_8locationEb@Base 0.14.0
 (optional=templinst)_ZN6build218target_pattern_varILPKc0EEEbRKNS_11target_typeERKNS_5scopeERNSt7__cxx1112basic_stringIcSt11char_traitsIcESaIcEEERSt8optionalISE_ERKNS_8locationEb@Base 0.14.0
 _ZN6build219check_build_versionERKN4butl27standard_version_constraintERKNS_8locationE@Base 0.14.0
 _ZN6build219load_builtin_moduleEPFPKNS_16module_functionsEvE@Base 0.14.0
 _ZN6build219load_module_libraryERKN4butl10basic_pathIcNS0_13any_path_kindIcEEEERKNSt7__cxx1112basic_stringIcSt11char_traitsIcESaIcEEERSC_@Base 0.14.0
 _ZN6build219loaded_modules_lock6mutex_E@Base 0.14.0
 _ZN6build219match_prerequisitesENS_6actionERNS_6targetERKSt8functionIFNS_19prerequisite_targetES0_RKS1_RKNS_12prerequisiteENS_12include_typeEEEPKNS_5scopeE@Base 0.14.0
 _ZN6build219meta_operation_infoD1Ev@Base 0.14.0
 _ZN6build219meta_operation_infoD2Ev@Base 0.14.0
 _ZN6build219perform_clean_depdbENS_6actionERKNS_6targetE@Base 0.14.0
 _ZN6build219perform_clean_extraENS_6actionERKNS_4fileERKN4butl12small_vectorIPKcLm8EEERKNS5_INS_17clean_adhoc_extraELm2EEE@Base 0.14.0
 _ZN6build219perform_clean_extraENS_6actionERKNS_4fileESt16initializer_listIPKcE@Base 0.14.0
 _ZN6build219perform_clean_groupENS_6actionERKNS_6targetE@Base 0.14.0
 _ZN6build220config_disfigure_preE@Base 0.14.0
 _ZN6build220config_save_variableE@Base 0.14.0
 _ZN6build220diag_progress_optionE@Base 0.14.0
 _ZN6build220filesystem_functionsERNS_12function_mapE@Base 0.14.0
 _ZN6build220find_option_prefixesB5cxx11ERKSt16initializer_listIPKcERKNS_6lookupEb@Base 0.14.0
 _ZN6build220find_option_prefixesERKSt16initializer_listIPKcERKSt6vectorINSt7__cxx1112basic_stringIcSt11char_traitsIcESaIcEEESaISC_EEb@Base 0.14.0
 _ZN6build220find_option_prefixesERKSt16initializer_listIPKcERKSt6vectorIS2_SaIS2_EEb@Base 0.14.0
 _ZN6build220nullopt_project_nameE@Base 0.14.0
 _ZN6build220search_existing_fileERNS_7contextERKNS_16prerequisite_keyE@Base 0.14.0
 (optional=templinst)_ZN6build220target_extension_fixIXadL_ZNS_8man1_extEEEEEPKcRKNS_10target_keyEPKNS_5scopeE@Base 0.14.0
 (optional=templinst)_ZN6build220target_extension_varILPKc0EEESt8optionalINSt7__cxx1112basic_stringIcSt11char_traitsIcESaIcEEEERKNS_10target_keyERKNS_5scopeES2_b@Base 0.14.0
 _ZN6build220variable_pattern_map6insertENS_4name12pattern_typeEONSt7__cxx1112basic_stringIcSt11char_traitsIcESaIcEEE@Base 0.14.0
 _ZN6build220variable_pattern_map7patternD1Ev@Base 0.14.0
 _ZN6build220variable_pattern_map7patternD2Ev@Base 0.14.0
 _ZN6build220variable_pattern_mapixENSt7__cxx1112basic_stringIcSt11char_traitsIcESaIcEEE@Base 0.14.0
 _ZN6build221config_configure_postE@Base 0.14.0
 _ZN6build221create_module_contextERNS_7contextERKNS_8locationE@Base 0.14.0
 (optional=templinst)_ZN6build221execute_prerequisitesEPKNS_11target_typeENS_6actionERKNS_6targetERKNSt6chrono10time_pointINS7_3_V212system_clockENS7_8durationIlSt5ratioILl1ELl1000000000EEEEEERKSt8functionIFbS6_mEEm@Base 0.14.0
 _ZN6build221target_extension_mustERKNS_10target_keyEPKNS_5scopeE@Base 0.14.0
 _ZN6build221target_extension_noneERKNS_10target_keyEPKNS_5scopeE@Base 0.14.0
 _ZN6build222adhoc_buildscript_rule11recipe_textERKNS_5scopeEONSt7__cxx1112basic_stringIcSt11char_traitsIcESaIcEEERNS_10attributesE@Base 0.14.0
 _ZN6build222adhoc_buildscript_ruleC1ENSt7__cxx1112basic_stringIcSt11char_traitsIcESaIcEEERKNS_8locationEm@Base 0.14.0
 _ZN6build222adhoc_buildscript_ruleC2ENSt7__cxx1112basic_stringIcSt11char_traitsIcESaIcEEERKNS_8locationEm@Base 0.14.0
 _ZN6build222adhoc_buildscript_ruleD0Ev@Base 0.14.0
 _ZN6build222adhoc_buildscript_ruleD1Ev@Base 0.14.0
 _ZN6build222adhoc_buildscript_ruleD2Ev@Base 0.14.0
 _ZN6build222create_bootstrap_innerERNS_5scopeERKN4butl10basic_pathIcNS2_13dir_path_kindIcEEEE@Base 0.14.0
 _ZN6build222create_bootstrap_outerERNS_5scopeE@Base 0.14.0
 (optional=templinst)_ZN6build222pair_vector_value_typeINSt7__cxx1112basic_stringIcSt11char_traitsIcESaIcEEES6_ED1Ev@Base 0.14.0
 (optional=templinst)_ZN6build222pair_vector_value_typeINSt7__cxx1112basic_stringIcSt11char_traitsIcESaIcEEES6_ED2Ev@Base 0.14.0
 (optional=templinst)_ZN6build222pair_vector_value_typeINSt7__cxx1112basic_stringIcSt11char_traitsIcESaIcEEESt8optionalIS6_EED1Ev@Base 0.14.0
 (optional=templinst)_ZN6build222pair_vector_value_typeINSt7__cxx1112basic_stringIcSt11char_traitsIcESaIcEEESt8optionalIS6_EED2Ev@Base 0.14.0
 (optional=templinst)_ZN6build222pair_vector_value_typeINSt7__cxx1112basic_stringIcSt11char_traitsIcESaIcEEESt8optionalIbEED1Ev@Base 0.14.0
 (optional=templinst)_ZN6build222pair_vector_value_typeINSt7__cxx1112basic_stringIcSt11char_traitsIcESaIcEEESt8optionalIbEED2Ev@Base 0.14.0
 (optional=templinst)_ZN6build222pair_vector_value_typeISt8optionalINSt7__cxx1112basic_stringIcSt11char_traitsIcESaIcEEEES7_ED1Ev@Base 0.14.0
 (optional=templinst)_ZN6build222pair_vector_value_typeISt8optionalINSt7__cxx1112basic_stringIcSt11char_traitsIcESaIcEEEES7_ED2Ev@Base 0.14.0
 _ZN6build222process_path_functionsERNS_12function_mapE@Base 0.14.0
 _ZN6build222project_name_functionsERNS_12function_mapE@Base 0.14.0
 _ZN6build222search_existing_targetERNS_7contextERKNS_16prerequisite_keyE@Base 0.14.0
 _ZN6build222target_extension_none_E@Base 0.14.0
 _ZN6build223build_version_interfaceB5cxx11E@Base 0.14.0
 _ZN6build223config_save_environmentE@Base 0.14.0
 (optional=templinst)_ZN6build223reverse_execute_membersINS_19prerequisite_targetEEENS_12target_stateERNS_7contextENS_6actionERSt6atomicImEPT_mm@Base 0.14.0
 (optional=templinst)_ZN6build223reverse_execute_membersIPKNS_6targetEEENS_12target_stateERNS_7contextENS_6actionERSt6atomicImEPT_mm@Base 0.14.0
 _ZN6build223target_print_0_ext_verbERSoRKNS_10target_keyE@Base 0.14.0
 _ZN6build223target_print_1_ext_verbERSoRKNS_10target_keyE@Base 0.14.0
 _ZN6build224adhoc_rule_regex_patternC1ERKNS_5scopeENSt7__cxx1112basic_stringIcSt11char_traitsIcESaIcEEERKNS_11target_typeEONS_4nameERKNS_8locationEON4butl12small_vectorISD_Lm1EEESH_SL_SH_@Base 0.14.0
 _ZN6build224adhoc_rule_regex_patternC2ERKNS_5scopeENSt7__cxx1112basic_stringIcSt11char_traitsIcESaIcEEERKNS_11target_typeEONS_4nameERKNS_8locationEON4butl12small_vectorISD_Lm1EEESH_SL_SH_@Base 0.14.0
 _ZN6build224adhoc_rule_regex_patternD0Ev@Base 0.14.0
 _ZN6build224adhoc_rule_regex_patternD1Ev@Base 0.14.0
 _ZN6build224adhoc_rule_regex_patternD2Ev@Base 0.14.0
 _ZN6build224adhoc_rule_with_deadlineD0Ev@Base 0.14.0
 _ZN6build224adhoc_rule_with_deadlineD1Ev@Base 0.14.0
 _ZN6build224adhoc_rule_with_deadlineD2Ev@Base 0.14.0
 _ZN6build224config_preprocess_createB5cxx11E@Base 0.14.0
 _ZN6build224create_new_target_lockedERNS_7contextERKNS_16prerequisite_keyE@Base 0.14.0
 _ZN6build224find_plausible_buildfileERKNS_4nameERKNS_5scopeERKN4butl10basic_pathIcNS6_13dir_path_kindIcEEEESC_RSt8optionalIbERKNS7_IcNS6_13any_path_kindIcEEEE@Base 0.14.0
 _ZN6build224insert_builtin_functionsERNS_12function_mapE@Base 0.14.0
 (optional=templinst)_ZN6build224straight_execute_membersINS_19prerequisite_targetEEENS_12target_stateERNS_7contextENS_6actionERSt6atomicImEPT_mm@Base 0.14.0
 (optional=templinst)_ZN6build224straight_execute_membersIPKNS_6targetEEENS_12target_stateERNS_7contextENS_6actionERSt6atomicImEPT_mm@Base 0.14.0
 _ZN6build224target_triplet_functionsERNS_12function_mapE@Base 0.14.0
 _ZN6build224update_in_module_contextERNS_7contextERKNS_5scopeEN4butl12small_vectorINS_4nameELm1EEERKNS_8locationERKNS5_10basic_pathIcNS5_13any_path_kindIcEEEE@Base 0.14.0
 _ZN6build225perform_clean_group_depdbENS_6actionERKNS_6targetE@Base 0.14.0
 _ZN6build225target_extension_var_implERKNS_11target_typeERKNSt7__cxx1112basic_stringIcSt11char_traitsIcESaIcEEERKNS_5scopeEPKc@Base 0.14.0
 _ZN6build226match_prerequisite_membersENS_6actionERNS_6targetERKSt8functionIFNS_19prerequisite_targetES0_RKS1_RKNS_19prerequisite_memberENS_12include_typeEEEPKNS_5scopeE@Base 0.14.0
 (optional=templinst)_ZN6build226prerequisite_members_rangeINS_19group_prerequisitesEE8iterator11switch_modeEv@Base 0.14.0
 (optional=templinst)_ZN6build226prerequisite_members_rangeINS_19group_prerequisitesEE8iteratorC1EPKS2_RKNS1_8iteratorE@Base 0.14.0
 (optional=templinst)_ZN6build226prerequisite_members_rangeINS_19group_prerequisitesEE8iteratorC2EPKS2_RKNS1_8iteratorE@Base 0.14.0
 _ZN6build23dir11static_typeE@Base 0.14.0
 _ZN6build23dir13check_impliedERKNS_5scopeERKN4butl10basic_pathIcNS4_13dir_path_kindIcEEEE@Base 0.14.0
 (optional=templinst)_ZN6build23dir14search_impliedINS_10target_keyEEEPKNS_6targetERKNS_5scopeERKT_RN4butl9diag_markINS_15trace_mark_baseEEE@Base 0.14.0
 (optional=templinst)_ZN6build23dir14search_impliedINS_16prerequisite_keyEEEPKNS_6targetERKNS_5scopeERKT_RN4butl9diag_markINS_15trace_mark_baseEEE@Base 0.14.0
 _ZN6build23dir15collect_impliedERKNS_5scopeE@Base 0.14.0
 _ZN6build23dirD0Ev@Base 0.14.0
 _ZN6build23dirD1Ev@Base 0.14.0
 _ZN6build23dirD2Ev@Base 0.14.0
 _ZN6build23doc11static_typeE@Base 0.14.0
 _ZN6build23docD0Ev@Base 0.14.0
 _ZN6build23docD1Ev@Base 0.14.0
 _ZN6build23docD2Ev@Base 0.14.0
 _ZN6build23exe11static_typeE@Base 0.14.0
 _ZN6build23exeD0Ev@Base 0.14.0
 _ZN6build23exeD1Ev@Base 0.14.0
 _ZN6build23exeD2Ev@Base 0.14.0
 _ZN6build23man11static_typeE@Base 0.14.0
 _ZN6build23manD0Ev@Base 0.14.0
 _ZN6build23manD1Ev@Base 0.14.0
 _ZN6build23manD2Ev@Base 0.14.0
 _ZN6build23runERKN4butl11process_envEPPKc@Base 0.14.0
 (optional=templinst)_ZN6build24castIN4butl10basic_pathIcNS1_13any_path_kindIcEEEEEERKT_RKNS_5valueE@Base 0.14.0
 (optional=templinst)_ZN6build24castIN4butl10basic_pathIcNS1_13dir_path_kindIcEEEEEERKT_RKNS_5valueE@Base 0.14.0
 (optional=templinst)_ZN6build24castIN4butl12project_nameEEERKT_RKNS_5valueE@Base 0.14.0
 (optional=templinst)_ZN6build24castINSt7__cxx1112basic_stringIcSt11char_traitsIcESaIcEEEEERKT_RKNS_5valueE@Base 0.14.0
 (optional=templinst)_ZN6build24castISt6vectorIN4butl10basic_pathIcNS2_13any_path_kindIcEEEESaIS6_EEEERKT_RKNS_5valueE@Base 0.14.0
 (optional=templinst)_ZN6build24castISt6vectorINSt7__cxx1112basic_stringIcSt11char_traitsIcESaIcEEESaIS7_EEEERKT_RKNS_5valueE@Base 0.14.0
 (optional=templinst)_ZN6build24castIbEERKT_RKNS_5valueE@Base 0.14.0
 _ZN6build24dist11init_configERNS_5scopeE@Base 0.14.0
 _ZN6build24dist12mo_dist_loadE@Base 0.14.0
 _ZN6build24dist17mo_dist_bootstrapE@Base 0.14.0
 _ZN6build24dist21dist_bootstrap_searchERKN4butl12small_vectorINS_5valueELm1EEERKNS_5scopeES9_RKNS1_10basic_pathIcNS1_13any_path_kindIcEEEERKNS_10target_keyERKNS_8locationERNS_14action_targetsE@Base 0.14.0
 _ZN6build24dist4bootERNS_5scopeERKNS_8locationERNS_17module_boot_extraE@Base 0.14.0
 _ZN6build24dist4initERNS_5scopeES2_RKNS_8locationEbbRNS_17module_init_extraE@Base 0.14.0
 _ZN6build24dist4ruleD0Ev@Base 0.14.0
 _ZN6build24dist4ruleD1Ev@Base 0.14.0
 _ZN6build24dist4ruleD2Ev@Base 0.14.0
 _ZN6build24dist6module4nameB5cxx11E@Base 0.14.0
 _ZN6build24dist6moduleD0Ev@Base 0.14.0
 _ZN6build24dist6moduleD1Ev@Base 0.14.0
 _ZN6build24dist6moduleD2Ev@Base 0.14.0
 _ZN6build24dumpERKNS_5scopeEPKc@Base 0.14.0
 _ZN6build24dumpERKNS_6targetEPKc@Base 0.14.0
 _ZN6build24dumpERKNS_7contextESt8optionalINS_6actionEE@Base 0.14.0
 _ZN6build24endfE@Base 0.14.0
 _ZN6build24failE@Base 0.14.0
 _ZN6build24file11static_typeE@Base 0.14.0
 _ZN6build24fileD0Ev@Base 0.14.0
 _ZN6build24fileD1Ev@Base 0.14.0
 _ZN6build24fileD2Ev@Base 0.14.0
 _ZN6build24homeE@Base 0.14.0
 _ZN6build24infoE@Base 0.14.0
 _ZN6build24initEPFvbEPKcSt8optionalIbES4_IN4butl10basic_pathIcNS6_13any_path_kindIcEEEEESB_@Base 0.14.0
 _ZN6build24loadERKN4butl12small_vectorINS_5valueELm1EEERNS_5scopeERKNS0_10basic_pathIcNS0_13any_path_kindIcEEEERKNS8_IcNS0_13dir_path_kindIcEEEESI_RKNS_8locationE@Base 0.14.0
 _ZN6build24man111static_typeE@Base 0.14.0
 _ZN6build24man1D0Ev@Base 0.14.0
 _ZN6build24man1D1Ev@Base 0.14.0
 _ZN6build24man1D2Ev@Base 0.14.0
 _ZN6build24name12canonicalizeEv@Base 0.14.0
 _ZN6build24nameC1EOS0_@Base 0.14.0
 _ZN6build24nameC1ERKS0_@Base 0.14.0
 _ZN6build24nameC2EOS0_@Base 0.14.0
 _ZN6build24nameC2ERKS0_@Base 0.14.0
 _ZN6build24nameD1Ev@Base 0.14.0
 _ZN6build24nameD2Ev@Base 0.14.0
 _ZN6build24nameaSEOS0_@Base 0.14.0
 _ZN6build24ruleD0Ev@Base 0.14.0
 _ZN6build24ruleD1Ev@Base 0.14.0
 _ZN6build24ruleD2Ev@Base 0.14.0
 _ZN6build24test10testscript11static_typeE@Base 0.14.0
 _ZN6build24test10testscriptD0Ev@Base 0.14.0
 _ZN6build24test10testscriptD1Ev@Base 0.14.0
 _ZN6build24test10testscriptD2Ev@Base 0.14.0
 _ZN6build24test12test_timeoutERKNS_6targetE@Base 0.14.0
 _ZN6build24test13test_deadlineERKNS_6targetE@Base 0.14.0
 _ZN6build24test18op_update_for_testE@Base 0.14.0
 _ZN6build24test18operation_deadlineERKNS_6targetE@Base 0.14.0
 _ZN6build24test4bootERNS_5scopeERKNS_8locationERNS_17module_boot_extraE@Base 0.14.0
 _ZN6build24test4initERNS_5scopeES2_RKNS_8locationEbbRNS_17module_init_extraE@Base 0.14.0
 _ZN6build24test4rule14perform_updateENS_6actionERKNS_6targetEm@Base 0.14.0
 _ZN6build24test4ruleD0Ev@Base 0.14.0
 _ZN6build24test4ruleD1Ev@Base 0.14.0
 _ZN6build24test6module4nameB5cxx11E@Base 0.14.0
 _ZN6build24test6moduleD0Ev@Base 0.14.0
 _ZN6build24test6moduleD1Ev@Base 0.14.0
 _ZN6build24test6script10scope_baseC1ERNS1_6scriptE@Base 0.14.0
 _ZN6build24test6script10scope_baseC2ERNS1_6scriptE@Base 0.14.0
 _ZN6build24test6script11descriptionD1Ev@Base 0.14.0
 _ZN6build24test6script11descriptionD2Ev@Base 0.14.0
 _ZN6build24test6script11script_baseC1ERKNS_6targetERKNS0_10testscriptE@Base 0.14.0
 _ZN6build24test6script11script_baseC2ERKNS_6targetERKNS0_10testscriptE@Base 0.14.0
 _ZN6build24test6script13token_printerERSoRKNS_5tokenENS_10print_modeE@Base 0.14.0
 _ZN6build24test6script14default_runner11test_runnerB5cxx11Ev@Base 0.14.0
 _ZN6build24test6script14default_runner3runERNS1_5scopeERKSt6vectorINS_6script9expr_termESaIS7_EENS1_12command_typeEmRKNS_8locationE@Base 0.14.0
 _ZN6build24test6script14default_runner5enterERNS1_5scopeERKNS_8locationE@Base 0.14.0
 _ZN6build24test6script14default_runner5leaveERNS1_5scopeERKNS_8locationE@Base 0.14.0
 _ZN6build24test6script14default_runner6run_ifERNS1_5scopeERKSt6vectorINS_6script9expr_termESaIS7_EEmRKNS_8locationE@Base 0.14.0
 _ZN6build24test6script4test11set_timeoutERKNSt7__cxx1112basic_stringIcSt11char_traitsIcESaIcEEEbRKNS_8locationE@Base 0.14.0
 _ZN6build24test6script4test18effective_deadlineEv@Base 0.14.0
 _ZN6build24test6script4testD0Ev@Base 0.14.0
 _ZN6build24test6script4testD1Ev@Base 0.14.0
 _ZN6build24test6script4testD2Ev@Base 0.14.0
 _ZN6build24test6script5group11set_timeoutERKNSt7__cxx1112basic_stringIcSt11char_traitsIcESaIcEEEbRKNS_8locationE@Base 0.14.0
 _ZN6build24test6script5group18effective_deadlineEv@Base 0.14.0
 _ZN6build24test6script5groupD0Ev@Base 0.14.0
 _ZN6build24test6script5groupD1Ev@Base 0.14.0
 _ZN6build24test6script5groupD2Ev@Base 0.14.0
 _ZN6build24test6script5lexer16next_descriptionEv@Base 0.14.0
 _ZN6build24test6script5lexer16redirect_aliasesE@Base 0.14.0
 _ZN6build24test6script5lexer4modeENS_10lexer_modeEcSt8optionalIPKcEm@Base 0.14.0
 _ZN6build24test6script5lexer4nextEv@Base 0.14.0
 _ZN6build24test6script5lexer4wordENS_5lexer5stateEb@Base 0.14.0
 _ZN6build24test6script5lexer9next_lineEv@Base 0.14.0
 _ZN6build24test6script5scope12set_variableEONSt7__cxx1112basic_stringIcSt11char_traitsIcESaIcEEEON4butl12small_vectorINS_4nameELm1EEERKS8_RKNS_8locationE@Base 0.14.0
 _ZN6build24test6script5scope12test_programERKN4butl10basic_pathIcNS3_13any_path_kindIcEEEE@Base 0.14.0
 _ZN6build24test6script5scope13reset_specialEv@Base 0.14.0
 _ZN6build24test6script5scope15create_temp_dirEv@Base 0.14.0
 _ZN6build24test6script5scope18exported_variablesERNS_6script16environment_varsE@Base 0.14.0
 _ZN6build24test6script5scope6appendERKNS_8variableE@Base 0.14.0
 _ZN6build24test6script5scopeC1ERKNSt7__cxx1112basic_stringIcSt11char_traitsIcESaIcEEEPS2_RNS1_6scriptE@Base 0.14.0
 _ZN6build24test6script5scopeC2ERKNSt7__cxx1112basic_stringIcSt11char_traitsIcESaIcEEEPS2_RNS1_6scriptE@Base 0.14.0
 _ZN6build24test6script5scopeD0Ev@Base 0.14.0
 _ZN6build24test6script5scopeD1Ev@Base 0.14.0
 _ZN6build24test6script5scopeD2Ev@Base 0.14.0
 _ZN6build24test6script6parser14pre_parse_lineERNS_5tokenERNS1_10token_typeERSt8optionalINS1_11descriptionEEPN4butl12small_vectorINS_6script4lineELm1EEEbb@Base 0.14.0
 _ZN6build24test6script6parser15exec_scope_bodyEv@Base 0.14.0
 _ZN6build24test6script6parser15lookup_variableEONS_4nameEONSt7__cxx1112basic_stringIcSt11char_traitsIcESaIcEEERKNS_8locationE@Base 0.14.0
 _ZN6build24test6script6parser16special_variableERKNSt7__cxx1112basic_stringIcSt11char_traitsIcESaIcEEE@Base 0.14.0
 _ZN6build24test6script6parser17pre_parse_if_elseERNS_5tokenERNS1_10token_typeERSt8optionalINS1_11descriptionEERN4butl12small_vectorINS_6script4lineELm1EEE@Base 0.14.0
 _ZN6build24test6script6parser18parse_command_lineERNS_5tokenERNS1_10token_typeE@Base 0.14.0
 _ZN6build24test6script6parser19pre_parse_directiveERNS_5tokenERNS1_10token_typeE@Base 0.14.0
 _ZN6build24test6script6parser20pre_parse_scope_bodyEv@Base 0.14.0
 _ZN6build24test6script6parser21pre_parse_scope_blockERNS_5tokenERNS1_10token_typeERKNSt7__cxx1112basic_stringIcSt11char_traitsIcESaIcEEE@Base 0.14.0
 _ZN6build24test6script6parser22pre_parse_include_lineEN4butl12small_vectorINS_4nameELm1EEENS_8locationE@Base 0.14.0
 _ZN6build24test6script6parser23pre_parse_if_else_scopeERNS_5tokenERNS1_10token_typeERSt8optionalINS1_11descriptionEERN4butl12small_vectorINS_6script4lineELm1EEE@Base 0.14.0
 _ZN6build24test6script6parser25pre_parse_if_else_commandERNS_5tokenERNS1_10token_typeERSt8optionalINS1_11descriptionEERN4butl12small_vectorINS_6script4lineELm1EEE@Base 0.14.0
 _ZN6build24test6script6parser26parse_trailing_descriptionERNS_5tokenERNS1_10token_typeE@Base 0.14.0
 _ZN6build24test6script6parser28pre_parse_demote_group_scopeERSt10unique_ptrINS1_5scopeESt14default_deleteIS4_EE@Base 0.14.0
 _ZN6build24test6script6parser29pre_parse_leading_descriptionERNS_5tokenERNS1_10token_typeE@Base 0.14.0
 _ZN6build24test6script6parser7executeERNS1_5scopeERNS1_6scriptERNS1_6runnerE@Base 0.14.0
 _ZN6build24test6script6parser7executeERNS1_6scriptERNS1_6runnerE@Base 0.14.0
 _ZN6build24test6script6parser9insert_idENSt7__cxx1112basic_stringIcSt11char_traitsIcESaIcEEENS_8locationE@Base 0.14.0
 _ZN6build24test6script6parser9pre_parseERNS1_6scriptE@Base 0.14.0
 _ZN6build24test6script6parser9pre_parseERSiRNS1_6scriptE@Base 0.14.0
 _ZN6build24test6script6parserD1Ev@Base 0.14.0
 _ZN6build24test6script6parserD2Ev@Base 0.14.0
 _ZN6build24test6script6script18effective_deadlineEv@Base 0.14.0
 _ZN6build24test6script6scriptC1ERKNS_6targetERKNS0_10testscriptERKN4butl10basic_pathIcNS9_13dir_path_kindIcEEEE@Base 0.14.0
 _ZN6build24test6script6scriptC2ERKNS_6targetERKNS0_10testscriptERKN4butl10basic_pathIcNS9_13dir_path_kindIcEEEE@Base 0.14.0
 _ZN6build24test6script6scriptD0Ev@Base 0.14.0
 _ZN6build24test6script6scriptD1Ev@Base 0.14.0
 _ZN6build24test6script6scriptD2Ev@Base 0.14.0
 _ZN6build24test7op_testE@Base 0.14.0
 _ZN6build24textE@Base 0.14.0
 _ZN6build24verbE@Base 0.14.0
 _ZN6build24warnE@Base 0.14.0
 _ZN6build24workE@Base 0.14.0
 _ZN6build25alias11static_typeE@Base 0.14.0
 _ZN6build25aliasD0Ev@Base 0.14.0
 _ZN6build25aliasD1Ev@Base 0.14.0
 _ZN6build25aliasD2Ev@Base 0.14.0
 _ZN6build25argv0E@Base 0.14.0
 _ZN6build25build6script11environment11set_timeoutERKNSt7__cxx1112basic_stringIcSt11char_traitsIcESaIcEEEbRKNS_8locationE@Base 0.14.0
 _ZN6build25build6script11environment12set_variableEONSt7__cxx1112basic_stringIcSt11char_traitsIcESaIcEEEON4butl12small_vectorINS_4nameELm1EEERKS8_RKNS_8locationE@Base 0.14.0
 _ZN6build25build6script11environment15create_temp_dirEv@Base 0.14.0
 _ZN6build25build6script11environment18effective_deadlineEv@Base 0.14.0
 _ZN6build25build6script11environment21set_temp_dir_variableEv@Base 0.14.0
 _ZN6build25build6script11environment6appendERKNS_8variableE@Base 0.14.0
 _ZN6build25build6script11environmentC1ENS_6actionERKNS_6targetEbRKSt8optionalINSt6chrono10time_pointINS8_3_V212system_clockENS8_8durationIlSt5ratioILl1ELl1000000000EEEEEEE@Base 0.14.0
 _ZN6build25build6script11environmentC2ENS_6actionERKNS_6targetEbRKSt8optionalINSt6chrono10time_pointINS8_3_V212system_clockENS8_8durationIlSt5ratioILl1ELl1000000000EEEEEEE@Base 0.14.0
 _ZN6build25build6script11environmentD0Ev@Base 0.14.0
 _ZN6build25build6script11environmentD1Ev@Base 0.14.0
 _ZN6build25build6script11environmentD2Ev@Base 0.14.0
 _ZN6build25build6script13token_printerERSoRKNS_5tokenENS_10print_modeE@Base 0.14.0
 _ZN6build25build6script14default_runner3runERNS1_11environmentERKSt6vectorINS_6script9expr_termESaIS7_EEmRKNS_8locationE@Base 0.14.0
 _ZN6build25build6script14default_runner5enterERNS1_11environmentERKNS_8locationE@Base 0.14.0
 _ZN6build25build6script14default_runner5leaveERNS1_11environmentERKNS_8locationE@Base 0.14.0
 _ZN6build25build6script14default_runner6run_ifERNS1_11environmentERKSt6vectorINS_6script9expr_termESaIS7_EEmRKNS_8locationE@Base 0.14.0
 _ZN6build25build6script5lexer16redirect_aliasesE@Base 0.14.0
 _ZN6build25build6script5lexer4modeENS_10lexer_modeEcSt8optionalIPKcEm@Base 0.14.0
 _ZN6build25build6script5lexer4nextEv@Base 0.14.0
 _ZN6build25build6script5lexer9next_lineEv@Base 0.14.0
 (optional=templinst)_ZN6build25build6script6parser10exec_linesERKN4butl12small_vectorINS_6script4lineELm1EEERKSt8functionIFvRNS_5tokenERNS5_10token_typeEmbRKNS_8locationEEE@Base 0.14.0
 _ZN6build25build6script6parser12exec_specialERNS_5tokenERNS_6script10token_typeEb@Base 0.14.0
 _ZN6build25build6script6parser12execute_bodyERKNS_5scopeES5_RNS1_11environmentERKNS1_6scriptERNS1_6runnerEbb@Base 0.14.0
 _ZN6build25build6script6parser13parse_programERNS_5tokenERNS_6script10token_typeEbbRN4butl12small_vectorINS_4nameELm1EEE@Base 0.14.0
 _ZN6build25build6script6parser14pre_parse_lineERNS_5tokenERNS1_10token_typeEb@Base 0.14.0
 _ZN6build25build6script6parser15execute_specialERKNS_5scopeES5_RNS1_11environmentERKNS_6script4lineEb@Base 0.14.0
 _ZN6build25build6script6parser15lookup_functionEONSt7__cxx1112basic_stringIcSt11char_traitsIcESaIcEEERKNS_8locationE@Base 0.14.0
 _ZN6build25build6script6parser15lookup_variableEONS_4nameEONSt7__cxx1112basic_stringIcSt11char_traitsIcESaIcEEERKNS_8locationE@Base 0.14.0
 _ZN6build25build6script6parser16pre_parse_scriptEv@Base 0.14.0
 _ZN6build25build6script6parser16special_variableERKNSt7__cxx1112basic_stringIcSt11char_traitsIcESaIcEEE@Base 0.14.0
 _ZN6build25build6script6parser17pre_parse_if_elseERNS_5tokenERNS1_10token_typeE@Base 0.14.0
 _ZN6build25build6script6parser18parse_command_lineERNS_5tokenERNS1_10token_typeE@Base 0.14.0
 _ZN6build25build6script6parser22execute_depdb_preambleERKNS_5scopeES5_RNS1_11environmentERKNS1_6scriptERNS1_6runnerERNS_5depdbE@Base 0.14.0
 _ZN6build25build6script6parser8pre_execERKNS_5scopeES5_RNS1_11environmentEPKNS1_6scriptEPNS1_6runnerE@Base 0.14.0
 _ZN6build25build6script6parser9pre_parseERKNS_5scopeERKN4butl12small_vectorINS_6actionELm1EEERSiRKNS6_15basic_path_nameINS6_10basic_pathIcNS6_13any_path_kindIcEEEEEEmSt8optionalINSt7__cxx1112basic_stringIcSt11char_traitsIcESaIcEEEERKNS_8locationE@Base 0.14.0
 _ZN6build25build6script6parserC1ERNS_7contextE@Base 0.14.0
 _ZN6build25build6script6parserC2ERNS_7contextE@Base 0.14.0
 _ZN6build25build6script6parserD1Ev@Base 0.14.0
 _ZN6build25build6script6parserD2Ev@Base 0.14.0
 _ZN6build25build6script6scriptD1Ev@Base 0.14.0
 _ZN6build25build6script6scriptD2Ev@Base 0.14.0
 _ZN6build25depdb12check_mtime_ENSt6chrono10time_pointINS1_3_V212system_clockENS1_8durationIlSt5ratioILl1ELl1000000000EEEEEERKN4butl10basic_pathIcNSA_13any_path_kindIcEEEESG_S9_@Base 0.14.0
 _ZN6build25depdb12check_mtime_ERKN4butl10basic_pathIcNS1_13any_path_kindIcEEEENSt6chrono10time_pointINS8_3_V212system_clockENS8_8durationIlSt5ratioILl1ELl1000000000EEEEEE@Base 0.14.0
 _ZN6build25depdb4skipEv@Base 0.14.0
 _ZN6build25depdb5closeEv@Base 0.14.0
 _ZN6build25depdb5read_B5cxx11Ev@Base 0.14.0
 _ZN6build25depdb5writeEPKcmb@Base 0.14.0
 _ZN6build25depdb5writeEcb@Base 0.14.0
 _ZN6build25depdb6changeEb@Base 0.14.0
 _ZN6build25depdbC1EN4butl10basic_pathIcNS1_13any_path_kindIcEEEE@Base 0.14.0
 _ZN6build25depdbC1EON4butl10basic_pathIcNS1_13any_path_kindIcEEEENSt6chrono10time_pointINS7_3_V212system_clockENS7_8durationIlSt5ratioILl1ELl1000000000EEEEEE@Base 0.14.0
 _ZN6build25depdbC2EN4butl10basic_pathIcNS1_13any_path_kindIcEEEE@Base 0.14.0
 _ZN6build25depdbC2EON4butl10basic_pathIcNS1_13any_path_kindIcEEEENSt6chrono10time_pointINS7_3_V212system_clockENS7_8durationIlSt5ratioILl1ELl1000000000EEEEEE@Base 0.14.0
 _ZN6build25emptyERKN4butl10basic_pathIcNS0_13dir_path_kindIcEEEE@Base 0.14.0
 _ZN6build25errorE@Base 0.14.0
 _ZN6build25fsdir11static_typeE@Base 0.14.0
 _ZN6build25fsdirD0Ev@Base 0.14.0
 _ZN6build25fsdirD1Ev@Base 0.14.0
 _ZN6build25fsdirD2Ev@Base 0.14.0
 _ZN6build25legal11static_typeE@Base 0.14.0
 _ZN6build25legalD0Ev@Base 0.14.0
 _ZN6build25legalD1Ev@Base 0.14.0
 _ZN6build25legalD2Ev@Base 0.14.0
 _ZN6build25lexer10peek_charsEv@Base 0.14.0
 _ZN6build25lexer11next_quotedEv@Base 0.14.0
 _ZN6build25lexer11skip_spacesEv@Base 0.14.0
 _ZN6build25lexer12next_foreignEv@Base 0.14.0
 _ZN6build25lexer3getEv@Base 0.14.0
 _ZN6build25lexer4modeENS_10lexer_modeEcSt8optionalIPKcEm@Base 0.14.0
 _ZN6build25lexer4nextEv@Base 0.14.0
 _ZN6build25lexer4peekEv@Base 0.14.0
 _ZN6build25lexer4wordENS0_5stateEb@Base 0.14.0
 _ZN6build25lexer9fail_charERKN4butl12char_scannerINS1_14utf8_validatorELm2EE5xcharE@Base 0.14.0
 _ZN6build25lexer9next_evalEv@Base 0.14.0
 _ZN6build25lexerC1ERSiRKN4butl15basic_path_nameINS2_10basic_pathIcNS2_13any_path_kindIcEEEEEEmPKcb@Base 0.14.0
 _ZN6build25lexerC2ERSiRKN4butl15basic_path_nameINS2_10basic_pathIcNS2_13any_path_kindIcEEEEEEmPKcb@Base 0.14.0
 _ZN6build25lexerD1Ev@Base 0.14.0
 _ZN6build25lexerD2Ev@Base 0.14.0
 _ZN6build25matchENS_6actionERKNS_6targetEmPSt6atomicImEb@Base 0.14.0
 _ZN6build25matchERKN4butl12small_vectorINS_5valueELm1EEENS_6actionERNS_14action_targetsEtb@Base 0.14.0
 _ZN6build25mkdirERKN4butl10basic_pathIcNS0_13dir_path_kindIcEEEEt@Base 0.14.0
 _ZN6build25mtimeEPKc@Base 0.14.0
 (optional=templinst)_ZN6build25rmdirIN4butl10basic_pathIcNS1_13dir_path_kindIcEEEEEENS_9fs_statusINS1_12rmdir_statusEEERNS_7contextERKS5_RKT_t@Base 0.14.0
 (optional=templinst)_ZN6build25rmdirINS_6targetEEENS_9fs_statusIN4butl12rmdir_statusEEERNS_7contextERKNS3_10basic_pathIcNS3_13dir_path_kindIcEEEERKT_t@Base 0.14.0
 _ZN6build25scope18derive_target_typeERKNS_11target_typeE@Base 0.14.0
 _ZN6build25scope18derive_target_typeERKNSt7__cxx1112basic_stringIcSt11char_traitsIcESaIcEEERKNS_11target_typeE@Base 0.14.0
 _ZN6build25scope6appendERKNS_8variableE@Base 0.14.0
 _ZN6build25scopeC1ERNS_7contextEb@Base 0.14.0
 _ZN6build25scopeC2ERNS_7contextEb@Base 0.14.0
 _ZN6build25scopeD1Ev@Base 0.14.0
 _ZN6build25scopeD2Ev@Base 0.14.0
 _ZN6build25tokenC1ERKS0_@Base 0.14.0
 _ZN6build25tokenC2ERKS0_@Base 0.14.0
 _ZN6build25touchERNS_7contextERKN4butl10basic_pathIcNS2_13any_path_kindIcEEEEbt@Base 0.14.0
 _ZN6build25value5resetEv@Base 0.14.0
 _ZN6build25value6appendEON4butl12small_vectorINS_4nameELm1EEEPKNS_8variableE@Base 0.14.0
 _ZN6build25value6assignEON4butl12small_vectorINS_4nameELm1EEEPKNS_8variableE@Base 0.14.0
 _ZN6build25value7prependEON4butl12small_vectorINS_4nameELm1EEEPKNS_8variableE@Base 0.14.0
 _ZN6build25valueC1EOS0_@Base 0.14.0
 _ZN6build25valueC1ERKS0_@Base 0.14.0
 _ZN6build25valueC2EOS0_@Base 0.14.0
 _ZN6build25valueC2ERKS0_@Base 0.14.0
 _ZN6build25valueaSEOS0_@Base 0.14.0
 _ZN6build25valueaSEPKc@Base 0.14.0
 _ZN6build25valueaSERKS0_@Base 0.14.0
 (optional=templinst)_ZN6build25valueaSIN4butl10basic_pathIcNS2_13dir_path_kindIcEEEEEERS0_T_@Base 0.14.0
 (optional=templinst)_ZN6build25valueaSISt3mapIN4butl12project_nameENS3_10basic_pathIcNS3_13dir_path_kindIcEEEESt4lessIS4_ESaISt4pairIKS4_S8_EEEEERS0_T_@Base 0.14.0
 (optional=templinst)_ZN6build25valueaSIbEERS0_T_@Base 0.14.0
 _ZN6build26config11config_fileERKNS_5scopeE@Base 0.14.0
 _ZN6build26config11host_configE@Base 0.14.0
 _ZN6build26config11save_configERKNS_5scopeERSoRKN4butl15basic_path_nameINS5_10basic_pathIcNS5_13any_path_kindIcEEEEEEbRNS0_6moduleERKSt3setIPS2_St4lessISH_ESaISH_EE@Base 0.14.0
 _ZN6build26config12mo_configureE@Base 0.14.0
 _ZN6build26config12mo_disfigureE@Base 0.14.0
 _ZN6build26config12unconfiguredERNS_5scopeERKNSt7__cxx1112basic_stringIcSt11char_traitsIcESaIcEEE@Base 0.14.0
 _ZN6build26config12unconfiguredERNS_5scopeERKNSt7__cxx1112basic_stringIcSt11char_traitsIcESaIcEEEb@Base 0.14.0
 _ZN6build26config13build2_configE@Base 0.14.0
 _ZN6build26config16specified_configERNS_5scopeERKNSt7__cxx1112basic_stringIcSt11char_traitsIcESaIcEEESt16initializer_listIPKcE@Base 0.14.0
 _ZN6build26config17preprocess_createB5cxx11ERNS_7contextERN4butl12small_vectorINS_5valueELm1EEERNS3_11vector_viewINS_6opspecEEEbRKNS_8locationE@Base 0.14.0
 _ZN6build26config18lookup_config_implERNS_5scopeERKNS_8variableE@Base 0.14.0
 (optional=templinst)_ZN6build26config18lookup_config_implIDnEESt4pairINS_6lookupEbERNS_5scopeERKNS_8variableEOT_mb@Base 0.14.0
 (optional=templinst)_ZN6build26config18lookup_config_implIN4butl10basic_pathIcNS2_13any_path_kindIcEEEEEESt4pairINS_6lookupEbERNS_5scopeERKNS_8variableEOT_mb@Base 0.14.0
 (optional=templinst)_ZN6build26config18lookup_config_implINS_5valueEEESt4pairINS_6lookupEbERNS_5scopeERKNS_8variableEOT_mb@Base 0.14.0
 (optional=templinst)_ZN6build26config18lookup_config_implIRKN4butl10basic_pathIcNS2_13any_path_kindIcEEEEEESt4pairINS_6lookupEbERNS_5scopeERKNS_8variableEOT_mb@Base 0.14.0
 (optional=templinst)_ZN6build26config18lookup_config_implIRKN4butl10basic_pathIcNS2_13dir_path_kindIcEEEEEESt4pairINS_6lookupEbERNS_5scopeERKNS_8variableEOT_mb@Base 0.14.0
 (optional=templinst)_ZN6build26config18lookup_config_implIRKNS_12abs_dir_pathEEESt4pairINS_6lookupEbERNS_5scopeERKNS_8variableEOT_mb@Base 0.14.0
 (optional=templinst)_ZN6build26config18lookup_config_implIRKNSt7__cxx1112basic_stringIcSt11char_traitsIcESaIcEEEEESt4pairINS_6lookupEbERNS_5scopeERKNS_8variableEOT_mb@Base 0.14.0
 _ZN6build26config3preE@Base 0.14.0
 _ZN6build26config4bootERNS_5scopeERKNS_8locationERNS_17module_boot_extraE@Base 0.14.0
 _ZN6build26config4initERNS_5scopeES2_RKNS_8locationEbbRNS_17module_init_extraE@Base 0.14.0
 _ZN6build26config6module11save_moduleEPKci@Base 0.14.0
 _ZN6build26config6module11save_moduleERNS_5scopeEPKci@Base 0.14.0
 _ZN6build26config6module13disfigure_preERNS_5scopeEPFbNS_6actionERKS2_E@Base 0.14.0
 (optional=templinst)_ZN6build26config6module13save_variableERKNS_8variableESt8optionalImEPFSt4pairIN4butl11vector_viewIKNS_4nameEEEPKcERKNS_5valueEPSH_RNS8_12small_vectorISA_Lm1EEEE@Base 0.14.0
 _ZN6build26config6module13save_variableERNS_5scopeERKNS_8variableESt8optionalImE@Base 0.14.0
 _ZN6build26config6module14configure_postERNS_5scopeEPFbNS_6actionERKS2_E@Base 0.14.0
 _ZN6build26config6module16save_environmentERNS_5scopeEPKc@Base 0.14.0
 _ZN6build26config6module4nameB5cxx11E@Base 0.14.0
 _ZN6build26config6module7versionE@Base 0.14.0
 _ZN6build26config6moduleD0Ev@Base 0.14.0
 _ZN6build26config6moduleD1Ev@Base 0.14.0
 _ZN6build26config6moduleD2Ev@Base 0.14.0
 _ZN6build26config9functionsERNS_12function_mapE@Base 0.14.0
 _ZN6build26existsERKN4butl10basic_pathIcNS0_13any_path_kindIcEEEEbb@Base 0.14.0
 _ZN6build26existsERKN4butl10basic_pathIcNS0_13dir_path_kindIcEEEEb@Base 0.14.0
 _ZN6build26failedD0Ev@Base 0.14.0
 _ZN6build26failedD1Ev@Base 0.14.0
 _ZN6build26failedD2Ev@Base 0.14.0
 _ZN6build26importERNS_5scopeENS_4nameEbbbRKNS_8locationE@Base 0.14.0
 _ZN6build26importERNS_7contextERKNS_16prerequisite_keyEbRKSt8optionalINSt7__cxx1112basic_stringIcSt11char_traitsIcESaIcEEEEbRKNS_8locationE@Base 0.14.0
 _ZN6build26mvfileERKN4butl10basic_pathIcNS0_13any_path_kindIcEEEES6_t@Base 0.14.0
 _ZN6build26opspecD1Ev@Base 0.14.0
 _ZN6build26opspecD2Ev@Base 0.14.0
 _ZN6build26parser10parse_diagERNS_5tokenERNS_10token_typeE@Base 0.14.0
 _ZN6build26parser10parse_dumpERNS_5tokenERNS_10token_typeE@Base 0.14.0
 _ZN6build26parser10parse_evalERNS_5tokenERNS_10token_typeENS0_12pattern_modeE@Base 0.14.0
 _ZN6build26parser10skip_blockERNS_5tokenERNS_10token_typeE@Base 0.14.0
 _ZN6build26parser11enter_scopeC1ERS0_ON4butl10basic_pathIcNS3_13dir_path_kindIcEEEE@Base 0.14.0
 _ZN6build26parser11enter_scopeC2ERS0_ON4butl10basic_pathIcNS3_13dir_path_kindIcEEEE@Base 0.14.0
 _ZN6build26parser11enter_scopeD1Ev@Base 0.14.0
 _ZN6build26parser11enter_scopeD2Ev@Base 0.14.0
 _ZN6build26parser11parse_namesERNS_5tokenERNS_10token_typeENS0_12pattern_modeEbPKcPKNSt7__cxx1112basic_stringIcSt11char_traitsIcESaIcEEE@Base 0.14.0
 _ZN6build26parser11parse_namesERNS_5tokenERNS_10token_typeERN4butl12small_vectorINS_4nameELm1EEENS0_12pattern_modeEbPKcPKNSt7__cxx1112basic_stringIcSt11char_traitsIcESaIcEEEmRKSt8optionalINS5_12project_nameEEPKNS5_10basic_pathIcNS5_13dir_path_kindIcEEEESK_bb@Base 0.14.0
 _ZN6build26parser11parse_printERNS_5tokenERNS_10token_typeE@Base 0.14.0
 _ZN6build26parser11parse_usingERNS_5tokenERNS_10token_typeE@Base 0.14.0
 _ZN6build26parser11parse_valueERNS_5tokenERNS_10token_typeENS0_12pattern_modeEPKcPKNSt7__cxx1112basic_stringIcSt11char_traitsIcESaIcEEEb@Base 0.14.0
 _ZN6build26parser11replay_playEv@Base 0.14.0
 _ZN6build26parser11replay_stopEv@Base 0.14.0
 _ZN6build26parser11start_namesERNS_10token_typeEb@Base 0.14.0
 _ZN6build26parser12enter_target13insert_targetERS0_ONS_4nameES4_bRKNS_8locationERN4butl9diag_markINS_15trace_mark_baseEEE@Base 0.14.0
 _ZN6build26parser12parse_assertERNS_5tokenERNS_10token_typeE@Base 0.14.0
 _ZN6build26parser12parse_clauseERNS_5tokenERNS_10token_typeEb@Base 0.14.0
 _ZN6build26parser12parse_configERNS_5tokenERNS_10token_typeE@Base 0.14.0
 _ZN6build26parser12parse_defineERNS_5tokenERNS_10token_typeE@Base 0.14.0
 _ZN6build26parser12parse_exportERNS_5tokenERNS_10token_typeE@Base 0.14.0
 _ZN6build26parser12parse_importERNS_5tokenERNS_10token_typeE@Base 0.14.0
 _ZN6build26parser12parse_recipeERNS_5tokenERNS_10token_typeERKS1_RN4butl12small_vectorISt10shared_ptrINS_10adhoc_ruleEELm1EEERKNSt7__cxx1112basic_stringIcSt11char_traitsIcESaIcEEE@Base 0.14.0
 _ZN6build26parser12parse_sourceERNS_5tokenERNS_10token_typeE@Base 0.14.0
 _ZN6build26parser12parse_switchERNS_5tokenERNS_10token_typeE@Base 0.14.0
 _ZN6build26parser12parse_switchERNS_5tokenERNS_10token_typeEbRKSt8functionIFvS2_S4_bRKNSt7__cxx1112basic_stringIcSt11char_traitsIcESaIcEEEEE@Base 0.14.0
 _ZN6build26parser12splice_namesERKNS_8locationERKN4butl11vector_viewIKNS_4nameEEEONS4_12small_vectorIS6_Lm1EEERSC_PKcmRKSt8optionalINS4_12project_nameEEPKNS4_10basic_pathIcNS4_13dir_path_kindIcEEEEPKNSt7__cxx1112basic_stringIcSt11char_traitsIcESaIcEEE@Base 0.14.0
 _ZN6build26parser12switch_scopeERKN4butl10basic_pathIcNS1_13dir_path_kindIcEEEE@Base 0.14.0
 _ZN6build26parser13enter_targetsEON4butl12small_vectorINS_4nameELm1EEERKNS_8locationEONS2_INS0_15adhoc_names_locELm1EEEm@Base 0.14.0
 _ZN6build26parser13parse_eval_orERNS_5tokenERNS_10token_typeENS0_12pattern_modeEb@Base 0.14.0
 _ZN6build26parser13parse_if_elseERNS_5tokenERNS_10token_typeE@Base 0.14.0
 _ZN6build26parser13parse_if_elseERNS_5tokenERNS_10token_typeEbRKSt8functionIFvS2_S4_bRKNSt7__cxx1112basic_stringIcSt11char_traitsIcESaIcEEEEE@Base 0.14.0
 _ZN6build26parser13parse_includeERNS_5tokenERNS_10token_typeE@Base 0.14.0
 _ZN6build26parser14attributes_popEv@Base 0.14.0
 _ZN6build26parser14parse_eval_andERNS_5tokenERNS_10token_typeENS0_12pattern_modeEb@Base 0.14.0
 _ZN6build26parser14parse_variableERNS_5lexerERNS_5scopeERKNS_8variableENS_10token_typeE@Base 0.14.0
 _ZN6build26parser14parse_variableERNS_5tokenERNS_10token_typeERKNS_8variableES3_@Base 0.14.0
 _ZN6build26parser15attributes_pushERNS_5tokenERNS_10token_typeEb@Base 0.14.0
 _ZN6build26parser15enter_buildfileERKN4butl10basic_pathIcNS1_13any_path_kindIcEEEE@Base 0.14.0
 _ZN6build26parser15lookup_functionEONSt7__cxx1112basic_stringIcSt11char_traitsIcESaIcEEERKNS_8locationE@Base 0.14.0
 _ZN6build26parser15lookup_variableEONS_4nameEONSt7__cxx1112basic_stringIcSt11char_traitsIcESaIcEEERKNS_8locationE@Base 0.14.0
 _ZN6build26parser15name_separatorsB5cxx11E@Base 0.14.0
 _ZN6build26parser15parse_buildfileERNS_5lexerEPNS_5scopeERS3_PNS_6targetEPNS_12prerequisiteE@Base 0.14.0
 _ZN6build26parser15parse_buildfileERSiRKN4butl15basic_path_nameINS2_10basic_pathIcNS2_13any_path_kindIcEEEEEEPNS_5scopeERSB_PNS_6targetEPNS_12prerequisiteE@Base 0.14.0
 _ZN6build26parser15parse_buildspecERSiRKN4butl15basic_path_nameINS2_10basic_pathIcNS2_13any_path_kindIcEEEEEE@Base 0.14.0
 _ZN6build26parser15parse_eval_compERNS_5tokenERNS_10token_typeENS0_12pattern_modeEb@Base 0.14.0
 _ZN6build26parser16parse_dependencyERNS_5tokenERNS_10token_typeEON4butl12small_vectorINS_4nameELm1EEERKNS_8locationEONS6_INS0_15adhoc_names_locELm1EEES9_SC_@Base 0.14.0
 _ZN6build26parser16parse_eval_commaERNS_5tokenERNS_10token_typeENS0_12pattern_modeEb@Base 0.14.0
 _ZN6build26parser16parse_eval_valueERNS_5tokenERNS_10token_typeENS0_12pattern_modeEb@Base 0.14.0
 _ZN6build26parser18next_after_newlineERNS_5tokenERNS_10token_typeEPKc@Base 0.14.0
 _ZN6build26parser18next_after_newlineERNS_5tokenERNS_10token_typeERKS1_@Base 0.14.0
 _ZN6build26parser18next_after_newlineERNS_5tokenERNS_10token_typeEc@Base 0.14.0
 _ZN6build26parser18parse_clause_blockERNS_5tokenERNS_10token_typeEbRKNSt7__cxx1112basic_stringIcSt11char_traitsIcESaIcEEE@Base 0.14.0
 _ZN6build26parser18parse_eval_ternaryERNS_5tokenERNS_10token_typeENS0_12pattern_modeEb@Base 0.14.0
 _ZN6build26parser19enter_adhoc_membersEONS0_15adhoc_names_locEb@Base 0.14.0
 _ZN6build26parser19expand_name_patternERKNS_8locationEON4butl12small_vectorINS_4nameELm1EEERS7_PKcmPKNS4_10basic_pathIcNS4_13dir_path_kindIcEEEEPKNSt7__cxx1112basic_stringIcSt11char_traitsIcESaIcEEEPKNS_11target_typeE@Base 0.14.0
 _ZN6build26parser19parse_names_trailerERNS_5tokenERNS_10token_typeERN4butl12small_vectorINS_4nameELm1EEENS0_12pattern_modeEPKcPKNSt7__cxx1112basic_stringIcSt11char_traitsIcESaIcEEEmRKSt8optionalINS5_12project_nameEEPKNS5_10basic_pathIcNS5_13dir_path_kindIcEEEESK_b@Base 0.14.0
 _ZN6build26parser19parse_variable_nameEON4butl12small_vectorINS_4nameELm1EEERKNS_8locationE@Base 0.14.0
 _ZN6build26parser20next_with_attributesERNS_5tokenERNS_10token_typeE@Base 0.14.0
 _ZN6build26parser20parse_variable_blockERNS_5tokenERNS_10token_typeESt8optionalINS_4name12pattern_typeEEPKNS_11target_typeENSt7__cxx1112basic_stringIcSt11char_traitsIcESaIcEEERKNS_8locationE@Base 0.14.0
 _ZN6build26parser20parse_variable_valueERNS_5lexerERNS_5scopeEPKN4butl10basic_pathIcNS5_13dir_path_kindIcEEEERKNS_8variableE@Base 0.14.0
 _ZN6build26parser20parse_variable_valueERNS_5tokenERNS_10token_typeE@Base 0.14.0
 _ZN6build26parser22apply_value_attributesEPKNS_8variableERNS_5valueEOS4_NS_10token_typeE@Base 0.14.0
 _ZN6build26parser22parse_buildspec_clauseERNS_5tokenERNS_10token_typeEm@Base 0.14.0
 _ZN6build26parser22process_default_targetERNS_5tokenE@Base 0.14.0
 _ZN6build26parser24parse_config_environmentERNS_5tokenERNS_10token_typeE@Base 0.14.0
 _ZN6build26parser25apply_variable_attributesERKNS_8variableE@Base 0.14.0
 _ZN6build26parser27parse_type_pattern_variableERNS_5tokenERNS_10token_typeENS_4name12pattern_typeERKNS_11target_typeENSt7__cxx1112basic_stringIcSt11char_traitsIcESaIcEEERKNS_8locationERKNS_8variableES3_SI_@Base 0.14.0
 _ZN6build26parser27parse_value_with_attributesERNS_5tokenERNS_10token_typeENS0_12pattern_modeEPKcPKNSt7__cxx1112basic_stringIcSt11char_traitsIcESaIcEEEb@Base 0.14.0
 _ZN6build26parser4modeENS_10lexer_modeEcm@Base 0.14.0
 _ZN6build26parser4nextERNS_5tokenERNS_10token_typeE@Base 0.14.0
 _ZN6build26parser4peekEv@Base 0.14.0
 _ZN6build26parser5resetEv@Base 0.14.0
 _ZN6build26parser6sourceERSiRKN4butl15basic_path_nameINS2_10basic_pathIcNS2_13any_path_kindIcEEEEEERKNS_8locationEb@Base 0.14.0
 _ZN6build26parser7keywordERKNS_5tokenE@Base 0.14.0
 _ZN6build26parser9parse_forERNS_5tokenERNS_10token_typeE@Base 0.14.0
 _ZN6build26parser9parse_runERNS_5tokenERNS_10token_typeE@Base 0.14.0
 _ZN6build26parser9skip_lineERNS_5tokenERNS_10token_typeE@Base 0.14.0
 _ZN6build26parserC1ERNS_7contextENS_10load_stageE@Base 0.14.0
 _ZN6build26parserC2ERNS_7contextENS_10load_stageE@Base 0.14.0
 _ZN6build26parserD1Ev@Base 0.14.0
 _ZN6build26parserD2Ev@Base 0.14.0
 (optional=templinst)_ZN6build26rmfileIN4butl10basic_pathIcNS1_13any_path_kindIcEEEEEENS_9fs_statusINS1_13rmfile_statusEEERNS_7contextERKS5_RKT_t@Base 0.14.0
 (optional=templinst)_ZN6build26rmfileINS_4fileEEENS_9fs_statusIN4butl13rmfile_statusEEERNS_7contextERKNS3_10basic_pathIcNS3_13any_path_kindIcEEEERKT_t@Base 0.14.0
 (optional=templinst)_ZN6build26rmfileINS_6targetEEENS_9fs_statusIN4butl13rmfile_statusEEERNS_7contextERKNS3_10basic_pathIcNS3_13any_path_kindIcEEEERKT_t@Base 0.14.0
 _ZN6build26script10regex_lineD1Ev@Base 0.14.0
 _ZN6build26script10regex_lineD2Ev@Base 0.14.0
 _ZN6build26script11environment13clean_specialEN4butl10basic_pathIcNS2_13any_path_kindIcEEEE@Base 0.14.0
 _ZN6build26script11environment18exported_variablesERNS0_16environment_varsE@Base 0.14.0
 _ZN6build26script11environment24merge_exported_variablesERKNS0_16environment_varsERS2_@Base 0.14.0
 _ZN6build26script11environment5cleanENS0_7cleanupEb@Base 0.14.0
 _ZN6build26script11environmentD0Ev@Base 0.14.0
 _ZN6build26script11environmentD1Ev@Base 0.14.0
 _ZN6build26script11environmentD2Ev@Base 0.14.0
 _ZN6build26script11regex_linesD1Ev@Base 0.14.0
 _ZN6build26script11regex_linesD2Ev@Base 0.14.0
 _ZN6build26script11regex_partsD1Ev@Base 0.14.0
 _ZN6build26script11regex_partsD2Ev@Base 0.14.0
 _ZN6build26script11set_options6_parseEPKcRNS0_3cli7scannerE@Base 0.14.0
 _ZN6build26script11set_options6_parseERNS0_3cli7scannerENS2_12unknown_modeES5_@Base 0.14.0
 _ZN6build26script11set_optionsC1ERNS0_3cli7scannerENS2_12unknown_modeES5_@Base 0.14.0
 _ZN6build26script11set_optionsC1ERiPPcS2_bNS0_3cli12unknown_modeES6_@Base 0.14.0
 _ZN6build26script11set_optionsC1ERiPPcbNS0_3cli12unknown_modeES6_@Base 0.14.0
 _ZN6build26script11set_optionsC1EiRiPPcS2_bNS0_3cli12unknown_modeES6_@Base 0.14.0
 _ZN6build26script11set_optionsC1EiRiPPcbNS0_3cli12unknown_modeES6_@Base 0.14.0
 _ZN6build26script11set_optionsC1Ev@Base 0.14.0
 _ZN6build26script11set_optionsC2ERNS0_3cli7scannerENS2_12unknown_modeES5_@Base 0.14.0
 _ZN6build26script11set_optionsC2ERiPPcS2_bNS0_3cli12unknown_modeES6_@Base 0.14.0
 _ZN6build26script11set_optionsC2ERiPPcbNS0_3cli12unknown_modeES6_@Base 0.14.0
 _ZN6build26script11set_optionsC2EiRiPPcS2_bNS0_3cli12unknown_modeES6_@Base 0.14.0
 _ZN6build26script11set_optionsC2EiRiPPcbNS0_3cli12unknown_modeES6_@Base 0.14.0
 _ZN6build26script11set_optionsC2Ev@Base 0.14.0
 _ZN6build26script13token_printerERSoRKNS_5tokenENS_10print_modeE@Base 0.14.0
 _ZN6build26script14export_options6_parseEPKcRNS0_3cli7scannerE@Base 0.14.0
 _ZN6build26script14export_options6_parseERNS0_3cli7scannerENS2_12unknown_modeES5_@Base 0.14.0
 _ZN6build26script14export_optionsC1ERNS0_3cli7scannerENS2_12unknown_modeES5_@Base 0.14.0
 _ZN6build26script14export_optionsC1ERiPPcS2_bNS0_3cli12unknown_modeES6_@Base 0.14.0
 _ZN6build26script14export_optionsC1ERiPPcbNS0_3cli12unknown_modeES6_@Base 0.14.0
 _ZN6build26script14export_optionsC1EiRiPPcS2_bNS0_3cli12unknown_modeES6_@Base 0.14.0
 _ZN6build26script14export_optionsC1EiRiPPcbNS0_3cli12unknown_modeES6_@Base 0.14.0
 _ZN6build26script14export_optionsC1Ev@Base 0.14.0
 _ZN6build26script14export_optionsC2ERNS0_3cli7scannerENS2_12unknown_modeES5_@Base 0.14.0
 _ZN6build26script14export_optionsC2ERiPPcS2_bNS0_3cli12unknown_modeES6_@Base 0.14.0
 _ZN6build26script14export_optionsC2ERiPPcbNS0_3cli12unknown_modeES6_@Base 0.14.0
 _ZN6build26script14export_optionsC2EiRiPPcS2_bNS0_3cli12unknown_modeES6_@Base 0.14.0
 _ZN6build26script14export_optionsC2EiRiPPcbNS0_3cli12unknown_modeES6_@Base 0.14.0
 _ZN6build26script14export_optionsC2Ev@Base 0.14.0
 _ZN6build26script15timeout_options6_parseEPKcRNS0_3cli7scannerE@Base 0.14.0
 _ZN6build26script15timeout_options6_parseERNS0_3cli7scannerENS2_12unknown_modeES5_@Base 0.14.0
 _ZN6build26script15timeout_optionsC1ERNS0_3cli7scannerENS2_12unknown_modeES5_@Base 0.14.0
 _ZN6build26script15timeout_optionsC1ERiPPcS2_bNS0_3cli12unknown_modeES6_@Base 0.14.0
 _ZN6build26script15timeout_optionsC1ERiPPcbNS0_3cli12unknown_modeES6_@Base 0.14.0
 _ZN6build26script15timeout_optionsC1EiRiPPcS2_bNS0_3cli12unknown_modeES6_@Base 0.14.0
 _ZN6build26script15timeout_optionsC1EiRiPPcbNS0_3cli12unknown_modeES6_@Base 0.14.0
 _ZN6build26script15timeout_optionsC1Ev@Base 0.14.0
 _ZN6build26script15timeout_optionsC2ERNS0_3cli7scannerENS2_12unknown_modeES5_@Base 0.14.0
 _ZN6build26script15timeout_optionsC2ERiPPcS2_bNS0_3cli12unknown_modeES6_@Base 0.14.0
 _ZN6build26script15timeout_optionsC2ERiPPcbNS0_3cli12unknown_modeES6_@Base 0.14.0
 _ZN6build26script15timeout_optionsC2EiRiPPcS2_bNS0_3cli12unknown_modeES6_@Base 0.14.0
 _ZN6build26script15timeout_optionsC2EiRiPPcbNS0_3cli12unknown_modeES6_@Base 0.14.0
 _ZN6build26script15timeout_optionsC2Ev@Base 0.14.0
 _ZN6build26script16environment_vars3addENSt7__cxx1112basic_stringIcSt11char_traitsIcESaIcEEE@Base 0.14.0
 _ZN6build26script16environment_vars4findERKNSt7__cxx1112basic_stringIcSt11char_traitsIcESaIcEEE@Base 0.14.0
 _ZN6build26script25_cli_set_options_map_initC1Ev@Base 0.14.0
 _ZN6build26script25_cli_set_options_map_initC2Ev@Base 0.14.0
 _ZN6build26script27verify_environment_var_nameERKNSt7__cxx1112basic_stringIcSt11char_traitsIcESaIcEEEPKcRKNS_8locationESA_@Base 0.14.0
 _ZN6build26script28_cli_export_options_map_initC1Ev@Base 0.14.0
 _ZN6build26script28_cli_export_options_map_initC2Ev@Base 0.14.0
 _ZN6build26script29_cli_timeout_options_map_initC1Ev@Base 0.14.0
 _ZN6build26script29_cli_timeout_options_map_initC2Ev@Base 0.14.0
 _ZN6build26script33verify_environment_var_assignmentERKNSt7__cxx1112basic_stringIcSt11char_traitsIcESaIcEEEPKcRKNS_8locationE@Base 0.14.0
 _ZN6build26script3cli11eos_reachedD0Ev@Base 0.14.0
 _ZN6build26script3cli11eos_reachedD1Ev@Base 0.14.0
 _ZN6build26script3cli11eos_reachedD2Ev@Base 0.14.0
 _ZN6build26script3cli12argv_scanner4moreEv@Base 0.14.0
 _ZN6build26script3cli12argv_scanner4nextEv@Base 0.14.0
 _ZN6build26script3cli12argv_scanner4peekEv@Base 0.14.0
 _ZN6build26script3cli12argv_scanner4skipEv@Base 0.14.0
 _ZN6build26script3cli12argv_scannerD0Ev@Base 0.14.0
 _ZN6build26script3cli12argv_scannerD1Ev@Base 0.14.0
 _ZN6build26script3cli12argv_scannerD2Ev@Base 0.14.0
 _ZN6build26script3cli13invalid_valueC1ERKNSt7__cxx1112basic_stringIcSt11char_traitsIcESaIcEEESA_SA_@Base 0.14.0
 _ZN6build26script3cli13invalid_valueC2ERKNSt7__cxx1112basic_stringIcSt11char_traitsIcESaIcEEESA_SA_@Base 0.14.0
 _ZN6build26script3cli13invalid_valueD0Ev@Base 0.14.0
 _ZN6build26script3cli13invalid_valueD1Ev@Base 0.14.0
 _ZN6build26script3cli13invalid_valueD2Ev@Base 0.14.0
 _ZN6build26script3cli13missing_valueD0Ev@Base 0.14.0
 _ZN6build26script3cli13missing_valueD1Ev@Base 0.14.0
 _ZN6build26script3cli13missing_valueD2Ev@Base 0.14.0
 _ZN6build26script3cli14unknown_optionC1ERKNSt7__cxx1112basic_stringIcSt11char_traitsIcESaIcEEE@Base 0.14.0
 _ZN6build26script3cli14unknown_optionC2ERKNSt7__cxx1112basic_stringIcSt11char_traitsIcESaIcEEE@Base 0.14.0
 _ZN6build26script3cli14unknown_optionD0Ev@Base 0.14.0
 _ZN6build26script3cli14unknown_optionD1Ev@Base 0.14.0
 _ZN6build26script3cli14unknown_optionD2Ev@Base 0.14.0
 _ZN6build26script3cli14vector_scanner4moreEv@Base 0.14.0
 _ZN6build26script3cli14vector_scanner4nextEv@Base 0.14.0
 _ZN6build26script3cli14vector_scanner4peekEv@Base 0.14.0
 _ZN6build26script3cli14vector_scanner4skipEv@Base 0.14.0
 _ZN6build26script3cli14vector_scannerD0Ev@Base 0.14.0
 _ZN6build26script3cli14vector_scannerD1Ev@Base 0.14.0
 _ZN6build26script3cli14vector_scannerD2Ev@Base 0.14.0
 _ZN6build26script3cli16unknown_argumentC1ERKNSt7__cxx1112basic_stringIcSt11char_traitsIcESaIcEEE@Base 0.14.0
 _ZN6build26script3cli16unknown_argumentC2ERKNSt7__cxx1112basic_stringIcSt11char_traitsIcESaIcEEE@Base 0.14.0
 _ZN6build26script3cli16unknown_argumentD0Ev@Base 0.14.0
 _ZN6build26script3cli16unknown_argumentD1Ev@Base 0.14.0
 _ZN6build26script3cli16unknown_argumentD2Ev@Base 0.14.0
 (optional=templinst)_ZN6build26script3cli5thunkINS0_11set_optionsEbXadL_ZNS3_11whitespace_EEEEEvRT_RNS1_7scannerE@Base 0.14.0
 (optional=templinst)_ZN6build26script3cli5thunkINS0_11set_optionsEbXadL_ZNS3_6exact_EEEEEvRT_RNS1_7scannerE@Base 0.14.0
 (optional=templinst)_ZN6build26script3cli5thunkINS0_11set_optionsEbXadL_ZNS3_8newline_EEEEEvRT_RNS1_7scannerE@Base 0.14.0
 (optional=templinst)_ZN6build26script3cli5thunkINS0_14export_optionsESt6vectorINSt7__cxx1112basic_stringIcSt11char_traitsIcESaIcEEESaISA_EEXadL_ZNS3_6clear_EEEXadL_ZNS3_16clear_specified_EEEEEvRT_RNS1_7scannerE@Base 0.14.0
 (optional=templinst)_ZN6build26script3cli5thunkINS0_14export_optionsESt6vectorINSt7__cxx1112basic_stringIcSt11char_traitsIcESaIcEEESaISA_EEXadL_ZNS3_6unset_EEEXadL_ZNS3_16unset_specified_EEEEEvRT_RNS1_7scannerE@Base 0.14.0
 (optional=templinst)_ZN6build26script3cli5thunkINS0_15timeout_optionsEbXadL_ZNS3_8success_EEEEEvRT_RNS1_7scannerE@Base 0.14.0
 _ZN6build26script3cli7scannerD0Ev@Base 0.14.0
 _ZN6build26script3cli7scannerD1Ev@Base 0.14.0
 _ZN6build26script3cli7scannerD2Ev@Base 0.14.0
 _ZN6build26script3runERNS0_11environmentERKSt6vectorINS0_9expr_termESaIS4_EEmRKNS_8locationE@Base 0.14.0
 _ZN6build26script4dumpERSoRKNS0_4lineEb@Base 0.14.0
 _ZN6build26script4dumpERSoRKNSt7__cxx1112basic_stringIcSt11char_traitsIcESaIcEEERKN4butl12small_vectorINS0_4lineELm1EEE@Base 0.14.0
 _ZN6build26script5cleanERNS0_11environmentERKNS_8locationE@Base 0.14.0
 _ZN6build26script5lexer11next_cmd_opERKN4butl12char_scannerINS2_14utf8_validatorELm2EE5xcharEb@Base 0.14.0
 _ZN6build26script5lexer4modeENS_10lexer_modeEcSt8optionalIPKcEm@Base 0.14.0
 _ZN6build26script5lexer4nextEv@Base 0.14.0
 _ZN6build26script5lexer9next_lineEv@Base 0.14.0
 _ZN6build26script5regex10char_regexC1ERKNSt7__cxx1112basic_stringIcSt11char_traitsIcESaIcEEENS1_10char_flagsE@Base 0.14.0
 _ZN6build26script5regex10char_regexC2ERKNSt7__cxx1112basic_stringIcSt11char_traitsIcESaIcEEENS1_10char_flagsE@Base 0.14.0
 _ZN6build26script5regex10line_regexD1Ev@Base 0.14.0
 _ZN6build26script5regex10line_regexD2Ev@Base 0.14.0
 _ZN6build26script5regex16line_char_localeC1Ev@Base 0.14.0
 _ZN6build26script5regex16line_char_localeC2Ev@Base 0.14.0
 _ZN6build26script5regex4initEv@Base 0.14.0
 _ZN6build26script5regex9line_char3eofE@Base 0.14.0
 _ZN6build26script5regex9line_char3nulE@Base 0.14.0
 _ZN6build26script5regex9line_char6syntaxEc@Base 0.14.0
 _ZN6build26script5regex9line_charC1ENS1_10char_regexERNS1_9line_poolE@Base 0.14.0
 _ZN6build26script5regex9line_charC1EONSt7__cxx1112basic_stringIcSt11char_traitsIcESaIcEEERNS1_9line_poolE@Base 0.14.0
 _ZN6build26script5regex9line_charC1ERKNSt7__cxx1112basic_stringIcSt11char_traitsIcESaIcEEERNS1_9line_poolE@Base 0.14.0
 _ZN6build26script5regex9line_charC1Ei@Base 0.14.0
 _ZN6build26script5regex9line_charC2ENS1_10char_regexERNS1_9line_poolE@Base 0.14.0
 _ZN6build26script5regex9line_charC2EONSt7__cxx1112basic_stringIcSt11char_traitsIcESaIcEEERNS1_9line_poolE@Base 0.14.0
 _ZN6build26script5regex9line_charC2ERKNSt7__cxx1112basic_stringIcSt11char_traitsIcESaIcEEERNS1_9line_poolE@Base 0.14.0
 _ZN6build26script5regex9line_charC2Ei@Base 0.14.0
 _ZN6build26script5regexeqERKNS1_9line_charES4_@Base 0.14.0
 _ZN6build26script5regexltERKNS1_9line_charES4_@Base 0.14.0
 (optional=templinst)_ZN6build26script6parser10exec_linesEN9__gnu_cxx17__normal_iteratorIPKNS0_4lineESt6vectorIS4_N4butl15small_allocatorIS4_Lm1ENS8_22small_allocator_bufferIS4_Lm1EEEEEEEESE_RKSt8functionIFvRKNS_8variableERNS_5tokenERNS0_10token_typeERKNS_8locationEEERKSF_IFvSK_SM_mbSP_EERKSF_IFbSK_SM_mSP_EERmPNS_13variable_poolE@Base 0.14.0
 _ZN6build26script6parser10parsed_docC1ENSt7__cxx1112basic_stringIcSt11char_traitsIcESaIcEEEmm@Base 0.14.0
 _ZN6build26script6parser10parsed_docC1EONS0_11regex_linesEmm@Base 0.14.0
 _ZN6build26script6parser10parsed_docC1EOS2_@Base 0.14.0
 _ZN6build26script6parser10parsed_docC2ENSt7__cxx1112basic_stringIcSt11char_traitsIcESaIcEEEmm@Base 0.14.0
 _ZN6build26script6parser10parsed_docC2EONS0_11regex_linesEmm@Base 0.14.0
 _ZN6build26script6parser10parsed_docC2EOS2_@Base 0.14.0
 _ZN6build26script6parser10parsed_docD1Ev@Base 0.14.0
 _ZN6build26script6parser10parsed_docD2Ev@Base 0.14.0
 _ZN6build26script6parser12reset_quotedERNS_5tokenE@Base 0.14.0
 _ZN6build26script6parser13parse_programERNS_5tokenERNS0_10token_typeEbbRN4butl12small_vectorINS_4nameELm1EEE@Base 0.14.0
 _ZN6build26script6parser17parse_env_builtinERNS_5tokenERNS0_10token_typeE@Base 0.14.0
 _ZN6build26script6parser18parse_command_exitERNS_5tokenERNS0_10token_typeE@Base 0.14.0
 _ZN6build26script6parser18parse_command_exprERNS_5tokenERNS0_10token_typeERKNS0_16redirect_aliasesE@Base 0.14.0
 _ZN6build26script6parser19parse_here_documentERNS_5tokenERNS0_10token_typeERKNSt7__cxx1112basic_stringIcSt11char_traitsIcESaIcEEESD_c@Base 0.14.0
 _ZN6build26script6parser19parse_variable_lineERNS_5tokenERNS0_10token_typeE@Base 0.14.0
 _ZN6build26script6parser20parse_here_documentsERNS_5tokenERNS0_10token_typeERSt4pairISt6vectorINS0_9expr_termESaIS8_EES7_INS1_8here_docESaISB_EEE@Base 0.14.0
 _ZN6build26script6parser20pre_parse_line_startERNS_5tokenERNS0_10token_typeENS0_10lexer_modeE@Base 0.14.0
 _ZN6build26script6parser22apply_value_attributesEPKNS_8variableERNS_5valueEOS5_RKNSt7__cxx1112basic_stringIcSt11char_traitsIcESaIcEEENS0_10token_typeERKN4butl15basic_path_nameINSH_10basic_pathIcNSH_13any_path_kindIcEEEEEE@Base 0.14.0
 _ZN6build26script6parser8here_docD1Ev@Base 0.14.0
 _ZN6build26script6parser8here_docD2Ev@Base 0.14.0
 _ZN6build26script6parser9set_lexerEPNS0_5lexerE@Base 0.14.0
 _ZN6build26script6run_ifERNS0_11environmentERKSt6vectorINS0_9expr_termESaIS4_EEmRKNS_8locationE@Base 0.14.0
 _ZN6build26script7commandD1Ev@Base 0.14.0
 _ZN6build26script7commandD2Ev@Base 0.14.0
 _ZN6build26script7commandaSEOS1_@Base 0.14.0
 _ZN6build26script8redirectC1ENS0_13redirect_typeE@Base 0.14.0
 _ZN6build26script8redirectC1EOS1_@Base 0.14.0
 _ZN6build26script8redirectC2ENS0_13redirect_typeE@Base 0.14.0
 _ZN6build26script8redirectC2EOS1_@Base 0.14.0
 _ZN6build26script8redirectD1Ev@Base 0.14.0
 _ZN6build26script8redirectD2Ev@Base 0.14.0
 _ZN6build26script8redirectaSEOS1_@Base 0.14.0
 _ZN6build26script9diag_pathB5cxx11ERKN4butl10basic_pathIcNS1_13any_path_kindIcEEEE@Base 0.14.0
 _ZN6build26script9diag_pathB5cxx11ERKN4butl20basic_path_name_viewINS1_10basic_pathIcNS1_13dir_path_kindIcEEEEEE@Base 0.14.0
 _ZN6build26script9print_dirERN4butl11diag_recordERKNS1_10basic_pathIcNS1_13dir_path_kindIcEEEERKNS_8locationE@Base 0.14.0
 _ZN6build26script9to_streamERSoRKNS0_7commandENS0_17command_to_streamE@Base 0.14.0
 _ZN6build26script9to_streamERSoRKSt6vectorINS0_7commandESaIS3_EENS0_17command_to_streamE@Base 0.14.0
 _ZN6build26script9to_streamERSoRKSt6vectorINS0_9expr_termESaIS3_EENS0_17command_to_streamE@Base 0.14.0
 _ZN6build26scriptlsERSoNS0_9line_typeE@Base 0.14.0
 _ZN6build26searchERKN4butl12small_vectorINS_5valueELm1EEERKNS_5scopeES8_RKNS0_10basic_pathIcNS0_13any_path_kindIcEEEERKNS_10target_keyERKNS_8locationERNS_14action_targetsE@Base 0.14.0
 _ZN6build26searchERKNS_6targetENS_4nameERKNS_5scopeEPKNS_11target_typeE@Base 0.14.0
 _ZN6build26searchERKNS_6targetERKNS_12prerequisiteE@Base 0.14.0
 _ZN6build26searchERKNS_6targetERKNS_16prerequisite_keyE@Base 0.14.0
 _ZN6build26silentE@Base 0.14.0
 _ZN6build26sourceERNS_5scopeES1_RKN4butl10basic_pathIcNS2_13any_path_kindIcEEEE@Base 0.14.0
 _ZN6build26sourceERNS_5scopeES1_RNS_5lexerENS_10load_stageE@Base 0.14.0
 _ZN6build26sourceERNS_5scopeES1_RSiRKN4butl15basic_path_nameINS3_10basic_pathIcNS3_13any_path_kindIcEEEEEE@Base 0.14.0
 _ZN6build26target10split_nameERNSt7__cxx1112basic_stringIcSt11char_traitsIcESaIcEEERKNS_8locationE@Base 0.14.0
 _ZN6build26target11static_typeE@Base 0.14.0
 _ZN6build26target12combine_nameERNSt7__cxx1112basic_stringIcSt11char_traitsIcESaIcEEERKSt8optionalIS6_Eb@Base 0.14.0
 _ZN6build26target20empty_prerequisites_E@Base 0.14.0
 _ZN6build26target3extENSt7__cxx1112basic_stringIcSt11char_traitsIcESaIcEEE@Base 0.14.0
 _ZN6build26target6appendERKNS_8variableE@Base 0.14.0
 _ZN6build26targetD0Ev@Base 0.14.0
 _ZN6build26targetD1Ev@Base 0.14.0
 _ZN6build26targetD2Ev@Base 0.14.0
 _ZN6build26typifyERNS_5valueERKNS_10value_typeEPKNS_8variableESt12memory_order@Base 0.14.0
 _ZN6build27context17current_operationERKNS_14operation_infoEPS2_b@Base 0.14.0
 _ZN6build27context22current_meta_operationERKNS_19meta_operation_infoE@Base 0.14.0
 _ZN6build27contextC1ERNS_9schedulerERNS_14global_mutexesERNS_10file_cacheEbbbbRKSt6vectorINSt7__cxx1112basic_stringIcSt11char_traitsIcESaIcEEESaISD_EESt8optionalIPS0_EPKNS_19loaded_modules_lockE@Base 0.14.0
 _ZN6build27contextC2ERNS_9schedulerERNS_14global_mutexesERNS_10file_cacheEbbbbRKSt6vectorINSt7__cxx1112basic_stringIcSt11char_traitsIcESaIcEEESaISD_EESt8optionalIPS0_EPKNS_19loaded_modules_lockE@Base 0.14.0
 _ZN6build27contextD1Ev@Base 0.14.0
 _ZN6build27contextD2Ev@Base 0.14.0
 _ZN6build27convertIN4butl10basic_pathIcNS1_13any_path_kindIcEEEEEEDTclsrNS_12value_traitsIT_EE7convertcl4movecldtfp_L_ZNSt6vectorINS_4nameENS1_15small_allocatorISA_Lm1ENS1_22small_allocator_bufferISA_Lm1EEEEEEixEmELi0EEELDn0EEEONS1_12small_vectorISA_Lm1EEE@Base 0.14.0
 _ZN6build27convertIN4butl10basic_pathIcNS1_13dir_path_kindIcEEEEEEDTclsrNS_12value_traitsIT_EE7convertcl4movecldtfp_L_ZNSt6vectorINS_4nameENS1_15small_allocatorISA_Lm1ENS1_22small_allocator_bufferISA_Lm1EEEEEEixEmELi0EEELDn0EEEONS1_12small_vectorISA_Lm1EEE@Base 0.14.0
 _ZN6build27convertIN4butl12process_pathEEEDTclsrNS_12value_traitsIT_EE7convertcl4movecldtfp_L_ZNSt6vectorINS_4nameENS1_15small_allocatorIS7_Lm1ENS1_22small_allocator_bufferIS7_Lm1EEEEEEixEmELi0EEELDn0EEEONS1_12small_vectorIS7_Lm1EEE@Base 0.14.0
 _ZN6build27convertINS_4nameEEEDTclsrNS_12value_traitsIT_EE7convertcl4movecldtfp_L_ZNSt6vectorIS1_N4butl15small_allocatorIS1_Lm1ENS6_22small_allocator_bufferIS1_Lm1EEEEEEixEmELi0EEELDn0EEEONS6_12small_vectorIS1_Lm1EEE@Base 0.14.0
 _ZN6build27convertINSt7__cxx1112basic_stringIcSt11char_traitsIcESaIcEEEEEDTclsrNS_12value_traitsIT_EE7convertcl4movecldtfp_L_ZNSt6vectorINS_4nameEN4butl15small_allocatorISB_Lm1ENSC_22small_allocator_bufferISB_Lm1EEEEEEixEmELi0EEELDn0EEEONSC_12small_vectorISB_Lm1EEE@Base 0.14.0
 (optional=templinst)_ZN6build27convertINSt7__cxx1112basic_stringIcSt11char_traitsIcESaIcEEEEET_ONS_5valueE@Base 0.14.0
 (optional=templinst)_ZN6build27convertISt6vectorINSt7__cxx1112basic_stringIcSt11char_traitsIcESaIcEEESaIS7_EEEET_ONS_5valueE@Base 0.14.0
 _ZN6build27convertIbEEDTclsrNS_12value_traitsIT_EE7convertcl4movecldtfp_L_ZNSt6vectorINS_4nameEN4butl15small_allocatorIS5_Lm1ENS6_22small_allocator_bufferIS5_Lm1EEEEEEixEmELi0EEELDn0EEEONS6_12small_vectorIS5_Lm1EEE@Base 0.14.0
 (optional=templinst)_ZN6build27convertIbEET_ONS_5valueE@Base 0.14.0
 _ZN6build27convertImEEDTclsrNS_12value_traitsIT_EE7convertcl4movecldtfp_L_ZNSt6vectorINS_4nameEN4butl15small_allocatorIS5_Lm1ENS6_22small_allocator_bufferIS5_Lm1EEEEEEixEmELi0EEELDn0EEEONS6_12small_vectorIS5_Lm1EEE@Base 0.14.0
 _ZN6build27diag_doB5cxx11ERNS_7contextERKNS_6actionE@Base 0.14.0
 _ZN6build27diag_doERSoRKNS_6actionERKNS_6targetE@Base 0.14.0
 _ZN6build27executeENS_6actionERKNS_6targetEmPSt6atomicImE@Base 0.14.0
 _ZN6build27executeERKN4butl12small_vectorINS_5valueELm1EEENS_6actionERNS_14action_targetsEtb@Base 0.14.0
 _ZN6build27install10alias_rule8instanceE@Base 0.14.0
 _ZN6build27install10alias_ruleD0Ev@Base 0.14.0
 _ZN6build27install10alias_ruleD1Ev@Base 0.14.0
 _ZN6build27install10alias_ruleD2Ev@Base 0.14.0
 _ZN6build27install10fsdir_rule8instanceE@Base 0.14.0
 _ZN6build27install10fsdir_ruleD0Ev@Base 0.14.0
 _ZN6build27install10fsdir_ruleD1Ev@Base 0.14.0
 _ZN6build27install10fsdir_ruleD2Ev@Base 0.14.0
 _ZN6build27install10group_rule8instanceE@Base 0.14.0
 _ZN6build27install10group_ruleD0Ev@Base 0.14.0
 _ZN6build27install10group_ruleD1Ev@Base 0.14.0
 _ZN6build27install10group_ruleD2Ev@Base 0.14.0
 _ZN6build27install10op_installE@Base 0.14.0
 _ZN6build27install11resolve_dirERKNS_5scopeEN4butl10basic_pathIcNS4_13dir_path_kindIcEEEEb@Base 0.14.0
 _ZN6build27install11resolve_dirERKNS_6targetEN4butl10basic_pathIcNS4_13dir_path_kindIcEEEEb@Base 0.14.0
 _ZN6build27install12install_pathERNS_5scopeERKNS_11target_typeEN4butl10basic_pathIcNS6_13dir_path_kindIcEEEE@Base 0.14.0
 _ZN6build27install12op_uninstallE@Base 0.14.0
 _ZN6build27install12resolve_fileERKNS_4fileE@Base 0.14.0
 _ZN6build27install21op_update_for_installE@Base 0.14.0
 _ZN6build27install4bootERNS_5scopeERKNS_8locationERNS_17module_boot_extraE@Base 0.14.0
 _ZN6build27install4initERNS_5scopeES2_RKNS_8locationEbbRNS_17module_init_extraE@Base 0.14.0
 _ZN6build27install9file_rule11uninstall_dERKNS_5scopeERKNS0_11install_dirERKN4butl10basic_pathIcNS8_13dir_path_kindIcEEEEt@Base 0.14.0
 _ZN6build27install9file_rule11uninstall_fERKNS_5scopeERKNS0_11install_dirEPKNS_4fileERKN4butl10basic_pathIcNSB_13any_path_kindIcEEEEt@Base 0.14.0
 _ZN6build27install9file_rule14perform_updateENS_6actionERKNS_6targetE@Base 0.14.0
 _ZN6build27install9file_rule8instanceE@Base 0.14.0
 _ZN6build27install9file_rule9install_dERKNS_5scopeERKNS0_11install_dirERKN4butl10basic_pathIcNS8_13dir_path_kindIcEEEEt@Base 0.14.0
 _ZN6build27install9file_rule9install_fERKNS_5scopeERKNS0_11install_dirERKN4butl10basic_pathIcNS8_13any_path_kindIcEEEERKNS_4fileESE_t@Base 0.14.0
 _ZN6build27install9file_rule9install_lERKNS_5scopeERKNS0_11install_dirERKN4butl10basic_pathIcNS8_13any_path_kindIcEEEESE_t@Base 0.14.0
 _ZN6build27install9file_ruleD0Ev@Base 0.14.0
 _ZN6build27install9file_ruleD1Ev@Base 0.14.0
 _ZN6build27install9file_ruleD2Ev@Base 0.14.0
 _ZN6build27install9functionsERNS_12function_mapE@Base 0.14.0
 _ZN6build27mkdir_pERKN4butl10basic_pathIcNS0_13dir_path_kindIcEEEEt@Base 0.14.0
 _ZN6build27mo_infoE@Base 0.14.0
 _ZN6build27mo_noopE@Base 0.14.0
 _ZN6build27out_srcERKN4butl10basic_pathIcNS0_13dir_path_kindIcEEEERKNS_5scopeE@Base 0.14.0
 _ZN6build27reverseERKNS_5valueERN4butl12small_vectorINS_4nameELm1EEE@Base 0.14.0
 _ZN6build27rmdir_rERNS_7contextERKN4butl10basic_pathIcNS2_13dir_path_kindIcEEEEbt@Base 0.14.0
 _ZN6build28diag_didB5cxx11ERNS_7contextERKNS_6actionE@Base 0.14.0
 _ZN6build28diag_didERSoRKNS_6actionERKNS_6targetE@Base 0.14.0
 _ZN6build28man1_extE@Base 0.14.0
 _ZN6build28manifest11static_typeE@Base 0.14.0
 _ZN6build28manifestD0Ev@Base 0.14.0
 _ZN6build28manifestD1Ev@Base 0.14.0
 _ZN6build28manifestD2Ev@Base 0.14.0
 _ZN6build28op_cleanE@Base 0.14.0
 _ZN6build28relativeERKNS_11path_targetE@Base 0.14.0
 (optional=templinst)_ZN6build28relativeIN4butl13any_path_kindIcEEEENS1_10basic_pathIcT_EERKS6_@Base 0.14.0
 (optional=templinst)_ZN6build28relativeIN4butl13dir_path_kindIcEEEENS1_10basic_pathIcT_EERKS6_@Base 0.14.0
 _ZN6build28rule_map6insertEhhRKNS_11target_typeENSt7__cxx1112basic_stringIcSt11char_traitsIcESaIcEEERKNS_4ruleE@Base 0.14.0
 _ZN6build28run_waitEPPKcRN4butl7processERKNS_8locationE@Base 0.14.0
 _ZN6build28untypifyERNS_5valueE@Base 0.14.0
 _ZN6build28variableD1Ev@Base 0.14.0
 _ZN6build28variableD2Ev@Base 0.14.0
 _ZN6build29attributeD1Ev@Base 0.14.0
 _ZN6build29attributeD2Ev@Base 0.14.0
 _ZN6build29buildfile11static_typeE@Base 0.14.0
 _ZN6build29buildfileD0Ev@Base 0.14.0
 _ZN6build29buildfileD1Ev@Base 0.14.0
 _ZN6build29buildfileD2Ev@Base 0.14.0
 _ZN6build29diag_doneERSoRKNS_6actionERKNS_6targetE@Base 0.14.0
 _ZN6build29file_rule10rule_matchB5cxx11E@Base 0.14.0
 _ZN6build29file_rule8instanceE@Base 0.14.0
 _ZN6build29file_ruleD0Ev@Base 0.14.0
 _ZN6build29file_ruleD1Ev@Base 0.14.0
 _ZN6build29file_ruleD2Ev@Base 0.14.0
 _ZN6build29info_loadERKN4butl12small_vectorINS_5valueELm1EEERNS_5scopeERKNS0_10basic_pathIcNS0_13any_path_kindIcEEEERKNS8_IcNS0_13dir_path_kindIcEEEESI_RKNS_8locationE@Base 0.14.0
 _ZN6build29init_diagEtbSt8optionalIbEbbb@Base 0.14.0
 _ZN6build29load_rootERNS_5scopeE@Base 0.14.0
 _ZN6build29lock_implENS_6actionERKNS_6targetESt8optionalINS_9scheduler10work_queueEE@Base 0.14.0
 _ZN6build29noop_rule8instanceE@Base 0.14.0
 _ZN6build29noop_ruleD0Ev@Base 0.14.0
 _ZN6build29noop_ruleD1Ev@Base 0.14.0
 _ZN6build29noop_ruleD2Ev@Base 0.14.0
 _ZN6build29op_updateE@Base 0.14.0
 _ZN6build29open_nullEv@Base 0.14.0
 _ZN6build29open_pipeEv@Base 0.14.0
 _ZN6build29rmsymlinkERNS_7contextERKN4butl10basic_pathIcNS2_13any_path_kindIcEEEEbt@Base 0.14.0
 _ZN6build29run_startEtRKN4butl11process_envEPPKciibRKNS0_10basic_pathIcNS0_13dir_path_kindIcEEEERKNS_8locationE@Base 0.14.0
 _ZN6build29scheduler10deactivateEb@Base 0.14.0
 _ZN6build29scheduler10deallocateEm@Base 0.14.0
 _ZN6build29scheduler10push_phaseEv@Base 0.14.0
 _ZN6build29scheduler12active_sleepERKNSt6chrono8durationIlSt5ratioILl1ELl1000000000EEEE@Base 0.14.0
 _ZN6build29scheduler12create_queueEv@Base 0.14.0
 _ZN6build29scheduler13create_helperERSt11unique_lockISt5mutexE@Base 0.14.0
 _ZN6build29scheduler13monitor_guardD1Ev@Base 0.14.0
 _ZN6build29scheduler13monitor_guardD2Ev@Base 0.14.0
 _ZN6build29scheduler15activate_helperERSt11unique_lockISt5mutexE@Base 0.14.0
 _ZN6build29scheduler16deadlock_monitorEPv@Base 0.14.0
 _ZN6build29scheduler4tuneEm@Base 0.14.0
 _ZN6build29scheduler5queueEPNS0_10task_queueE@Base 0.14.0
 _ZN6build29scheduler5queueEv@Base 0.14.0
 _ZN6build29scheduler5sleepERKNSt6chrono8durationIlSt5ratioILl1ELl1000000000EEEE@Base 0.14.0
 _ZN6build29scheduler6helperEPv@Base 0.14.0
 _ZN6build29scheduler6resumeERKSt6atomicImE@Base 0.14.0
 (optional=templinst)_ZN6build29scheduler7monitorERSt6atomicImEmSt8functionIFmmEE@Base 0.14.0
 _ZN6build29scheduler7startupEmmmmSt8optionalImE@Base 0.14.0
 _ZN6build29scheduler7suspendEmRKSt6atomicImE@Base 0.14.0
 _ZN6build29scheduler8activateEbb@Base 0.14.0
 _ZN6build29scheduler8allocateEm@Base 0.14.0
 _ZN6build29scheduler8shutdownEv@Base 0.14.0
 _ZN6build29scheduler9pop_phaseEv@Base 0.14.0
 _ZN6build29scheduler9wait_idleEv@Base 0.14.0
 _ZN6build29scheduler9wait_implEmRKSt6atomicImENS0_10work_queueE@Base 0.14.0
 _ZN6build29schedulerD1Ev@Base 0.14.0
 _ZN6build29schedulerD2Ev@Base 0.14.0
 _ZN6build29scope_map10insert_outERKN4butl10basic_pathIcNS1_13dir_path_kindIcEEEEb@Base 0.14.0
 _ZN6build29scope_map10insert_srcERNS_5scopeERKN4butl10basic_pathIcNS3_13dir_path_kindIcEEEE@Base 0.14.0
 _ZN6build29scope_map6scopesD1Ev@Base 0.14.0
 _ZN6build29scope_map6scopesD2Ev@Base 0.14.0
 _ZN6build29scope_map8find_outERKN4butl10basic_pathIcNS1_13dir_path_kindIcEEEE@Base 0.14.0
 _ZN6build29terminateE@Base 0.14.0
 _ZN6build29to_streamERSoRKN4butl11vector_viewIKNS_4nameEEEbcb@Base 0.14.0
 _ZN6build29to_streamERSoRKNS_10target_keyESt8optionalINS_16stream_verbosityEE@Base 0.14.0
 _ZN6build29to_streamERSoRKNS_4nameEbcb@Base 0.14.0
 _ZN6build29to_stringB5cxx11ENS_19variable_visibilityE@Base 0.14.0
 _ZN6build29to_stringB5cxx11ERKNS_4nameE@Base 0.14.0
 _ZN6build29to_targetERKNS_5scopeEONS_4nameES4_@Base 0.14.0
 _ZN6build2eqERKNS_5valueES2_@Base 0.14.0
 _ZN6build2gtERKNS_5valueES2_@Base 0.14.0
 _ZN6build2lsERSoNS_12target_stateE@Base 0.14.0
 _ZN6build2lsERSoNS_19variable_visibilityE@Base 0.14.0
 _ZN6build2lsERSoNS_6actionE@Base 0.14.0
 _ZN6build2lsERSoNS_9run_phaseE@Base 0.14.0
 _ZN6build2lsERSoRKN4butl12small_vectorINS_10metaopspecELm1EEE@Base 0.14.0
 _ZN6build2lsERSoRKN4butl12small_vectorINS_4nameELm1EEE@Base 0.14.0
 _ZN6build2lsERSoRKNS_10metaopspecE@Base 0.14.0
 _ZN6build2lsERSoRKNS_10target_keyE@Base 0.14.0
 _ZN6build2lsERSoRKNS_10targetspecE@Base 0.14.0
 _ZN6build2lsERSoRKNS_16prerequisite_keyE@Base 0.14.0
 _ZN6build2lsERSoRKNS_17function_overloadE@Base 0.14.0
 _ZN6build2lsERSoRKNS_6opspecE@Base 0.14.0
 _ZN6build2lsERSoRKNS_6targetE@Base 0.14.0
 _ZN6build2lsERSoRKNS_9attributeE@Base 0.14.0
 _ZN6build2lsERSoRKSt3mapIN4butl12project_nameENS2_10basic_pathIcNS2_13dir_path_kindIcEEEESt4lessIS3_ESaISt4pairIKS3_S7_EEE@Base 0.14.0
 _ZN6build2lsERSoRKSt4pairIPKNS_3exeENS_11import_kindEE@Base 0.14.0
 _ZN6build2ltERKNS_5valueES2_@Base 0.14.0
 (optional=templinst)_ZN9__gnu_cxx12__to_xstringINSt7__cxx1112basic_stringIcSt11char_traitsIcESaIcEEEcEET_PFiPT0_mPKS8_P13__va_list_tagEmSB_z@Base 0.14.0
 (optional=templinst)_ZN9__gnu_cxx6__stoaImmcJiEEET0_PFT_PKT1_PPS3_DpT2_EPKcS5_PmS9_@Base 0.14.0
 (optional=templinst)_ZNK4butl10basic_pathIcNS_13any_path_kindIcEEE12try_relativeES3_@Base 0.14.0
 (optional=templinst)_ZNK4butl10basic_pathIcNS_13any_path_kindIcEEE3subERKS3_@Base 0.14.0
 (optional=templinst)_ZNK4butl10basic_pathIcNS_13any_path_kindIcEEE4baseEv@Base 0.14.0
 (optional=templinst)_ZNK4butl10basic_pathIcNS_13any_path_kindIcEEE4leafERKS3_@Base 0.14.0
 (optional=templinst)_ZNK4butl10basic_pathIcNS_13any_path_kindIcEEE4leafEv@Base 0.14.0
 (optional=templinst)_ZNK4butl10basic_pathIcNS_13any_path_kindIcEEE9directoryEv@Base 0.14.0
 (optional=templinst)_ZNK4butl10basic_pathIcNS_13dir_path_kindIcEEE12try_relativeES3_@Base 0.14.0
 (optional=templinst)_ZNK4butl10basic_pathIcNS_13dir_path_kindIcEEE14root_directoryEv@Base 0.14.0
 (optional=templinst)_ZNK4butl10basic_pathIcNS_13dir_path_kindIcEEE3subERKS3_@Base 0.14.0
 (optional=templinst)_ZNK4butl10basic_pathIcNS_13dir_path_kindIcEEE4leafERKS3_@Base 0.14.0
 (optional=templinst)_ZNK4butl10basic_pathIcNS_13dir_path_kindIcEEE4leafEv@Base 0.14.0
 (optional=templinst)_ZNK4butl10basic_pathIcNS_13dir_path_kindIcEEE6simpleEv@Base 0.14.0
 (optional=templinst)_ZNK4butl10basic_pathIcNS_13dir_path_kindIcEEE8relativeES3_@Base 0.14.0
 (optional=templinst)_ZNK4butl10basic_pathIcNS_13dir_path_kindIcEEE9directoryEv@Base 0.14.0
 _ZNK4butl12project_name8variableB5cxx11Ev@Base 0.14.0
 _ZNK4butl13diag_prologueIN6build222location_prologue_baseEElsIA10_cEENS_11diag_recordERKT_@Base 0.14.0
 _ZNK4butl13diag_prologueIN6build222location_prologue_baseEElsIA12_cEENS_11diag_recordERKT_@Base 0.14.0
 _ZNK4butl13diag_prologueIN6build222location_prologue_baseEElsIA15_cEENS_11diag_recordERKT_@Base 0.14.0
 _ZNK4butl13diag_prologueIN6build222location_prologue_baseEElsIA16_cEENS_11diag_recordERKT_@Base 0.14.0
 _ZNK4butl13diag_prologueIN6build222location_prologue_baseEElsIA18_cEENS_11diag_recordERKT_@Base 0.14.0
 _ZNK4butl13diag_prologueIN6build222location_prologue_baseEElsIA19_cEENS_11diag_recordERKT_@Base 0.14.0
 _ZNK4butl13diag_prologueIN6build222location_prologue_baseEElsIA20_cEENS_11diag_recordERKT_@Base 0.14.0
 _ZNK4butl13diag_prologueIN6build222location_prologue_baseEElsIA21_cEENS_11diag_recordERKT_@Base 0.14.0
 _ZNK4butl13diag_prologueIN6build222location_prologue_baseEElsIA22_cEENS_11diag_recordERKT_@Base 0.14.0
 _ZNK4butl13diag_prologueIN6build222location_prologue_baseEElsIA23_cEENS_11diag_recordERKT_@Base 0.14.0
 _ZNK4butl13diag_prologueIN6build222location_prologue_baseEElsIA24_cEENS_11diag_recordERKT_@Base 0.14.0
 _ZNK4butl13diag_prologueIN6build222location_prologue_baseEElsIA25_cEENS_11diag_recordERKT_@Base 0.14.0
 _ZNK4butl13diag_prologueIN6build222location_prologue_baseEElsIA26_cEENS_11diag_recordERKT_@Base 0.14.0
 _ZNK4butl13diag_prologueIN6build222location_prologue_baseEElsIA27_cEENS_11diag_recordERKT_@Base 0.14.0
 _ZNK4butl13diag_prologueIN6build222location_prologue_baseEElsIA28_cEENS_11diag_recordERKT_@Base 0.14.0
 _ZNK4butl13diag_prologueIN6build222location_prologue_baseEElsIA29_cEENS_11diag_recordERKT_@Base 0.14.0
 _ZNK4butl13diag_prologueIN6build222location_prologue_baseEElsIA32_cEENS_11diag_recordERKT_@Base 0.14.0
 _ZNK4butl13diag_prologueIN6build222location_prologue_baseEElsIA33_cEENS_11diag_recordERKT_@Base 0.14.0
 _ZNK4butl13diag_prologueIN6build222location_prologue_baseEElsIA34_cEENS_11diag_recordERKT_@Base 0.14.0
 _ZNK4butl13diag_prologueIN6build222location_prologue_baseEElsIA36_cEENS_11diag_recordERKT_@Base 0.14.0
 _ZNK4butl13diag_prologueIN6build222location_prologue_baseEElsIA37_cEENS_11diag_recordERKT_@Base 0.14.0
 _ZNK4butl13diag_prologueIN6build222location_prologue_baseEElsIA38_cEENS_11diag_recordERKT_@Base 0.14.0
 _ZNK4butl13diag_prologueIN6build222location_prologue_baseEElsIA39_cEENS_11diag_recordERKT_@Base 0.14.0
 _ZNK4butl13diag_prologueIN6build222location_prologue_baseEElsIA40_cEENS_11diag_recordERKT_@Base 0.14.0
 _ZNK4butl13diag_prologueIN6build222location_prologue_baseEElsIA41_cEENS_11diag_recordERKT_@Base 0.14.0
 _ZNK4butl13diag_prologueIN6build222location_prologue_baseEElsIA45_cEENS_11diag_recordERKT_@Base 0.14.0
 _ZNK4butl13diag_prologueIN6build222location_prologue_baseEElsIA54_cEENS_11diag_recordERKT_@Base 0.14.0
 _ZNK4butl13diag_prologueIN6build222location_prologue_baseEElsIA6_cEENS_11diag_recordERKT_@Base 0.14.0
 _ZNK4butl13diag_prologueIN6build222location_prologue_baseEElsIA9_cEENS_11diag_recordERKT_@Base 0.14.0
 (optional=templinst)_ZNK4butl13diag_prologueIN6build222location_prologue_baseEElsINS1_5tokenEEENS_11diag_recordERKT_@Base 0.14.0
 (optional=templinst)_ZNK4butl13diag_prologueIN6build222location_prologue_baseEElsINS1_6script9line_typeEEENS_11diag_recordERKT_@Base 0.14.0
 (optional=templinst)_ZNK4butl13diag_prologueIN6build222location_prologue_baseEElsINSt7__cxx1112basic_stringIcSt11char_traitsIcESaIcEEEEENS_11diag_recordERKT_@Base 0.14.0
 (optional=templinst)_ZNK4butl13diag_prologueIN6build222location_prologue_baseEElsISt16invalid_argumentEENS_11diag_recordERKT_@Base 0.14.0
 (optional=templinst)_ZNK4butl17prefix_map_commonISt3mapINS_10basic_pathIcNS_13dir_path_kindIcEEEEN6build29scope_map6scopesENS_14compare_prefixIS5_EESaISt4pairIKS5_S8_EEEE8find_supERSC_@Base 0.14.0
 (optional=templinst)_ZNK4butl17prefix_map_commonISt3mapINSt7__cxx1112basic_stringIcSt11char_traitsIcESaIcEEESt17reference_wrapperIKN6build24ruleEENS_14compare_prefixIS7_EESaISt4pairIKS7_SC_EEEE8find_subERSG_@Base 0.14.0
 (optional=templinst)_ZNK4butl17prefix_map_commonISt3mapISt17reference_wrapperIKN6build28variableEENS3_12variable_map10value_dataENS_14compare_prefixIS6_EESaISt4pairIKS6_S8_EEEE8find_subERSC_@Base 0.14.0
 _ZNK4butl9diag_markIN6build214fail_mark_baseEElsIA10_cEENS_11diag_recordERKT_@Base 0.14.0
 _ZNK4butl9diag_markIN6build214fail_mark_baseEElsIA16_cEENS_11diag_recordERKT_@Base 0.14.0
 _ZNK4butl9diag_markIN6build214fail_mark_baseEElsIA17_cEENS_11diag_recordERKT_@Base 0.14.0
 _ZNK4butl9diag_markIN6build214fail_mark_baseEElsIA18_cEENS_11diag_recordERKT_@Base 0.14.0
 _ZNK4butl9diag_markIN6build214fail_mark_baseEElsIA19_cEENS_11diag_recordERKT_@Base 0.14.0
 _ZNK4butl9diag_markIN6build214fail_mark_baseEElsIA20_cEENS_11diag_recordERKT_@Base 0.14.0
 _ZNK4butl9diag_markIN6build214fail_mark_baseEElsIA21_cEENS_11diag_recordERKT_@Base 0.14.0
 _ZNK4butl9diag_markIN6build214fail_mark_baseEElsIA23_cEENS_11diag_recordERKT_@Base 0.14.0
 _ZNK4butl9diag_markIN6build214fail_mark_baseEElsIA24_cEENS_11diag_recordERKT_@Base 0.14.0
 _ZNK4butl9diag_markIN6build214fail_mark_baseEElsIA26_cEENS_11diag_recordERKT_@Base 0.14.0
 _ZNK4butl9diag_markIN6build214fail_mark_baseEElsIA28_cEENS_11diag_recordERKT_@Base 0.14.0
 _ZNK4butl9diag_markIN6build214fail_mark_baseEElsIA29_cEENS_11diag_recordERKT_@Base 0.14.0
 _ZNK4butl9diag_markIN6build214fail_mark_baseEElsIA2_cEENS_11diag_recordERKT_@Base 0.14.0
 _ZNK4butl9diag_markIN6build214fail_mark_baseEElsIA30_cEENS_11diag_recordERKT_@Base 0.14.0
 _ZNK4butl9diag_markIN6build214fail_mark_baseEElsIA32_cEENS_11diag_recordERKT_@Base 0.14.0
 _ZNK4butl9diag_markIN6build214fail_mark_baseEElsIA33_cEENS_11diag_recordERKT_@Base 0.14.0
 _ZNK4butl9diag_markIN6build214fail_mark_baseEElsIA44_cEENS_11diag_recordERKT_@Base 0.14.0
 _ZNK4butl9diag_markIN6build214fail_mark_baseEElsIA45_cEENS_11diag_recordERKT_@Base 0.14.0
 _ZNK4butl9diag_markIN6build214fail_mark_baseEElsIA8_cEENS_11diag_recordERKT_@Base 0.14.0
 _ZNK4butl9diag_markIN6build215basic_mark_baseEElsIA10_cEENS_11diag_recordERKT_@Base 0.14.0
 _ZNK4butl9diag_markIN6build215basic_mark_baseEElsIA11_cEENS_11diag_recordERKT_@Base 0.14.0
 _ZNK4butl9diag_markIN6build215basic_mark_baseEElsIA19_cEENS_11diag_recordERKT_@Base 0.14.0
 _ZNK4butl9diag_markIN6build215basic_mark_baseEElsIA4_cEENS_11diag_recordERKT_@Base 0.14.0
 _ZNK4butl9diag_markIN6build215basic_mark_baseEElsIA7_cEENS_11diag_recordERKT_@Base 0.14.0
 _ZNK4butl9diag_markIN6build215trace_mark_baseEElsIA11_cEENS_11diag_recordERKT_@Base 0.14.0
 _ZNK4butl9diag_markIN6build215trace_mark_baseEElsIA12_cEENS_11diag_recordERKT_@Base 0.14.0
 (optional=templinst)_ZNK4butl9diag_markIN6build215trace_mark_baseEElsINSt7__cxx1112basic_stringIcSt11char_traitsIcESaIcEEEEENS_11diag_recordERKT_@Base 0.14.0
 _ZNK6build210adhoc_rule15dump_attributesERSo@Base 0.14.0
 _ZNK6build210adhoc_rule16reverse_fallbackENS_6actionERKNS_11target_typeE@Base 0.14.0
 _ZNK6build210adhoc_rule5matchENS_6actionERNS_6targetERKNSt7__cxx1112basic_stringIcSt11char_traitsIcESaIcEEERNS_11match_extraE@Base 0.14.0
 _ZNK6build210alias_rule5applyENS_6actionERNS_6targetE@Base 0.14.0
 _ZNK6build210alias_rule5matchENS_6actionERNS_6targetERKNSt7__cxx1112basic_stringIcSt11char_traitsIcESaIcEEE@Base 0.14.0
 _ZNK6build210fsdir_rule5applyENS_6actionERNS_6targetE@Base 0.14.0
 _ZNK6build210fsdir_rule5matchENS_6actionERNS_6targetERKNSt7__cxx1112basic_stringIcSt11char_traitsIcESaIcEEE@Base 0.14.0
 _ZNK6build210target_key7as_nameERN4butl12small_vectorINS_4nameELm1EEE@Base 0.14.0
 _ZNK6build210target_set4findERKNS_10target_keyERN4butl9diag_markINS_15trace_mark_baseEEE@Base 0.14.0
 _ZNK6build211cxx_rule_v15matchENS_6actionERNS_6targetERKNSt7__cxx1112basic_stringIcSt11char_traitsIcESaIcEEE@Base 0.14.0
 _ZNK6build211simple_rule5applyENS_6actionERNS_6targetERNS_11match_extraE@Base 0.14.0
 _ZNK6build211simple_rule5matchENS_6actionERNS_6targetERKNSt7__cxx1112basic_stringIcSt11char_traitsIcESaIcEEERNS_11match_extraE@Base 0.14.0
 _ZNK6build211target_type4is_aEPKc@Base 0.14.0
 _ZNK6build211target_type9is_a_baseERKS0_@Base 0.14.0
 _ZNK6build212function_map4callEPKNS_5scopeERKNSt7__cxx1112basic_stringIcSt11char_traitsIcESaIcEEEN4butl11vector_viewINS_5valueEEERKNS_8locationEb@Base 0.14.0
 _ZNK6build212function_map7definedERKNSt7__cxx1112basic_stringIcSt11char_traitsIcESaIcEEE@Base 0.14.0
 _ZNK6build212mtime_target5mtimeEv@Base 0.14.0
 _ZNK6build212prerequisite7belongsERKNS_6targetE@Base 0.14.0
 _ZNK6build212variable_map6lookupERKNS_8variableEb@Base 0.14.0
 _ZNK6build212variable_mapixEPKNS_8variableE@Base 0.14.0
 _ZNK6build212variable_mapixERKNSt7__cxx1112basic_stringIcSt11char_traitsIcESaIcEEE@Base 0.14.0
 _ZNK6build213variable_pool6updateERNS_8variableEPKNS_10value_typeEPKNS_19variable_visibilityEPKb@Base 0.14.0
 _ZNK6build214adhoc_cxx_rule5applyENS_6actionERNS_6targetERNS_11match_extraE@Base 0.14.0
 _ZNK6build214adhoc_cxx_rule5matchENS_6actionERNS_6targetERKNSt7__cxx1112basic_stringIcSt11char_traitsIcESaIcEEERNS_11match_extraE@Base 0.14.0
 _ZNK6build214adhoc_cxx_rule9dump_textERSoRNSt7__cxx1112basic_stringIcSt11char_traitsIcESaIcEEE@Base 0.14.0
 (optional=templinst)_ZNK6build215basic_mark_baseclIN4butl12char_scannerINS2_14utf8_validatorELm2EE5xcharEEENS2_13diag_prologueINS_22location_prologue_baseEEERKT_@Base 0.14.0
 (optional=templinst)_ZNK6build215basic_mark_baseclINS_5tokenEEEN4butl13diag_prologueINS_22location_prologue_baseEEERKT_@Base 0.14.0
 _ZNK6build215function_family6insertENSt7__cxx1112basic_stringIcSt11char_traitsIcESaIcEEEb@Base 0.14.0
 _ZNK6build215function_familyixENSt7__cxx1112basic_stringIcSt11char_traitsIcESaIcEEE@Base 0.14.0
 _ZNK6build217variable_type_map4findERKNS_10target_keyERKNS_8variableERSt8optionalINSt7__cxx1112basic_stringIcSt11char_traitsIcESaIcEEEE@Base 0.14.0
 _ZNK6build218adhoc_rule_pattern13fallback_rule5applyENS_6actionERNS_6targetERNS_11match_extraE@Base 0.14.0
 _ZNK6build218adhoc_rule_pattern13fallback_rule5matchENS_6actionERNS_6targetERKNSt7__cxx1112basic_stringIcSt11char_traitsIcESaIcEEERNS_11match_extraE@Base 0.14.0
 _ZNK6build220simple_prologue_baseclERKN4butl11diag_recordE@Base 0.14.0
 _ZNK6build222adhoc_buildscript_rule14default_actionENS_6actionERKNS_6targetERKSt8optionalINSt6chrono10time_pointINS6_3_V212system_clockENS6_8durationIlSt5ratioILl1ELl1000000000EEEEEEE@Base 0.14.0
 _ZNK6build222adhoc_buildscript_rule15dump_attributesERSo@Base 0.14.0
 _ZNK6build222adhoc_buildscript_rule16reverse_fallbackENS_6actionERKNS_11target_typeE@Base 0.14.0
 _ZNK6build222adhoc_buildscript_rule19perform_update_fileENS_6actionERKNS_6targetE@Base 0.14.0
 _ZNK6build222adhoc_buildscript_rule5applyENS_6actionERNS_6targetERNS_11match_extraE@Base 0.14.0
 _ZNK6build222adhoc_buildscript_rule5applyENS_6actionERNS_6targetERNS_11match_extraERKSt8optionalINSt6chrono10time_pointINS7_3_V212system_clockENS7_8durationIlSt5ratioILl1ELl1000000000EEEEEEE@Base 0.14.0
 _ZNK6build222adhoc_buildscript_rule9dump_textERSoRNSt7__cxx1112basic_stringIcSt11char_traitsIcESaIcEEE@Base 0.14.0
 _ZNK6build222location_prologue_baseclERKN4butl11diag_recordE@Base 0.14.0
 _ZNK6build224adhoc_rule_regex_pattern19apply_adhoc_membersENS_6actionERNS_6targetERNS_11match_extraE@Base 0.14.0
 _ZNK6build224adhoc_rule_regex_pattern19apply_prerequisitesENS_6actionERNS_6targetERNS_11match_extraE@Base 0.14.0
 _ZNK6build224adhoc_rule_regex_pattern4dumpERSo@Base 0.14.0
 _ZNK6build224adhoc_rule_regex_pattern5matchENS_6actionERNS_6targetERKNSt7__cxx1112basic_stringIcSt11char_traitsIcESaIcEEERNS_11match_extraE@Base 0.14.0
 _ZNK6build23dir12dynamic_typeEv@Base 0.14.0
 _ZNK6build23doc12dynamic_typeEv@Base 0.14.0
 _ZNK6build23exe12dynamic_typeEv@Base 0.14.0
 _ZNK6build23exe12process_pathEv@Base 0.14.0
 (optional=templinst)_ZNK6build23exe15lookup_metadataINSt7__cxx1112basic_stringIcSt11char_traitsIcESaIcEEEEEPKT_PKc@Base 0.14.0
 (optional=templinst)_ZNK6build23exe15lookup_metadataISt6vectorINSt7__cxx1112basic_stringIcSt11char_traitsIcESaIcEEESaIS8_EEEEPKT_PKc@Base 0.14.0
 _ZNK6build23man12dynamic_typeEv@Base 0.14.0
 _ZNK6build24dist4rule5applyENS_6actionERNS_6targetE@Base 0.14.0
 _ZNK6build24dist4rule5matchENS_6actionERNS_6targetERKNSt7__cxx1112basic_stringIcSt11char_traitsIcESaIcEEE@Base 0.14.0
 _ZNK6build24file12dynamic_typeEv@Base 0.14.0
 _ZNK6build24man112dynamic_typeEv@Base 0.14.0
 _ZNK6build24name7compareERKS0_@Base 0.14.0
 _ZNK6build24test10testscript12dynamic_typeEv@Base 0.14.0
 _ZNK6build24test4rule12perform_testENS_6actionERKNS_6targetEm@Base 0.14.0
 _ZNK6build24test4rule14perform_scriptENS_6actionERKNS_6targetEm@Base 0.14.0
 _ZNK6build24test4rule5applyENS_6actionERNS_6targetE@Base 0.14.0
 _ZNK6build24test4rule5matchENS_6actionERNS_6targetERKNSt7__cxx1112basic_stringIcSt11char_traitsIcESaIcEEE@Base 0.14.0
 _ZNK6build24test6common18operation_deadlineEv@Base 0.14.0
 _ZNK6build24test6common4passERKNS_6targetE@Base 0.14.0
 _ZNK6build24test6common4testERKNS_6targetE@Base 0.14.0
 _ZNK6build24test6common4testERKNS_6targetERKN4butl10basic_pathIcNS5_13any_path_kindIcEEEE@Base 0.14.0
 _ZNK6build24test6script10scope_base7test_ttEv@Base 0.14.0
 _ZNK6build24test6script10scope_base7wd_pathEv@Base 0.14.0
 _ZNK6build24test6script14default_runner4testERNS1_5scopeE@Base 0.14.0
 _ZNK6build24test6script4test5emptyEv@Base 0.14.0
 _ZNK6build24test6script5group5emptyEv@Base 0.14.0
 _ZNK6build24test6script5scope19lookup_in_buildfileERKNSt7__cxx1112basic_stringIcSt11char_traitsIcESaIcEEEb@Base 0.14.0
 _ZNK6build24test6script5scope6lookupERKNS_8variableE@Base 0.14.0
 _ZNK6build25alias12dynamic_typeEv@Base 0.14.0
 _ZNK6build25build6script11environment19lookup_in_buildfileERKNSt7__cxx1112basic_stringIcSt11char_traitsIcESaIcEEE@Base 0.14.0
 _ZNK6build25build6script11environment6lookupERKNS_8variableE@Base 0.14.0
 _ZNK6build25build6script11environment6lookupERKNSt7__cxx1112basic_stringIcSt11char_traitsIcESaIcEEE@Base 0.14.0
 _ZNK6build25fsdir12dynamic_typeEv@Base 0.14.0
 _ZNK6build25legal12dynamic_typeEv@Base 0.14.0
 _ZNK6build25scope15find_target_keyERN4butl12small_vectorINS_4nameELm1EEERKNS_8locationE@Base 0.14.0
 _ZNK6build25scope15lookup_originalERKNS_8variableEPKNS_10target_keyES6_m@Base 0.14.0
 _ZNK6build25scope16find_target_typeB5cxx11ERNS_4nameERKNS_8locationEPKNS_11target_typeE@Base 0.14.0
 _ZNK6build25scope16find_target_typeB5cxx11ERNS_4nameES2_RKNS_8locationE@Base 0.14.0
 _ZNK6build25scope16find_target_typeERKNSt7__cxx1112basic_stringIcSt11char_traitsIcESaIcEEE@Base 0.14.0
 _ZNK6build25scope20lookup_override_infoERKNS_8variableESt4pairINS_6lookupEmEbb@Base 0.14.0
 _ZNK6build25scope21find_prerequisite_keyERN4butl12small_vectorINS_4nameELm1EEERKNS_8locationE@Base 0.14.0
 _ZNK6build25scope22find_prerequisite_typeB5cxx11ERNS_4nameES2_RKNS_8locationE@Base 0.14.0
 _ZNK6build25scopeixERKNSt7__cxx1112basic_stringIcSt11char_traitsIcESaIcEEE@Base 0.14.0
 _ZNK6build25value5emptyEv@Base 0.14.0
 _ZNK6build26parser14compare_valuesENS_10token_typeERNS_5valueES3_RKNS_8locationE@Base 0.14.0
 _ZNK6build26script16redirect_aliases7resolveENS0_10token_typeE@Base 0.14.0
 _ZNK6build26script3cli11eos_reached4whatEv@Base 0.14.0
 _ZNK6build26script3cli11eos_reached5printERSo@Base 0.14.0
 _ZNK6build26script3cli13invalid_value4whatEv@Base 0.14.0
 _ZNK6build26script3cli13invalid_value5printERSo@Base 0.14.0
 _ZNK6build26script3cli13missing_value4whatEv@Base 0.14.0
 _ZNK6build26script3cli13missing_value5printERSo@Base 0.14.0
 _ZNK6build26script3cli14unknown_option4whatEv@Base 0.14.0
 _ZNK6build26script3cli14unknown_option5printERSo@Base 0.14.0
 _ZNK6build26script3cli16unknown_argument4whatEv@Base 0.14.0
 _ZNK6build26script3cli16unknown_argument5printERSo@Base 0.14.0
 _ZNK6build26script6parser6quotedEv@Base 0.14.0
 _ZNK6build26target10base_scopeEv@Base 0.14.0
 _ZNK6build26target10root_scopeEv@Base 0.14.0
 _ZNK6build26target13group_membersENS_6actionE@Base 0.14.0
 _ZNK6build26target15lookup_originalERKNS_8variableEb@Base 0.14.0
 _ZNK6build26target7opstate15lookup_originalERKNS_8variableEb@Base 0.14.0
 _ZNK6build26targetixERKNSt7__cxx1112basic_stringIcSt11char_traitsIcESaIcEEE@Base 0.14.0
 _ZNK6build27install10alias_rule5applyENS_6actionERNS_6targetE@Base 0.14.0
 _ZNK6build27install10alias_rule5matchENS_6actionERNS_6targetERKNSt7__cxx1112basic_stringIcSt11char_traitsIcESaIcEEE@Base 0.14.0
 _ZNK6build27install10alias_rule6filterENS_6actionERKNS_6targetERKNS_12prerequisiteE@Base 0.14.0
 _ZNK6build27install10alias_rule6filterENS_6actionERKNS_6targetERNS_26prerequisite_members_rangeINS_19group_prerequisitesEE8iteratorE@Base 0.14.0
 _ZNK6build27install10fsdir_rule5applyENS_6actionERNS_6targetE@Base 0.14.0
 _ZNK6build27install10fsdir_rule5matchENS_6actionERNS_6targetERKNSt7__cxx1112basic_stringIcSt11char_traitsIcESaIcEEE@Base 0.14.0
 _ZNK6build27install10group_rule5applyENS_6actionERNS_6targetE@Base 0.14.0
 _ZNK6build27install10group_rule5matchENS_6actionERNS_6targetERKNSt7__cxx1112basic_stringIcSt11char_traitsIcESaIcEEE@Base 0.14.0
 _ZNK6build27install10group_rule6filterENS_6actionERKNS_6targetES5_@Base 0.14.0
 _ZNK6build27install9file_rule11install_preERKNS_4fileERKNS0_11install_dirE@Base 0.14.0
 _ZNK6build27install9file_rule12install_postERKNS_4fileERKNS0_11install_dirEON4butl7auto_rmINS8_10basic_pathIcNS8_13any_path_kindIcEEEEEE@Base 0.14.0
 _ZNK6build27install9file_rule13install_extraERKNS_4fileERKNS0_11install_dirE@Base 0.14.0
 _ZNK6build27install9file_rule15perform_installENS_6actionERKNS_6targetE@Base 0.14.0
 _ZNK6build27install9file_rule15uninstall_extraERKNS_4fileERKNS0_11install_dirE@Base 0.14.0
 _ZNK6build27install9file_rule17perform_uninstallENS_6actionERKNS_6targetE@Base 0.14.0
 _ZNK6build27install9file_rule5applyENS_6actionERNS_6targetE@Base 0.14.0
 _ZNK6build27install9file_rule5matchENS_6actionERNS_6targetERKNSt7__cxx1112basic_stringIcSt11char_traitsIcESaIcEEE@Base 0.14.0
 _ZNK6build27install9file_rule6filterENS_6actionERKNS_6targetERKNS_12prerequisiteE@Base 0.14.0
 _ZNK6build27install9file_rule6filterENS_6actionERKNS_6targetERNS_26prerequisite_members_rangeINS_19group_prerequisitesEE8iteratorE@Base 0.14.0
 _ZNK6build28manifest12dynamic_typeEv@Base 0.14.0
 _ZNK6build28rule_mapixEh@Base 0.14.0
 _ZNK6build29buildfile12dynamic_typeEv@Base 0.14.0
 _ZNK6build29file_rule5applyENS_6actionERNS_6targetE@Base 0.14.0
 _ZNK6build29file_rule5matchENS_6actionERNS_6targetERKNSt7__cxx1112basic_stringIcSt11char_traitsIcESaIcEEE@Base 0.14.0
 _ZNK6build29noop_rule5applyENS_6actionERNS_6targetE@Base 0.14.0
 _ZNK6build29noop_rule5matchENS_6actionERNS_6targetERKNSt7__cxx1112basic_stringIcSt11char_traitsIcESaIcEEE@Base 0.14.0
 _ZNK6build29scheduler10shard_sizeEmm@Base 0.14.0
 _ZNK6build29scope_map4findERKN4butl10basic_pathIcNS1_13dir_path_kindIcEEEE@Base 0.14.0
 (optional=templinst)_ZNKR4butl10basic_pathIcNS_13dir_path_kindIcEEE14representationB5cxx11Ev@Base 0.14.0
 (optional=templinst)_ZNKSt10_HashtableIN4butl10basic_pathIcNS0_13any_path_kindIcEEEES4_SaIS4_ENSt8__detail9_IdentityESt8equal_toIS4_ESt4hashIS4_ENS6_18_Mod_range_hashingENS6_20_Default_ranged_hashENS6_20_Prime_rehash_policyENS6_17_Hashtable_traitsILb0ELb1ELb1EEEE19_M_find_before_nodeEmRKS4_m@Base 0.14.0
 (optional=templinst)_ZNKSt10_HashtableIN4butl7map_keyINSt7__cxx1112basic_stringIcSt11char_traitsIcESaIcEEEEESt4pairIKS8_N6build28variableEESaISD_ENSt8__detail10_Select1stESt8equal_toIS8_ESt4hashIS8_ENSF_18_Mod_range_hashingENSF_20_Default_ranged_hashENSF_20_Prime_rehash_policyENSF_17_Hashtable_traitsILb0ELb0ELb1EEEE4findERSA_@Base 0.14.0
 (optional=templinst)_ZNKSt10_HashtableIN4butl7map_keyINSt7__cxx1112basic_stringIcSt11char_traitsIcESaIcEEEEESt4pairIKS8_NS0_20string_table_elementIhN6build219meta_operation_dataEEEESaISF_ENSt8__detail10_Select1stESt8equal_toIS8_ESt4hashIS8_ENSH_18_Mod_range_hashingENSH_20_Default_ranged_hashENSH_20_Prime_rehash_policyENSH_17_Hashtable_traitsILb0ELb0ELb1EEEE4findERSA_@Base 0.14.0
 (optional=templinst)_ZNKSt10_HashtableIN4butl7map_keyINSt7__cxx1112basic_stringIcSt11char_traitsIcESaIcEEEEESt4pairIKS8_NS0_20string_table_elementIhS7_EEESaISD_ENSt8__detail10_Select1stESt8equal_toIS8_ESt4hashIS8_ENSF_18_Mod_range_hashingENSF_20_Default_ranged_hashENSF_20_Prime_rehash_policyENSF_17_Hashtable_traitsILb0ELb0ELb1EEEE4findERSA_@Base 0.14.0
 (optional=templinst)_ZNKSt10_HashtableIN6build210target_keyESt4pairIKS1_St10unique_ptrINS0_6targetESt14default_deleteIS5_EEESaIS9_ENSt8__detail10_Select1stESt8equal_toIS1_ESt4hashIS1_ENSB_18_Mod_range_hashingENSB_20_Default_ranged_hashENSB_20_Prime_rehash_policyENSB_17_Hashtable_traitsILb0ELb0ELb1EEEE19_M_find_before_nodeEmRS3_m@Base 0.14.0
 (optional=templinst)_ZNKSt10_HashtableINSt7__cxx1112basic_stringIcSt11char_traitsIcESaIcEEES5_SaIS5_ENSt8__detail9_IdentityESt8equal_toIS5_ESt4hashIS5_ENS7_18_Mod_range_hashingENS7_20_Default_ranged_hashENS7_20_Prime_rehash_policyENS7_17_Hashtable_traitsILb1ELb1ELb1EEEE19_M_find_before_nodeEmRKS5_m@Base 0.14.0
 (optional=templinst)_ZNKSt5ctypeIN6build26script5regex9line_charEE2isEPKS3_S6_Pt@Base 0.14.0
 (optional=templinst)_ZNKSt5ctypeIN6build26script5regex9line_charEE5widenEPKcS6_PS3_@Base 0.14.0
 (optional=templinst)_ZNKSt5ctypeIN6build26script5regex9line_charEE6narrowEPKS3_S6_cPc@Base 0.14.0
 (optional=templinst)_ZNKSt5ctypeIN6build26script5regex9line_charEE7scan_isEtPKS3_S6_@Base 0.14.0
 (optional=templinst)_ZNKSt5ctypeIN6build26script5regex9line_charEE8scan_notEtPKS3_S6_@Base 0.14.0
 (optional=templinst)_ZNKSt5ctypeIcE8do_widenEc@Base 0.14.0
 (optional=templinst)_ZNKSt5ctypeIcE9do_narrowEcc@Base 0.14.0
 (optional=templinst)_ZNKSt7__cxx1112basic_stringIcSt11char_traitsIcESaIcEE13find_first_ofEPKcmm@Base 0.14.0
 (optional=templinst)_ZNKSt7__cxx1112basic_stringIcSt11char_traitsIcESaIcEE4findEPKcmm@Base 0.14.0
 (optional=templinst)_ZNKSt7__cxx1112basic_stringIcSt11char_traitsIcESaIcEE4findEcm@Base 0.14.0
 (optional=templinst)_ZNKSt7__cxx1112basic_stringIcSt11char_traitsIcESaIcEE7compareEPKc@Base 0.14.0
 (optional=templinst)_ZNKSt7__cxx1112basic_stringIcSt11char_traitsIcESaIcEE7compareERKS4_@Base 0.14.0
 (optional=templinst)_ZNKSt7__cxx1112basic_stringIcSt11char_traitsIcESaIcEE7compareEmmPKc@Base 0.14.0
 (optional=templinst)_ZNKSt7__cxx1112basic_stringIcSt11char_traitsIcESaIcEE7compareEmmRKS4_@Base 0.14.0
 (optional=templinst)_ZNKSt7__cxx1112regex_traitsIN6build26script5regex9line_charEE5valueES4_i@Base 0.14.0
 (optional=templinst)_ZNKSt7__cxx1112regex_traitsIcE16lookup_classnameIPKcEENS1_10_RegexMaskET_S6_b@Base 0.14.0
 (optional=templinst)_ZNKSt7__cxx1112regex_traitsIcE17transform_primaryIPcEENS_12basic_stringIcSt11char_traitsIcESaIcEEET_S9_@Base 0.14.0
 (optional=templinst)_ZNKSt7__cxx1112regex_traitsIcE18lookup_collatenameIPKcEENS_12basic_stringIcSt11char_traitsIcESaIcEEET_SA_@Base 0.14.0
 (optional=templinst)_ZNKSt7__cxx1112regex_traitsIcE5valueEci@Base 0.14.0
 (optional=templinst)_ZNKSt7__cxx1112regex_traitsIcE7isctypeEcNS1_10_RegexMaskE@Base 0.14.0
 (optional=templinst)_ZNKSt7__cxx1114regex_iteratorIN9__gnu_cxx17__normal_iteratorIPKcNS_12basic_stringIcSt11char_traitsIcESaIcEEEEEcNS_12regex_traitsIcEEEeqERKSD_@Base 0.14.0
 (optional=templinst)_ZNKSt8_Rb_treeIN4butl10basic_pathIcNS0_13dir_path_kindIcEEEESt4pairIKS4_N6build29scope_map6scopesEESt10_Select1stISA_ENS0_14compare_prefixIS4_EESaISA_EE4findERS6_@Base 0.14.0
 (optional=templinst)_ZNKSt8_Rb_treeIN4butl12project_nameESt4pairIKS1_NS0_10basic_pathIcNS0_13dir_path_kindIcEEEEESt10_Select1stIS8_ESt4lessIS1_ESaIS8_EE4findERS3_@Base 0.14.0
 (optional=templinst)_ZNKSt8_Rb_treeINSt7__cxx1112basic_stringIcSt11char_traitsIcESaIcEEESt4pairIKS5_N4butl12builtin_infoEESt10_Select1stISA_ESt4lessIS5_ESaISA_EE4findERS7_@Base 0.14.0
 (optional=templinst)_ZNKSt8_Rb_treeINSt7__cxx1112basic_stringIcSt11char_traitsIcESaIcEEESt4pairIKS5_N6build215target_type_map15target_type_refEESt10_Select1stISB_ESt4lessIS5_ESaISB_EE4findERS7_@Base 0.14.0
 (optional=templinst)_ZNKSt8_Rb_treeINSt7__cxx1112basic_stringIcSt11char_traitsIcESaIcEEESt4pairIKS5_N6build218function_overloadsEESt10_Select1stISA_ESt4lessIS5_ESaISA_EE4findERS7_@Base 0.14.0
 (optional=templinst)_ZNKSt8_Rb_treeINSt7__cxx1112basic_stringIcSt11char_traitsIcESaIcEEESt4pairIKS5_St17reference_wrapperIKN6build211target_typeEEESt10_Select1stISD_ESt4lessIS5_ESaISD_EE4findERS7_@Base 0.14.0
 (optional=templinst)_ZNKSt8__detail9_ExecutorIN9__gnu_cxx17__normal_iteratorIPKN6build26script5regex9line_charENSt7__cxx1112basic_stringIS6_St11char_traitsIS6_ESaIS6_EEEEESaINS9_9sub_matchISF_EEENS9_12regex_traitsIS6_EELb0EE10_M_is_wordES6_@Base 0.14.0
 (optional=templinst)_ZNKSt8__detail9_ExecutorIN9__gnu_cxx17__normal_iteratorIPKN6build26script5regex9line_charENSt7__cxx1112basic_stringIS6_St11char_traitsIS6_ESaIS6_EEEEESaINS9_9sub_matchISF_EEENS9_12regex_traitsIS6_EELb1EE10_M_is_wordES6_@Base 0.14.0
 (optional=templinst)_ZNKSt8functionIFN6build212target_stateENS0_6actionERKNS0_6targetEEE6targetIPS6_EEPKT_v@Base 0.14.0
 (optional=templinst)_ZNSt10_HashtableIN4butl10basic_pathIcNS0_13any_path_kindIcEEEES4_SaIS4_ENSt8__detail9_IdentityESt8equal_toIS4_ESt4hashIS4_ENS6_18_Mod_range_hashingENS6_20_Default_ranged_hashENS6_20_Prime_rehash_policyENS6_17_Hashtable_traitsILb0ELb1ELb1EEEE21_M_insert_unique_nodeEmmPNS6_10_Hash_nodeIS4_Lb0EEEm@Base 0.14.0
 (optional=templinst)_ZNSt10_HashtableIN4butl10basic_pathIcNS0_13any_path_kindIcEEEES4_SaIS4_ENSt8__detail9_IdentityESt8equal_toIS4_ESt4hashIS4_ENS6_18_Mod_range_hashingENS6_20_Default_ranged_hashENS6_20_Prime_rehash_policyENS6_17_Hashtable_traitsILb0ELb1ELb1EEEE9_M_insertIRKS4_NS6_10_AllocNodeISaINS6_10_Hash_nodeIS4_Lb0EEEEEEEESt4pairINS6_14_Node_iteratorIS4_Lb1ELb0EEEbEOT_RKT0_St17integral_constantIbLb1EEm@Base 0.14.0
 (optional=templinst)_ZNSt10_HashtableIN4butl7map_keyINSt7__cxx1112basic_stringIcSt11char_traitsIcESaIcEEEEESt4pairIKS8_N6build28variableEESaISD_ENSt8__detail10_Select1stESt8equal_toIS8_ESt4hashIS8_ENSF_18_Mod_range_hashingENSF_20_Default_ranged_hashENSF_20_Prime_rehash_policyENSF_17_Hashtable_traitsILb0ELb0ELb1EEEE10_M_emplaceIJSD_EEES9_INSF_14_Node_iteratorISD_Lb0ELb0EEEbESt17integral_constantIbLb1EEDpOT_@Base 0.14.0
 (optional=templinst)_ZNSt10_HashtableIN4butl7map_keyINSt7__cxx1112basic_stringIcSt11char_traitsIcESaIcEEEEESt4pairIKS8_N6build28variableEESaISD_ENSt8__detail10_Select1stESt8equal_toIS8_ESt4hashIS8_ENSF_18_Mod_range_hashingENSF_20_Default_ranged_hashENSF_20_Prime_rehash_policyENSF_17_Hashtable_traitsILb0ELb0ELb1EEEE21_M_insert_unique_nodeEmmPNSF_10_Hash_nodeISD_Lb0EEEm@Base 0.14.0
 (optional=templinst)_ZNSt10_HashtableIN4butl7map_keyINSt7__cxx1112basic_stringIcSt11char_traitsIcESaIcEEEEESt4pairIKS8_N6build28variableEESaISD_ENSt8__detail10_Select1stESt8equal_toIS8_ESt4hashIS8_ENSF_18_Mod_range_hashingENSF_20_Default_ranged_hashENSF_20_Prime_rehash_policyENSF_17_Hashtable_traitsILb0ELb0ELb1EEEED1Ev@Base 0.14.0
 (optional=templinst)_ZNSt10_HashtableIN4butl7map_keyINSt7__cxx1112basic_stringIcSt11char_traitsIcESaIcEEEEESt4pairIKS8_N6build28variableEESaISD_ENSt8__detail10_Select1stESt8equal_toIS8_ESt4hashIS8_ENSF_18_Mod_range_hashingENSF_20_Default_ranged_hashENSF_20_Prime_rehash_policyENSF_17_Hashtable_traitsILb0ELb0ELb1EEEED2Ev@Base 0.14.0
 (optional=templinst)_ZNSt10_HashtableIN4butl7map_keyINSt7__cxx1112basic_stringIcSt11char_traitsIcESaIcEEEEESt4pairIKS8_NS0_20string_table_elementIhN6build219meta_operation_dataEEEESaISF_ENSt8__detail10_Select1stESt8equal_toIS8_ESt4hashIS8_ENSH_18_Mod_range_hashingENSH_20_Default_ranged_hashENSH_20_Prime_rehash_policyENSH_17_Hashtable_traitsILb0ELb0ELb1EEEE10_M_emplaceIJS8_SE_EEES9_INSH_14_Node_iteratorISF_Lb0ELb0EEEbESt17integral_constantIbLb1EEDpOT_@Base 0.14.0
 (optional=templinst)_ZNSt10_HashtableIN4butl7map_keyINSt7__cxx1112basic_stringIcSt11char_traitsIcESaIcEEEEESt4pairIKS8_NS0_20string_table_elementIhN6build219meta_operation_dataEEEESaISF_ENSt8__detail10_Select1stESt8equal_toIS8_ESt4hashIS8_ENSH_18_Mod_range_hashingENSH_20_Default_ranged_hashENSH_20_Prime_rehash_policyENSH_17_Hashtable_traitsILb0ELb0ELb1EEEE21_M_insert_unique_nodeEmmPNSH_10_Hash_nodeISF_Lb0EEEm@Base 0.14.0
 (optional=templinst)_ZNSt10_HashtableIN4butl7map_keyINSt7__cxx1112basic_stringIcSt11char_traitsIcESaIcEEEEESt4pairIKS8_NS0_20string_table_elementIhN6build219meta_operation_dataEEEESaISF_ENSt8__detail10_Select1stESt8equal_toIS8_ESt4hashIS8_ENSH_18_Mod_range_hashingENSH_20_Default_ranged_hashENSH_20_Prime_rehash_policyENSH_17_Hashtable_traitsILb0ELb0ELb1EEEE9_M_rehashEmRKm@Base 0.14.0
 (optional=templinst)_ZNSt10_HashtableIN4butl7map_keyINSt7__cxx1112basic_stringIcSt11char_traitsIcESaIcEEEEESt4pairIKS8_NS0_20string_table_elementIhS7_EEESaISD_ENSt8__detail10_Select1stESt8equal_toIS8_ESt4hashIS8_ENSF_18_Mod_range_hashingENSF_20_Default_ranged_hashENSF_20_Prime_rehash_policyENSF_17_Hashtable_traitsILb0ELb0ELb1EEEE10_M_emplaceIJS8_SC_EEES9_INSF_14_Node_iteratorISD_Lb0ELb0EEEbESt17integral_constantIbLb1EEDpOT_@Base 0.14.0
 (optional=templinst)_ZNSt10_HashtableIN4butl7map_keyINSt7__cxx1112basic_stringIcSt11char_traitsIcESaIcEEEEESt4pairIKS8_NS0_20string_table_elementIhS7_EEESaISD_ENSt8__detail10_Select1stESt8equal_toIS8_ESt4hashIS8_ENSF_18_Mod_range_hashingENSF_20_Default_ranged_hashENSF_20_Prime_rehash_policyENSF_17_Hashtable_traitsILb0ELb0ELb1EEEE21_M_insert_unique_nodeEmmPNSF_10_Hash_nodeISD_Lb0EEEm@Base 0.14.0
 (optional=templinst)_ZNSt10_HashtableIN4butl7map_keyINSt7__cxx1112basic_stringIcSt11char_traitsIcESaIcEEEEESt4pairIKS8_NS0_20string_table_elementIhS7_EEESaISD_ENSt8__detail10_Select1stESt8equal_toIS8_ESt4hashIS8_ENSF_18_Mod_range_hashingENSF_20_Default_ranged_hashENSF_20_Prime_rehash_policyENSF_17_Hashtable_traitsILb0ELb0ELb1EEEE5clearEv@Base 0.14.0
 (optional=templinst)_ZNSt10_HashtableIN4butl7map_keyINSt7__cxx1112basic_stringIcSt11char_traitsIcESaIcEEEEESt4pairIKS8_NS0_20string_table_elementIhS7_EEESaISD_ENSt8__detail10_Select1stESt8equal_toIS8_ESt4hashIS8_ENSF_18_Mod_range_hashingENSF_20_Default_ranged_hashENSF_20_Prime_rehash_policyENSF_17_Hashtable_traitsILb0ELb0ELb1EEEE9_M_rehashEmRKm@Base 0.14.0
 (optional=templinst)_ZNSt10_HashtableIN6build210target_keyESt4pairIKS1_St10unique_ptrINS0_6targetESt14default_deleteIS5_EEESaIS9_ENSt8__detail10_Select1stESt8equal_toIS1_ESt4hashIS1_ENSB_18_Mod_range_hashingENSB_20_Default_ranged_hashENSB_20_Prime_rehash_policyENSB_17_Hashtable_traitsILb0ELb0ELb1EEEE10_M_emplaceIJS1_S8_EEES2_INSB_14_Node_iteratorIS9_Lb0ELb0EEEbESt17integral_constantIbLb1EEDpOT_@Base 0.14.0
 (optional=templinst)_ZNSt10_HashtableIN6build210target_keyESt4pairIKS1_St10unique_ptrINS0_6targetESt14default_deleteIS5_EEESaIS9_ENSt8__detail10_Select1stESt8equal_toIS1_ESt4hashIS1_ENSB_18_Mod_range_hashingENSB_20_Default_ranged_hashENSB_20_Prime_rehash_policyENSB_17_Hashtable_traitsILb0ELb0ELb1EEEE21_M_insert_unique_nodeEmmPNSB_10_Hash_nodeIS9_Lb0EEEm@Base 0.14.0
 (optional=templinst)_ZNSt10_HashtableIN6build210target_keyESt4pairIKS1_St10unique_ptrINS0_6targetESt14default_deleteIS5_EEESaIS9_ENSt8__detail10_Select1stESt8equal_toIS1_ESt4hashIS1_ENSB_18_Mod_range_hashingENSB_20_Default_ranged_hashENSB_20_Prime_rehash_policyENSB_17_Hashtable_traitsILb0ELb0ELb1EEEE9_M_rehashEmRKm@Base 0.14.0
 (optional=templinst)_ZNSt10_HashtableINSt7__cxx1112basic_stringIcSt11char_traitsIcESaIcEEES5_SaIS5_ENSt8__detail9_IdentityESt8equal_toIS5_ESt4hashIS5_ENS7_18_Mod_range_hashingENS7_20_Default_ranged_hashENS7_20_Prime_rehash_policyENS7_17_Hashtable_traitsILb1ELb1ELb1EEEE10_M_emplaceIJS5_EEESt4pairINS7_14_Node_iteratorIS5_Lb1ELb1EEEbESt17integral_constantIbLb1EEDpOT_@Base 0.14.0
 (optional=templinst)_ZNSt10_HashtableINSt7__cxx1112basic_stringIcSt11char_traitsIcESaIcEEES5_SaIS5_ENSt8__detail9_IdentityESt8equal_toIS5_ESt4hashIS5_ENS7_18_Mod_range_hashingENS7_20_Default_ranged_hashENS7_20_Prime_rehash_policyENS7_17_Hashtable_traitsILb1ELb1ELb1EEEE21_M_insert_unique_nodeEmmPNS7_10_Hash_nodeIS5_Lb1EEEm@Base 0.14.0
 (optional=templinst)_ZNSt10_HashtableINSt7__cxx1112basic_stringIcSt11char_traitsIcESaIcEEES5_SaIS5_ENSt8__detail9_IdentityESt8equal_toIS5_ESt4hashIS5_ENS7_18_Mod_range_hashingENS7_20_Default_ranged_hashENS7_20_Prime_rehash_policyENS7_17_Hashtable_traitsILb1ELb1ELb1EEEE9_M_rehashEmRKm@Base 0.14.0
 (optional=templinst)_ZNSt10_HashtableINSt7__cxx1112basic_stringIcSt11char_traitsIcESaIcEEES5_SaIS5_ENSt8__detail9_IdentityESt8equal_toIS5_ESt4hashIS5_ENS7_18_Mod_range_hashingENS7_20_Default_ranged_hashENS7_20_Prime_rehash_policyENS7_17_Hashtable_traitsILb1ELb1ELb1EEEED1Ev@Base 0.14.0
 (optional=templinst)_ZNSt10_HashtableINSt7__cxx1112basic_stringIcSt11char_traitsIcESaIcEEES5_SaIS5_ENSt8__detail9_IdentityESt8equal_toIS5_ESt4hashIS5_ENS7_18_Mod_range_hashingENS7_20_Default_ranged_hashENS7_20_Prime_rehash_policyENS7_17_Hashtable_traitsILb1ELb1ELb1EEEED2Ev@Base 0.14.0
 (optional=templinst)_ZNSt10_HashtableINSt7__cxx1112basic_stringIcSt11char_traitsIcESaIcEEESt4pairIKS5_N6build28locationEESaISA_ENSt8__detail10_Select1stESt8equal_toIS5_ESt4hashIS5_ENSC_18_Mod_range_hashingENSC_20_Default_ranged_hashENSC_20_Prime_rehash_policyENSC_17_Hashtable_traitsILb1ELb0ELb1EEEE10_M_emplaceIJS5_S9_EEES6_INSC_14_Node_iteratorISA_Lb0ELb1EEEbESt17integral_constantIbLb1EEDpOT_@Base 0.14.0
 (optional=templinst)_ZNSt10_HashtableINSt7__cxx1112basic_stringIcSt11char_traitsIcESaIcEEESt4pairIKS5_N6build28locationEESaISA_ENSt8__detail10_Select1stESt8equal_toIS5_ESt4hashIS5_ENSC_18_Mod_range_hashingENSC_20_Default_ranged_hashENSC_20_Prime_rehash_policyENSC_17_Hashtable_traitsILb1ELb0ELb1EEEE9_M_rehashEmRKm@Base 0.14.0
 (optional=templinst)_ZNSt10_HashtableINSt7__cxx1112basic_stringIcSt11char_traitsIcESaIcEEESt4pairIKS5_N6build28locationEESaISA_ENSt8__detail10_Select1stESt8equal_toIS5_ESt4hashIS5_ENSC_18_Mod_range_hashingENSC_20_Default_ranged_hashENSC_20_Prime_rehash_policyENSC_17_Hashtable_traitsILb1ELb0ELb1EEEED1Ev@Base 0.14.0
 (optional=templinst)_ZNSt10_HashtableINSt7__cxx1112basic_stringIcSt11char_traitsIcESaIcEEESt4pairIKS5_N6build28locationEESaISA_ENSt8__detail10_Select1stESt8equal_toIS5_ESt4hashIS5_ENSC_18_Mod_range_hashingENSC_20_Default_ranged_hashENSC_20_Prime_rehash_policyENSC_17_Hashtable_traitsILb1ELb0ELb1EEEED2Ev@Base 0.14.0
 (optional=templinst)_ZNSt11_Deque_baseINSt8__detail9_StateSeqINSt7__cxx1112regex_traitsIN6build26script5regex9line_charEEEEESaIS9_EED1Ev@Base 0.14.0
 (optional=templinst)_ZNSt11_Deque_baseINSt8__detail9_StateSeqINSt7__cxx1112regex_traitsIN6build26script5regex9line_charEEEEESaIS9_EED2Ev@Base 0.14.0
 (optional=templinst)_ZNSt11_Deque_baseINSt8__detail9_StateSeqINSt7__cxx1112regex_traitsIcEEEESaIS5_EED1Ev@Base 0.14.0
 (optional=templinst)_ZNSt11_Deque_baseINSt8__detail9_StateSeqINSt7__cxx1112regex_traitsIcEEEESaIS5_EED2Ev@Base 0.14.0
 (optional=templinst)_ZNSt11_Deque_baseIlSaIlEE17_M_initialize_mapEm@Base 0.14.0
 (optional=templinst)_ZNSt11_Deque_baseIlSaIlEED1Ev@Base 0.14.0
 (optional=templinst)_ZNSt11_Deque_baseIlSaIlEED2Ev@Base 0.14.0
 (optional=templinst)_ZNSt11char_traitsIN6build26script5regex9line_charEE4copyEPS3_PKS3_m@Base 0.14.0
 (optional=templinst)_ZNSt11char_traitsIN6build26script5regex9line_charEE4findEPKS3_mRS5_@Base 0.14.0
 (optional=templinst)_ZNSt11char_traitsIN6build26script5regex9line_charEE4moveEPS3_PKS3_m@Base 0.14.0
 (optional=templinst)_ZNSt11char_traitsIN6build26script5regex9line_charEE6assignEPS3_mS3_@Base 0.14.0
 (optional=templinst)_ZNSt11char_traitsIN6build26script5regex9line_charEE6lengthEPKS3_@Base 0.14.0
 (optional=templinst)_ZNSt11char_traitsIN6build26script5regex9line_charEE7compareEPKS3_S6_m@Base 0.14.0
 (optional=templinst)_ZNSt14_Function_base13_Base_managerINSt8__detail11_AnyMatcherINSt7__cxx1112regex_traitsIN6build26script5regex9line_charEEELb0ELb0ELb0EEEE10_M_managerERSt9_Any_dataRKSC_St18_Manager_operation@Base 0.14.0
 (optional=templinst)_ZNSt14_Function_base13_Base_managerINSt8__detail11_AnyMatcherINSt7__cxx1112regex_traitsIN6build26script5regex9line_charEEELb0ELb0ELb1EEEE10_M_managerERSt9_Any_dataRKSC_St18_Manager_operation@Base 0.14.0
 (optional=templinst)_ZNSt14_Function_base13_Base_managerINSt8__detail11_AnyMatcherINSt7__cxx1112regex_traitsIN6build26script5regex9line_charEEELb0ELb1ELb0EEEE10_M_managerERSt9_Any_dataRKSC_St18_Manager_operation@Base 0.14.0
 (optional=templinst)_ZNSt14_Function_base13_Base_managerINSt8__detail11_AnyMatcherINSt7__cxx1112regex_traitsIN6build26script5regex9line_charEEELb0ELb1ELb1EEEE10_M_managerERSt9_Any_dataRKSC_St18_Manager_operation@Base 0.14.0
 (optional=templinst)_ZNSt14_Function_base13_Base_managerINSt8__detail11_AnyMatcherINSt7__cxx1112regex_traitsIN6build26script5regex9line_charEEELb1ELb0ELb0EEEE10_M_managerERSt9_Any_dataRKSC_St18_Manager_operation@Base 0.14.0
 (optional=templinst)_ZNSt14_Function_base13_Base_managerINSt8__detail11_AnyMatcherINSt7__cxx1112regex_traitsIN6build26script5regex9line_charEEELb1ELb0ELb1EEEE10_M_managerERSt9_Any_dataRKSC_St18_Manager_operation@Base 0.14.0
 (optional=templinst)_ZNSt14_Function_base13_Base_managerINSt8__detail11_AnyMatcherINSt7__cxx1112regex_traitsIN6build26script5regex9line_charEEELb1ELb1ELb0EEEE10_M_managerERSt9_Any_dataRKSC_St18_Manager_operation@Base 0.14.0
 (optional=templinst)_ZNSt14_Function_base13_Base_managerINSt8__detail11_AnyMatcherINSt7__cxx1112regex_traitsIN6build26script5regex9line_charEEELb1ELb1ELb1EEEE10_M_managerERSt9_Any_dataRKSC_St18_Manager_operation@Base 0.14.0
 (optional=templinst)_ZNSt14_Function_base13_Base_managerINSt8__detail11_AnyMatcherINSt7__cxx1112regex_traitsIcEELb0ELb0ELb0EEEE10_M_managerERSt9_Any_dataRKS8_St18_Manager_operation@Base 0.14.0
 (optional=templinst)_ZNSt14_Function_base13_Base_managerINSt8__detail11_AnyMatcherINSt7__cxx1112regex_traitsIcEELb0ELb0ELb1EEEE10_M_managerERSt9_Any_dataRKS8_St18_Manager_operation@Base 0.14.0
 (optional=templinst)_ZNSt14_Function_base13_Base_managerINSt8__detail11_AnyMatcherINSt7__cxx1112regex_traitsIcEELb0ELb1ELb0EEEE10_M_managerERSt9_Any_dataRKS8_St18_Manager_operation@Base 0.14.0
 (optional=templinst)_ZNSt14_Function_base13_Base_managerINSt8__detail11_AnyMatcherINSt7__cxx1112regex_traitsIcEELb0ELb1ELb1EEEE10_M_managerERSt9_Any_dataRKS8_St18_Manager_operation@Base 0.14.0
 (optional=templinst)_ZNSt14_Function_base13_Base_managerINSt8__detail11_AnyMatcherINSt7__cxx1112regex_traitsIcEELb1ELb0ELb0EEEE10_M_managerERSt9_Any_dataRKS8_St18_Manager_operation@Base 0.14.0
 (optional=templinst)_ZNSt14_Function_base13_Base_managerINSt8__detail11_AnyMatcherINSt7__cxx1112regex_traitsIcEELb1ELb0ELb1EEEE10_M_managerERSt9_Any_dataRKS8_St18_Manager_operation@Base 0.14.0
 (optional=templinst)_ZNSt14_Function_base13_Base_managerINSt8__detail11_AnyMatcherINSt7__cxx1112regex_traitsIcEELb1ELb1ELb0EEEE10_M_managerERSt9_Any_dataRKS8_St18_Manager_operation@Base 0.14.0
 (optional=templinst)_ZNSt14_Function_base13_Base_managerINSt8__detail11_AnyMatcherINSt7__cxx1112regex_traitsIcEELb1ELb1ELb1EEEE10_M_managerERSt9_Any_dataRKS8_St18_Manager_operation@Base 0.14.0
 (optional=templinst)_ZNSt14_Function_base13_Base_managerINSt8__detail12_CharMatcherINSt7__cxx1112regex_traitsIN6build26script5regex9line_charEEELb0ELb0EEEE10_M_managerERSt9_Any_dataRKSC_St18_Manager_operation@Base 0.14.0
 (optional=templinst)_ZNSt14_Function_base13_Base_managerINSt8__detail12_CharMatcherINSt7__cxx1112regex_traitsIN6build26script5regex9line_charEEELb0ELb1EEEE10_M_managerERSt9_Any_dataRKSC_St18_Manager_operation@Base 0.14.0
 (optional=templinst)_ZNSt14_Function_base13_Base_managerINSt8__detail12_CharMatcherINSt7__cxx1112regex_traitsIcEELb0ELb0EEEE10_M_managerERSt9_Any_dataRKS8_St18_Manager_operation@Base 0.14.0
 (optional=templinst)_ZNSt14_Function_base13_Base_managerINSt8__detail12_CharMatcherINSt7__cxx1112regex_traitsIcEELb0ELb1EEEE10_M_managerERSt9_Any_dataRKS8_St18_Manager_operation@Base 0.14.0
 (optional=templinst)_ZNSt14_Function_base13_Base_managerINSt8__detail12_CharMatcherINSt7__cxx1112regex_traitsIcEELb1ELb0EEEE10_M_managerERSt9_Any_dataRKS8_St18_Manager_operation@Base 0.14.0
 (optional=templinst)_ZNSt14_Function_base13_Base_managerINSt8__detail12_CharMatcherINSt7__cxx1112regex_traitsIcEELb1ELb1EEEE10_M_managerERSt9_Any_dataRKS8_St18_Manager_operation@Base 0.14.0
 (optional=templinst)_ZNSt14_Function_base13_Base_managerINSt8__detail15_BracketMatcherINSt7__cxx1112regex_traitsIN6build26script5regex9line_charEEELb0ELb0EEEE10_M_managerERSt9_Any_dataRKSC_St18_Manager_operation@Base 0.14.0
 (optional=templinst)_ZNSt14_Function_base13_Base_managerINSt8__detail15_BracketMatcherINSt7__cxx1112regex_traitsIN6build26script5regex9line_charEEELb0ELb1EEEE10_M_managerERSt9_Any_dataRKSC_St18_Manager_operation@Base 0.14.0
 (optional=templinst)_ZNSt14_Function_base13_Base_managerINSt8__detail15_BracketMatcherINSt7__cxx1112regex_traitsIN6build26script5regex9line_charEEELb1ELb0EEEE10_M_managerERSt9_Any_dataRKSC_St18_Manager_operation@Base 0.14.0
 (optional=templinst)_ZNSt14_Function_base13_Base_managerINSt8__detail15_BracketMatcherINSt7__cxx1112regex_traitsIN6build26script5regex9line_charEEELb1ELb1EEEE10_M_managerERSt9_Any_dataRKSC_St18_Manager_operation@Base 0.14.0
 (optional=templinst)_ZNSt14_Function_base13_Base_managerINSt8__detail15_BracketMatcherINSt7__cxx1112regex_traitsIcEELb0ELb0EEEE10_M_managerERSt9_Any_dataRKS8_St18_Manager_operation@Base 0.14.0
 (optional=templinst)_ZNSt14_Function_base13_Base_managerINSt8__detail15_BracketMatcherINSt7__cxx1112regex_traitsIcEELb0ELb1EEEE10_M_managerERSt9_Any_dataRKS8_St18_Manager_operation@Base 0.14.0
 (optional=templinst)_ZNSt14_Function_base13_Base_managerINSt8__detail15_BracketMatcherINSt7__cxx1112regex_traitsIcEELb1ELb0EEEE10_M_managerERSt9_Any_dataRKS8_St18_Manager_operation@Base 0.14.0
 (optional=templinst)_ZNSt14_Function_base13_Base_managerINSt8__detail15_BracketMatcherINSt7__cxx1112regex_traitsIcEELb1ELb1EEEE10_M_managerERSt9_Any_dataRKS8_St18_Manager_operation@Base 0.14.0
 (optional=templinst)_ZNSt14_Function_base13_Base_managerIPFN6build212target_stateENS1_6actionERKNS1_5scopeERKNS1_3dirEEE10_M_managerERSt9_Any_dataRKSD_St18_Manager_operation@Base 0.14.0
 (optional=templinst)_ZNSt14_Function_base13_Base_managerIPFN6build212target_stateENS1_6actionERKNS1_6targetEEE10_M_managerERSt9_Any_dataRKSA_St18_Manager_operation@Base 0.14.0
 (optional=templinst)_ZNSt14_Function_base13_Base_managerIPFN6build25valueEON4butl7auto_fdEEE10_M_managerERSt9_Any_dataRKS9_St18_Manager_operation@Base 0.14.0
 (optional=templinst)_ZNSt14_Function_base13_Base_managerIZN6build226match_prerequisite_membersENS1_6actionERNS1_6targetERKSt8functionIFNS1_19prerequisite_targetES2_RKS3_RKNS1_19prerequisite_memberENS1_12include_typeEEEEUlS2_S8_RKNS1_12prerequisiteESC_E_E10_M_managerERSt9_Any_dataRKSM_St18_Manager_operation@Base 0.14.0
 (optional=templinst)_ZNSt15_Sp_counted_ptrIPN6build214adhoc_cxx_ruleELN9__gnu_cxx12_Lock_policyE2EE10_M_destroyEv@Base 0.14.0
 (optional=templinst)_ZNSt15_Sp_counted_ptrIPN6build214adhoc_cxx_ruleELN9__gnu_cxx12_Lock_policyE2EE10_M_disposeEv@Base 0.14.0
 (optional=templinst)_ZNSt15_Sp_counted_ptrIPN6build214adhoc_cxx_ruleELN9__gnu_cxx12_Lock_policyE2EE14_M_get_deleterERKSt9type_info@Base 0.14.0
 (optional=templinst)_ZNSt15_Sp_counted_ptrIPN6build214adhoc_cxx_ruleELN9__gnu_cxx12_Lock_policyE2EED0Ev@Base 0.14.0
 (optional=templinst)_ZNSt15_Sp_counted_ptrIPN6build214adhoc_cxx_ruleELN9__gnu_cxx12_Lock_policyE2EED1Ev@Base 0.14.0
 (optional=templinst)_ZNSt15_Sp_counted_ptrIPN6build214adhoc_cxx_ruleELN9__gnu_cxx12_Lock_policyE2EED2Ev@Base 0.14.0
 (optional=templinst)_ZNSt15_Sp_counted_ptrIPN6build222adhoc_buildscript_ruleELN9__gnu_cxx12_Lock_policyE2EE10_M_destroyEv@Base 0.14.0
 (optional=templinst)_ZNSt15_Sp_counted_ptrIPN6build222adhoc_buildscript_ruleELN9__gnu_cxx12_Lock_policyE2EE10_M_disposeEv@Base 0.14.0
 (optional=templinst)_ZNSt15_Sp_counted_ptrIPN6build222adhoc_buildscript_ruleELN9__gnu_cxx12_Lock_policyE2EE14_M_get_deleterERKSt9type_info@Base 0.14.0
 (optional=templinst)_ZNSt15_Sp_counted_ptrIPN6build222adhoc_buildscript_ruleELN9__gnu_cxx12_Lock_policyE2EED0Ev@Base 0.14.0
 (optional=templinst)_ZNSt15_Sp_counted_ptrIPN6build222adhoc_buildscript_ruleELN9__gnu_cxx12_Lock_policyE2EED1Ev@Base 0.14.0
 (optional=templinst)_ZNSt15_Sp_counted_ptrIPN6build222adhoc_buildscript_ruleELN9__gnu_cxx12_Lock_policyE2EED2Ev@Base 0.14.0
 (optional=templinst)_ZNSt15_Sp_counted_ptrIPN6build24dist6moduleELN9__gnu_cxx12_Lock_policyE2EE10_M_destroyEv@Base 0.14.0
 (optional=templinst)_ZNSt15_Sp_counted_ptrIPN6build24dist6moduleELN9__gnu_cxx12_Lock_policyE2EE10_M_disposeEv@Base 0.14.0
 (optional=templinst)_ZNSt15_Sp_counted_ptrIPN6build24dist6moduleELN9__gnu_cxx12_Lock_policyE2EE14_M_get_deleterERKSt9type_info@Base 0.14.0
 (optional=templinst)_ZNSt15_Sp_counted_ptrIPN6build24dist6moduleELN9__gnu_cxx12_Lock_policyE2EED0Ev@Base 0.14.0
 (optional=templinst)_ZNSt15_Sp_counted_ptrIPN6build24dist6moduleELN9__gnu_cxx12_Lock_policyE2EED1Ev@Base 0.14.0
 (optional=templinst)_ZNSt15_Sp_counted_ptrIPN6build24dist6moduleELN9__gnu_cxx12_Lock_policyE2EED2Ev@Base 0.14.0
 (optional=templinst)_ZNSt15_Sp_counted_ptrIPN6build24test6moduleELN9__gnu_cxx12_Lock_policyE2EE10_M_destroyEv@Base 0.14.0
 (optional=templinst)_ZNSt15_Sp_counted_ptrIPN6build24test6moduleELN9__gnu_cxx12_Lock_policyE2EE10_M_disposeEv@Base 0.14.0
 (optional=templinst)_ZNSt15_Sp_counted_ptrIPN6build24test6moduleELN9__gnu_cxx12_Lock_policyE2EE14_M_get_deleterERKSt9type_info@Base 0.14.0
 (optional=templinst)_ZNSt15_Sp_counted_ptrIPN6build24test6moduleELN9__gnu_cxx12_Lock_policyE2EED0Ev@Base 0.14.0
 (optional=templinst)_ZNSt15_Sp_counted_ptrIPN6build24test6moduleELN9__gnu_cxx12_Lock_policyE2EED1Ev@Base 0.14.0
 (optional=templinst)_ZNSt15_Sp_counted_ptrIPN6build24test6moduleELN9__gnu_cxx12_Lock_policyE2EED2Ev@Base 0.14.0
 (optional=templinst)_ZNSt15_Sp_counted_ptrIPN6build26config6moduleELN9__gnu_cxx12_Lock_policyE2EE10_M_destroyEv@Base 0.14.0
 (optional=templinst)_ZNSt15_Sp_counted_ptrIPN6build26config6moduleELN9__gnu_cxx12_Lock_policyE2EE10_M_disposeEv@Base 0.14.0
 (optional=templinst)_ZNSt15_Sp_counted_ptrIPN6build26config6moduleELN9__gnu_cxx12_Lock_policyE2EE14_M_get_deleterERKSt9type_info@Base 0.14.0
 (optional=templinst)_ZNSt15_Sp_counted_ptrIPN6build26config6moduleELN9__gnu_cxx12_Lock_policyE2EED0Ev@Base 0.14.0
 (optional=templinst)_ZNSt15_Sp_counted_ptrIPN6build26config6moduleELN9__gnu_cxx12_Lock_policyE2EED1Ev@Base 0.14.0
 (optional=templinst)_ZNSt15_Sp_counted_ptrIPN6build26config6moduleELN9__gnu_cxx12_Lock_policyE2EED2Ev@Base 0.14.0
 (optional=templinst)_ZNSt16_Sp_counted_baseILN9__gnu_cxx12_Lock_policyE2EE10_M_releaseEv@Base 0.14.0
 (optional=templinst)_ZNSt17_Function_handlerIFN6build212target_stateENS0_6actionERKNS0_5scopeERKNS0_3dirEEPS9_E9_M_invokeERKSt9_Any_dataOS2_S5_S8_@Base 0.14.0
 (optional=templinst)_ZNSt17_Function_handlerIFN6build212target_stateENS0_6actionERKNS0_6targetEEPS6_E9_M_invokeERKSt9_Any_dataOS2_S5_@Base 0.14.0
 (optional=templinst)_ZNSt17_Function_handlerIFN6build219prerequisite_targetENS0_6actionERKNS0_6targetERKNS0_12prerequisiteENS0_12include_typeEEZNS0_26match_prerequisite_membersES2_RS3_RKSt8functionIFS1_S2_S5_RKNS0_19prerequisite_memberES9_EEEUlS2_S5_S8_S9_E_E9_M_invokeERKSt9_Any_dataOS2_S5_S8_OS9_@Base 0.14.0
 (optional=templinst)_ZNSt17_Function_handlerIFN6build25valueEON4butl7auto_fdEEPS5_E9_M_invokeERKSt9_Any_dataS4_@Base 0.14.0
 (optional=templinst)_ZNSt17_Function_handlerIFbN6build26script5regex9line_charEENSt8__detail11_AnyMatcherINSt7__cxx1112regex_traitsIS3_EELb0ELb0ELb0EEEE9_M_invokeERKSt9_Any_dataOS3_@Base 0.14.0
 (optional=templinst)_ZNSt17_Function_handlerIFbN6build26script5regex9line_charEENSt8__detail11_AnyMatcherINSt7__cxx1112regex_traitsIS3_EELb0ELb0ELb1EEEE9_M_invokeERKSt9_Any_dataOS3_@Base 0.14.0
 (optional=templinst)_ZNSt17_Function_handlerIFbN6build26script5regex9line_charEENSt8__detail11_AnyMatcherINSt7__cxx1112regex_traitsIS3_EELb0ELb1ELb0EEEE9_M_invokeERKSt9_Any_dataOS3_@Base 0.14.0
 (optional=templinst)_ZNSt17_Function_handlerIFbN6build26script5regex9line_charEENSt8__detail11_AnyMatcherINSt7__cxx1112regex_traitsIS3_EELb0ELb1ELb1EEEE9_M_invokeERKSt9_Any_dataOS3_@Base 0.14.0
 (optional=templinst)_ZNSt17_Function_handlerIFbN6build26script5regex9line_charEENSt8__detail11_AnyMatcherINSt7__cxx1112regex_traitsIS3_EELb1ELb0ELb0EEEE9_M_invokeERKSt9_Any_dataOS3_@Base 0.14.0
 (optional=templinst)_ZNSt17_Function_handlerIFbN6build26script5regex9line_charEENSt8__detail11_AnyMatcherINSt7__cxx1112regex_traitsIS3_EELb1ELb0ELb1EEEE9_M_invokeERKSt9_Any_dataOS3_@Base 0.14.0
 (optional=templinst)_ZNSt17_Function_handlerIFbN6build26script5regex9line_charEENSt8__detail11_AnyMatcherINSt7__cxx1112regex_traitsIS3_EELb1ELb1ELb0EEEE9_M_invokeERKSt9_Any_dataOS3_@Base 0.14.0
 (optional=templinst)_ZNSt17_Function_handlerIFbN6build26script5regex9line_charEENSt8__detail11_AnyMatcherINSt7__cxx1112regex_traitsIS3_EELb1ELb1ELb1EEEE9_M_invokeERKSt9_Any_dataOS3_@Base 0.14.0
 (optional=templinst)_ZNSt17_Function_handlerIFbN6build26script5regex9line_charEENSt8__detail12_CharMatcherINSt7__cxx1112regex_traitsIS3_EELb0ELb0EEEE9_M_invokeERKSt9_Any_dataOS3_@Base 0.14.0
 (optional=templinst)_ZNSt17_Function_handlerIFbN6build26script5regex9line_charEENSt8__detail12_CharMatcherINSt7__cxx1112regex_traitsIS3_EELb0ELb1EEEE9_M_invokeERKSt9_Any_dataOS3_@Base 0.14.0
 (optional=templinst)_ZNSt17_Function_handlerIFbN6build26script5regex9line_charEENSt8__detail15_BracketMatcherINSt7__cxx1112regex_traitsIS3_EELb0ELb0EEEE9_M_invokeERKSt9_Any_dataOS3_@Base 0.14.0
 (optional=templinst)_ZNSt17_Function_handlerIFbN6build26script5regex9line_charEENSt8__detail15_BracketMatcherINSt7__cxx1112regex_traitsIS3_EELb0ELb1EEEE9_M_invokeERKSt9_Any_dataOS3_@Base 0.14.0
 (optional=templinst)_ZNSt17_Function_handlerIFbN6build26script5regex9line_charEENSt8__detail15_BracketMatcherINSt7__cxx1112regex_traitsIS3_EELb1ELb0EEEE9_M_invokeERKSt9_Any_dataOS3_@Base 0.14.0
 (optional=templinst)_ZNSt17_Function_handlerIFbN6build26script5regex9line_charEENSt8__detail15_BracketMatcherINSt7__cxx1112regex_traitsIS3_EELb1ELb1EEEE9_M_invokeERKSt9_Any_dataOS3_@Base 0.14.0
 (optional=templinst)_ZNSt17_Function_handlerIFbcENSt8__detail11_AnyMatcherINSt7__cxx1112regex_traitsIcEELb0ELb0ELb0EEEE9_M_invokeERKSt9_Any_dataOc@Base 0.14.0
 (optional=templinst)_ZNSt17_Function_handlerIFbcENSt8__detail11_AnyMatcherINSt7__cxx1112regex_traitsIcEELb0ELb0ELb1EEEE9_M_invokeERKSt9_Any_dataOc@Base 0.14.0
 (optional=templinst)_ZNSt17_Function_handlerIFbcENSt8__detail11_AnyMatcherINSt7__cxx1112regex_traitsIcEELb0ELb1ELb0EEEE9_M_invokeERKSt9_Any_dataOc@Base 0.14.0
 (optional=templinst)_ZNSt17_Function_handlerIFbcENSt8__detail11_AnyMatcherINSt7__cxx1112regex_traitsIcEELb0ELb1ELb1EEEE9_M_invokeERKSt9_Any_dataOc@Base 0.14.0
 (optional=templinst)_ZNSt17_Function_handlerIFbcENSt8__detail11_AnyMatcherINSt7__cxx1112regex_traitsIcEELb1ELb0ELb0EEEE9_M_invokeERKSt9_Any_dataOc@Base 0.14.0
 (optional=templinst)_ZNSt17_Function_handlerIFbcENSt8__detail11_AnyMatcherINSt7__cxx1112regex_traitsIcEELb1ELb0ELb1EEEE9_M_invokeERKSt9_Any_dataOc@Base 0.14.0
 (optional=templinst)_ZNSt17_Function_handlerIFbcENSt8__detail11_AnyMatcherINSt7__cxx1112regex_traitsIcEELb1ELb1ELb0EEEE9_M_invokeERKSt9_Any_dataOc@Base 0.14.0
 (optional=templinst)_ZNSt17_Function_handlerIFbcENSt8__detail11_AnyMatcherINSt7__cxx1112regex_traitsIcEELb1ELb1ELb1EEEE9_M_invokeERKSt9_Any_dataOc@Base 0.14.0
 (optional=templinst)_ZNSt17_Function_handlerIFbcENSt8__detail12_CharMatcherINSt7__cxx1112regex_traitsIcEELb0ELb0EEEE9_M_invokeERKSt9_Any_dataOc@Base 0.14.0
 (optional=templinst)_ZNSt17_Function_handlerIFbcENSt8__detail12_CharMatcherINSt7__cxx1112regex_traitsIcEELb0ELb1EEEE9_M_invokeERKSt9_Any_dataOc@Base 0.14.0
 (optional=templinst)_ZNSt17_Function_handlerIFbcENSt8__detail12_CharMatcherINSt7__cxx1112regex_traitsIcEELb1ELb0EEEE9_M_invokeERKSt9_Any_dataOc@Base 0.14.0
 (optional=templinst)_ZNSt17_Function_handlerIFbcENSt8__detail12_CharMatcherINSt7__cxx1112regex_traitsIcEELb1ELb1EEEE9_M_invokeERKSt9_Any_dataOc@Base 0.14.0
 (optional=templinst)_ZNSt17_Function_handlerIFbcENSt8__detail15_BracketMatcherINSt7__cxx1112regex_traitsIcEELb0ELb0EEEE9_M_invokeERKSt9_Any_dataOc@Base 0.14.0
 (optional=templinst)_ZNSt17_Function_handlerIFbcENSt8__detail15_BracketMatcherINSt7__cxx1112regex_traitsIcEELb0ELb1EEEE9_M_invokeERKSt9_Any_dataOc@Base 0.14.0
 (optional=templinst)_ZNSt17_Function_handlerIFbcENSt8__detail15_BracketMatcherINSt7__cxx1112regex_traitsIcEELb1ELb0EEEE9_M_invokeERKSt9_Any_dataOc@Base 0.14.0
 (optional=templinst)_ZNSt17_Function_handlerIFbcENSt8__detail15_BracketMatcherINSt7__cxx1112regex_traitsIcEELb1ELb1EEEE9_M_invokeERKSt9_Any_dataOc@Base 0.14.0
 (optional=templinst)_ZNSt22_Optional_payload_baseIN4butl10basic_pathIcNS0_13dir_path_kindIcEEEEEC1EbRKS5_@Base 0.14.0
 (optional=templinst)_ZNSt22_Optional_payload_baseIN4butl10basic_pathIcNS0_13dir_path_kindIcEEEEEC2EbRKS5_@Base 0.14.0
 (optional=templinst)_ZNSt22_Optional_payload_baseIN6build24test6script11descriptionEE14_M_move_assignEOS4_@Base 0.14.0
 (optional=templinst)_ZNSt22_Optional_payload_baseIN6build25tokenEEC1EbOS2_@Base 0.14.0
 (optional=templinst)_ZNSt22_Optional_payload_baseIN6build25tokenEEC2EbOS2_@Base 0.14.0
 (optional=templinst)_ZNSt22_Optional_payload_baseINSt7__cxx1111basic_regexIcNS0_12regex_traitsIcEEEEEC1EbOS5_@Base 0.14.0
 (optional=templinst)_ZNSt22_Optional_payload_baseINSt7__cxx1111basic_regexIcNS0_12regex_traitsIcEEEEEC2EbOS5_@Base 0.14.0
 (optional=templinst)_ZNSt22_Optional_payload_baseINSt7__cxx1112basic_stringIcSt11char_traitsIcESaIcEEEE14_M_move_assignEOS6_@Base 0.14.0
 (optional=templinst)_ZNSt23_Sp_counted_ptr_inplaceINSt8__detail4_NFAINSt7__cxx1112regex_traitsIN6build26script5regex9line_charEEEEESaIS9_ELN9__gnu_cxx12_Lock_policyE2EE10_M_destroyEv@Base 0.14.0
 (optional=templinst)_ZNSt23_Sp_counted_ptr_inplaceINSt8__detail4_NFAINSt7__cxx1112regex_traitsIN6build26script5regex9line_charEEEEESaIS9_ELN9__gnu_cxx12_Lock_policyE2EE10_M_disposeEv@Base 0.14.0
 (optional=templinst)_ZNSt23_Sp_counted_ptr_inplaceINSt8__detail4_NFAINSt7__cxx1112regex_traitsIN6build26script5regex9line_charEEEEESaIS9_ELN9__gnu_cxx12_Lock_policyE2EE14_M_get_deleterERKSt9type_info@Base 0.14.0
 (optional=templinst)_ZNSt23_Sp_counted_ptr_inplaceINSt8__detail4_NFAINSt7__cxx1112regex_traitsIN6build26script5regex9line_charEEEEESaIS9_ELN9__gnu_cxx12_Lock_policyE2EED0Ev@Base 0.14.0
 (optional=templinst)_ZNSt23_Sp_counted_ptr_inplaceINSt8__detail4_NFAINSt7__cxx1112regex_traitsIN6build26script5regex9line_charEEEEESaIS9_ELN9__gnu_cxx12_Lock_policyE2EED1Ev@Base 0.14.0
 (optional=templinst)_ZNSt23_Sp_counted_ptr_inplaceINSt8__detail4_NFAINSt7__cxx1112regex_traitsIN6build26script5regex9line_charEEEEESaIS9_ELN9__gnu_cxx12_Lock_policyE2EED2Ev@Base 0.14.0
 (optional=templinst)_ZNSt23_Sp_counted_ptr_inplaceINSt8__detail4_NFAINSt7__cxx1112regex_traitsIcEEEESaIS5_ELN9__gnu_cxx12_Lock_policyE2EE10_M_destroyEv@Base 0.14.0
 (optional=templinst)_ZNSt23_Sp_counted_ptr_inplaceINSt8__detail4_NFAINSt7__cxx1112regex_traitsIcEEEESaIS5_ELN9__gnu_cxx12_Lock_policyE2EE10_M_disposeEv@Base 0.14.0
 (optional=templinst)_ZNSt23_Sp_counted_ptr_inplaceINSt8__detail4_NFAINSt7__cxx1112regex_traitsIcEEEESaIS5_ELN9__gnu_cxx12_Lock_policyE2EE14_M_get_deleterERKSt9type_info@Base 0.14.0
 (optional=templinst)_ZNSt23_Sp_counted_ptr_inplaceINSt8__detail4_NFAINSt7__cxx1112regex_traitsIcEEEESaIS5_ELN9__gnu_cxx12_Lock_policyE2EED0Ev@Base 0.14.0
 (optional=templinst)_ZNSt23_Sp_counted_ptr_inplaceINSt8__detail4_NFAINSt7__cxx1112regex_traitsIcEEEESaIS5_ELN9__gnu_cxx12_Lock_policyE2EED1Ev@Base 0.14.0
 (optional=templinst)_ZNSt23_Sp_counted_ptr_inplaceINSt8__detail4_NFAINSt7__cxx1112regex_traitsIcEEEESaIS5_ELN9__gnu_cxx12_Lock_policyE2EED2Ev@Base 0.14.0
 (optional=templinst)_ZNSt3_V28__rotateIN9__gnu_cxx17__normal_iteratorIPNSt7__cxx1112basic_stringIcSt11char_traitsIcESaIcEEESt6vectorIS8_SaIS8_EEEEEET_SE_SE_SE_St26random_access_iterator_tag@Base 0.14.0
 (optional=templinst)_ZNSt3mapIN4butl12project_nameENS0_10basic_pathIcNS0_13dir_path_kindIcEEEESt4lessIS1_ESaISt4pairIKS1_S5_EEED1Ev@Base 0.14.0
 (optional=templinst)_ZNSt3mapIN4butl12project_nameENS0_10basic_pathIcNS0_13dir_path_kindIcEEEESt4lessIS1_ESaISt4pairIKS1_S5_EEED2Ev@Base 0.14.0
 (optional=templinst)_ZNSt3mapINSt7__cxx1112basic_stringIcSt11char_traitsIcESaIcEEEPFvRN6build26script11set_optionsERNS7_3cli7scannerEESt4lessIS5_ESaISt4pairIKS5_SE_EEED1Ev@Base 0.14.0
 (optional=templinst)_ZNSt3mapINSt7__cxx1112basic_stringIcSt11char_traitsIcESaIcEEEPFvRN6build26script11set_optionsERNS7_3cli7scannerEESt4lessIS5_ESaISt4pairIKS5_SE_EEED2Ev@Base 0.14.0
 (optional=templinst)_ZNSt3mapINSt7__cxx1112basic_stringIcSt11char_traitsIcESaIcEEEPFvRN6build26script14export_optionsERNS7_3cli7scannerEESt4lessIS5_ESaISt4pairIKS5_SE_EEED1Ev@Base 0.14.0
 (optional=templinst)_ZNSt3mapINSt7__cxx1112basic_stringIcSt11char_traitsIcESaIcEEEPFvRN6build26script14export_optionsERNS7_3cli7scannerEESt4lessIS5_ESaISt4pairIKS5_SE_EEED2Ev@Base 0.14.0
 (optional=templinst)_ZNSt3mapINSt7__cxx1112basic_stringIcSt11char_traitsIcESaIcEEEPFvRN6build26script15timeout_optionsERNS7_3cli7scannerEESt4lessIS5_ESaISt4pairIKS5_SE_EEED1Ev@Base 0.14.0
 (optional=templinst)_ZNSt3mapINSt7__cxx1112basic_stringIcSt11char_traitsIcESaIcEEEPFvRN6build26script15timeout_optionsERNS7_3cli7scannerEESt4lessIS5_ESaISt4pairIKS5_SE_EEED2Ev@Base 0.14.0
 (optional=templinst)_ZNSt3mapINSt7__cxx1112basic_stringIcSt11char_traitsIcESaIcEEEPKN6build216module_functionsESt4lessIS5_ESaISt4pairIKS5_S9_EEED1Ev@Base 0.14.0
 (optional=templinst)_ZNSt3mapINSt7__cxx1112basic_stringIcSt11char_traitsIcESaIcEEEPKN6build216module_functionsESt4lessIS5_ESaISt4pairIKS5_S9_EEED2Ev@Base 0.14.0
 (optional=templinst)_ZNSt3mapINSt7__cxx1112basic_stringIcSt11char_traitsIcESaIcEEES5_St4lessIS5_ESaISt4pairIKS5_S5_EEED1Ev@Base 0.14.0
 (optional=templinst)_ZNSt3mapINSt7__cxx1112basic_stringIcSt11char_traitsIcESaIcEEES5_St4lessIS5_ESaISt4pairIKS5_S5_EEED2Ev@Base 0.14.0
 (optional=templinst)_ZNSt3mapINSt7__cxx1112basic_stringIcSt11char_traitsIcESaIcEEESt8optionalIS5_ESt4lessIS5_ESaISt4pairIKS5_S7_EEED1Ev@Base 0.14.0
 (optional=templinst)_ZNSt3mapINSt7__cxx1112basic_stringIcSt11char_traitsIcESaIcEEESt8optionalIS5_ESt4lessIS5_ESaISt4pairIKS5_S7_EEED2Ev@Base 0.14.0
 (optional=templinst)_ZNSt3mapINSt7__cxx1112basic_stringIcSt11char_traitsIcESaIcEEESt8optionalIbESt4lessIS5_ESaISt4pairIKS5_S7_EEED1Ev@Base 0.14.0
 (optional=templinst)_ZNSt3mapINSt7__cxx1112basic_stringIcSt11char_traitsIcESaIcEEESt8optionalIbESt4lessIS5_ESaISt4pairIKS5_S7_EEED2Ev@Base 0.14.0
 (optional=templinst)_ZNSt3mapISt8optionalINSt7__cxx1112basic_stringIcSt11char_traitsIcESaIcEEEES6_St4lessIS7_ESaISt4pairIKS7_S6_EEED1Ev@Base 0.14.0
 (optional=templinst)_ZNSt3mapISt8optionalINSt7__cxx1112basic_stringIcSt11char_traitsIcESaIcEEEES6_St4lessIS7_ESaISt4pairIKS7_S6_EEED2Ev@Base 0.14.0
 (optional=templinst)_ZNSt4pairIKN4butl12project_nameENS0_10basic_pathIcNS0_13dir_path_kindIcEEEEED1Ev@Base 0.14.0
 (optional=templinst)_ZNSt4pairIKN4butl12project_nameENS0_10basic_pathIcNS0_13dir_path_kindIcEEEEED2Ev@Base 0.14.0
 (optional=templinst)_ZNSt4pairIKNSt7__cxx1112basic_stringIcSt11char_traitsIcESaIcEEESt17reference_wrapperIKN6build24ruleEEED1Ev@Base 0.14.0
 (optional=templinst)_ZNSt4pairIKNSt7__cxx1112basic_stringIcSt11char_traitsIcESaIcEEESt17reference_wrapperIKN6build24ruleEEED2Ev@Base 0.14.0
 (optional=templinst)_ZNSt4pairIN4butl10basic_pathIcNS0_13dir_path_kindIcEEEENSt7__cxx1112basic_stringIcSt11char_traitsIcESaIcEEEED1Ev@Base 0.14.0
 (optional=templinst)_ZNSt4pairIN4butl10basic_pathIcNS0_13dir_path_kindIcEEEENSt7__cxx1112basic_stringIcSt11char_traitsIcESaIcEEEED2Ev@Base 0.14.0
 (optional=templinst)_ZNSt4pairIN4butl10entry_typeESt12system_errorED1Ev@Base 0.14.0
 (optional=templinst)_ZNSt4pairIN4butl10entry_typeESt12system_errorED2Ev@Base 0.14.0
 (optional=templinst)_ZNSt4pairIN4butl12project_nameENS0_10basic_pathIcNS0_13dir_path_kindIcEEEEED1Ev@Base 0.14.0
 (optional=templinst)_ZNSt4pairIN4butl12project_nameENS0_10basic_pathIcNS0_13dir_path_kindIcEEEEED2Ev@Base 0.14.0
 (optional=templinst)_ZNSt4pairIN6build24nameESt8optionalIN4butl10basic_pathIcNS3_13dir_path_kindIcEEEEEED1Ev@Base 0.14.0
 (optional=templinst)_ZNSt4pairIN6build24nameESt8optionalIN4butl10basic_pathIcNS3_13dir_path_kindIcEEEEEED2Ev@Base 0.14.0
 (optional=templinst)_ZNSt4pairIN6build25valueENS0_5tokenEED1Ev@Base 0.14.0
 (optional=templinst)_ZNSt4pairIN6build25valueENS0_5tokenEED2Ev@Base 0.14.0
 (optional=templinst)_ZNSt4pairINSt7__cxx1112basic_stringIN6build26script5regex9line_charESt11char_traitsIS5_ESaIS5_EEES9_ED1Ev@Base 0.14.0
 (optional=templinst)_ZNSt4pairINSt7__cxx1112basic_stringIN6build26script5regex9line_charESt11char_traitsIS5_ESaIS5_EEES9_ED2Ev@Base 0.14.0
 (optional=templinst)_ZNSt4pairINSt7__cxx1112basic_stringIcSt11char_traitsIcESaIcEEES5_ED1Ev@Base 0.14.0
 (optional=templinst)_ZNSt4pairINSt7__cxx1112basic_stringIcSt11char_traitsIcESaIcEEES5_ED2Ev@Base 0.14.0
 (optional=templinst)_ZNSt4pairINSt7__cxx1112basic_stringIcSt11char_traitsIcESaIcEEESt6vectorIS5_SaIS5_EEED1Ev@Base 0.14.0
 (optional=templinst)_ZNSt4pairINSt7__cxx1112basic_stringIcSt11char_traitsIcESaIcEEESt6vectorIS5_SaIS5_EEED2Ev@Base 0.14.0
 (optional=templinst)_ZNSt4pairINSt7__cxx1112basic_stringIcSt11char_traitsIcESaIcEEESt8optionalIS5_EED1Ev@Base 0.14.0
 (optional=templinst)_ZNSt4pairINSt7__cxx1112basic_stringIcSt11char_traitsIcESaIcEEESt8optionalIS5_EED2Ev@Base 0.14.0
 (optional=templinst)_ZNSt4pairISt8optionalINSt7__cxx1112basic_stringIcSt11char_traitsIcESaIcEEEES6_ED1Ev@Base 0.14.0
 (optional=templinst)_ZNSt4pairISt8optionalINSt7__cxx1112basic_stringIcSt11char_traitsIcESaIcEEEES6_ED2Ev@Base 0.14.0
 _ZNSt5ctypeIN6build26script5regex9line_charEE2idE@Base 0.14.0
 (optional=templinst)_ZNSt5ctypeIN6build26script5regex9line_charEED0Ev@Base 0.14.0
 (optional=templinst)_ZNSt5ctypeIN6build26script5regex9line_charEED1Ev@Base 0.14.0
 (optional=templinst)_ZNSt5ctypeIN6build26script5regex9line_charEED2Ev@Base 0.14.0
 (optional=templinst)_ZNSt5dequeIN6build25lexer5stateESaIS2_EE15_M_pop_back_auxEv@Base 0.14.0
 (optional=templinst)_ZNSt5dequeIN6build25lexer5stateESaIS2_EE16_M_push_back_auxIJS2_EEEvDpOT_@Base 0.14.0
 (optional=templinst)_ZNSt5dequeIN6build25lexer5stateESaIS2_EED1Ev@Base 0.14.0
 (optional=templinst)_ZNSt5dequeIN6build25lexer5stateESaIS2_EED2Ev@Base 0.14.0
 (optional=templinst)_ZNSt5dequeINSt8__detail9_StateSeqINSt7__cxx1112regex_traitsIN6build26script5regex9line_charEEEEESaIS9_EE12emplace_backIJS9_EEERS9_DpOT_@Base 0.14.0
 (optional=templinst)_ZNSt5dequeINSt8__detail9_StateSeqINSt7__cxx1112regex_traitsIN6build26script5regex9line_charEEEEESaIS9_EE16_M_push_back_auxIJRKS9_EEEvDpOT_@Base 0.14.0
 (optional=templinst)_ZNSt5dequeINSt8__detail9_StateSeqINSt7__cxx1112regex_traitsIN6build26script5regex9line_charEEEEESaIS9_EE17_M_reallocate_mapEmb@Base 0.14.0
 (optional=templinst)_ZNSt5dequeINSt8__detail9_StateSeqINSt7__cxx1112regex_traitsIcEEEESaIS5_EE12emplace_backIJS5_EEERS5_DpOT_@Base 0.14.0
 (optional=templinst)_ZNSt5dequeINSt8__detail9_StateSeqINSt7__cxx1112regex_traitsIcEEEESaIS5_EE16_M_push_back_auxIJRKS5_EEEvDpOT_@Base 0.14.0
 (optional=templinst)_ZNSt5dequeINSt8__detail9_StateSeqINSt7__cxx1112regex_traitsIcEEEESaIS5_EE17_M_reallocate_mapEmb@Base 0.14.0
 (optional=templinst)_ZNSt5dequeIlSaIlEE16_M_push_back_auxIJRKlEEEvDpOT_@Base 0.14.0
 (optional=templinst)_ZNSt6localeC1ISt5ctypeIN6build26script5regex9line_charEEEERKS_PT_@Base 0.14.0
 (optional=templinst)_ZNSt6localeC2ISt5ctypeIN6build26script5regex9line_charEEEERKS_PT_@Base 0.14.0
 (optional=templinst)_ZNSt6thread11_State_implINS_8_InvokerISt5tupleIJPFPvS3_EPN6build29schedulerEEEEEE6_M_runEv@Base 0.14.0
 (optional=templinst)_ZNSt6thread11_State_implINS_8_InvokerISt5tupleIJPFPvS3_EPN6build29schedulerEEEEEED0Ev@Base 0.14.0
 (optional=templinst)_ZNSt6thread11_State_implINS_8_InvokerISt5tupleIJPFPvS3_EPN6build29schedulerEEEEEED1Ev@Base 0.14.0
 (optional=templinst)_ZNSt6thread11_State_implINS_8_InvokerISt5tupleIJPFPvS3_EPN6build29schedulerEEEEEED2Ev@Base 0.14.0
 (optional=templinst)_ZNSt6vectorIN4butl10basic_pathIcNS0_13any_path_kindIcEEEENS0_15small_allocatorIS4_Lm1ENS0_22small_allocator_bufferIS4_Lm1EEEEEE17_M_realloc_insertIJRKS4_EEEvN9__gnu_cxx17__normal_iteratorIPS4_S9_EEDpOT_@Base 0.14.0
 (optional=templinst)_ZNSt6vectorIN4butl10basic_pathIcNS0_13any_path_kindIcEEEENS0_15small_allocatorIS4_Lm1ENS0_22small_allocator_bufferIS4_Lm1EEEEEED1Ev@Base 0.14.0
 (optional=templinst)_ZNSt6vectorIN4butl10basic_pathIcNS0_13any_path_kindIcEEEENS0_15small_allocatorIS4_Lm1ENS0_22small_allocator_bufferIS4_Lm1EEEEEED2Ev@Base 0.14.0
 (optional=templinst)_ZNSt6vectorIN4butl10basic_pathIcNS0_13any_path_kindIcEEEESaIS4_EE12emplace_backIJS4_EEERS4_DpOT_@Base 0.14.0
 (optional=templinst)_ZNSt6vectorIN4butl10basic_pathIcNS0_13any_path_kindIcEEEESaIS4_EE15_M_range_insertISt13move_iteratorIN9__gnu_cxx17__normal_iteratorIPS4_S6_EEEEEvSC_T_SE_St20forward_iterator_tag@Base 0.14.0
 (optional=templinst)_ZNSt6vectorIN4butl10basic_pathIcNS0_13any_path_kindIcEEEESaIS4_EE17_M_realloc_insertIJS4_EEEvN9__gnu_cxx17__normal_iteratorIPS4_S6_EEDpOT_@Base 0.14.0
 (optional=templinst)_ZNSt6vectorIN4butl10basic_pathIcNS0_13any_path_kindIcEEEESaIS4_EED1Ev@Base 0.14.0
 (optional=templinst)_ZNSt6vectorIN4butl10basic_pathIcNS0_13any_path_kindIcEEEESaIS4_EED2Ev@Base 0.14.0
 (optional=templinst)_ZNSt6vectorIN4butl10basic_pathIcNS0_13any_path_kindIcEEEESaIS4_EEaSERKS6_@Base 0.14.0
 (optional=templinst)_ZNSt6vectorIN4butl10basic_pathIcNS0_13dir_path_kindIcEEEESaIS4_EE12emplace_backIJS4_EEERS4_DpOT_@Base 0.14.0
 (optional=templinst)_ZNSt6vectorIN4butl10basic_pathIcNS0_13dir_path_kindIcEEEESaIS4_EE15_M_range_insertISt13move_iteratorIN9__gnu_cxx17__normal_iteratorIPS4_S6_EEEEEvSC_T_SE_St20forward_iterator_tag@Base 0.14.0
 (optional=templinst)_ZNSt6vectorIN4butl10basic_pathIcNS0_13dir_path_kindIcEEEESaIS4_EE17_M_realloc_insertIJS4_EEEvN9__gnu_cxx17__normal_iteratorIPS4_S6_EEDpOT_@Base 0.14.0
 (optional=templinst)_ZNSt6vectorIN4butl10basic_pathIcNS0_13dir_path_kindIcEEEESaIS4_EED1Ev@Base 0.14.0
 (optional=templinst)_ZNSt6vectorIN4butl10basic_pathIcNS0_13dir_path_kindIcEEEESaIS4_EED2Ev@Base 0.14.0
 (optional=templinst)_ZNSt6vectorIN4butl10basic_pathIcNS0_13dir_path_kindIcEEEESaIS4_EEaSERKS6_@Base 0.14.0
 (optional=templinst)_ZNSt6vectorIN4butl14fdselect_stateENS0_15small_allocatorIS1_Lm4ENS0_22small_allocator_bufferIS1_Lm4EEEEEE13_M_assign_auxIPKS1_EEvT_SA_St20forward_iterator_tag@Base 0.14.0
 (optional=templinst)_ZNSt6vectorIN4butl14fdselect_stateENS0_15small_allocatorIS1_Lm4ENS0_22small_allocator_bufferIS1_Lm4EEEEEE7reserveEm@Base 0.14.0
 (optional=templinst)_ZNSt6vectorIN4butl7auto_rmINS0_10basic_pathIcNS0_13any_path_kindIcEEEEEENS0_15small_allocatorIS6_Lm8ENS0_22small_allocator_bufferIS6_Lm8EEEEEE17_M_realloc_insertIJRKS5_EEEvN9__gnu_cxx17__normal_iteratorIPS6_SB_EEDpOT_@Base 0.14.0
 (optional=templinst)_ZNSt6vectorIN4butl7auto_rmINS0_10basic_pathIcNS0_13any_path_kindIcEEEEEENS0_15small_allocatorIS6_Lm8ENS0_22small_allocator_bufferIS6_Lm8EEEEEED1Ev@Base 0.14.0
 (optional=templinst)_ZNSt6vectorIN4butl7auto_rmINS0_10basic_pathIcNS0_13any_path_kindIcEEEEEENS0_15small_allocatorIS6_Lm8ENS0_22small_allocator_bufferIS6_Lm8EEEEEED2Ev@Base 0.14.0
 (optional=templinst)_ZNSt6vectorIN6build210attributesEN4butl15small_allocatorIS1_Lm2ENS2_22small_allocator_bufferIS1_Lm2EEEEEE17_M_realloc_insertIJS1_EEEvN9__gnu_cxx17__normal_iteratorIPS1_S7_EEDpOT_@Base 0.14.0
 (optional=templinst)_ZNSt6vectorIN6build210attributesEN4butl15small_allocatorIS1_Lm2ENS2_22small_allocator_bufferIS1_Lm2EEEEEED1Ev@Base 0.14.0
 (optional=templinst)_ZNSt6vectorIN6build210attributesEN4butl15small_allocatorIS1_Lm2ENS2_22small_allocator_bufferIS1_Lm2EEEEEED2Ev@Base 0.14.0
 (optional=templinst)_ZNSt6vectorIN6build210metaopspecEN4butl15small_allocatorIS1_Lm1ENS2_22small_allocator_bufferIS1_Lm1EEEEEE12emplace_backIJS1_EEERS1_DpOT_@Base 0.14.0
 (optional=templinst)_ZNSt6vectorIN6build210metaopspecEN4butl15small_allocatorIS1_Lm1ENS2_22small_allocator_bufferIS1_Lm1EEEEEE13_M_assign_auxIN9__gnu_cxx17__normal_iteratorIPS1_S7_EEEEvT_SD_St20forward_iterator_tag@Base 0.14.0
 (optional=templinst)_ZNSt6vectorIN6build210metaopspecEN4butl15small_allocatorIS1_Lm1ENS2_22small_allocator_bufferIS1_Lm1EEEEEE17_M_realloc_insertIJRKS1_EEEvN9__gnu_cxx17__normal_iteratorIPS1_S7_EEDpOT_@Base 0.14.0
 (optional=templinst)_ZNSt6vectorIN6build210metaopspecEN4butl15small_allocatorIS1_Lm1ENS2_22small_allocator_bufferIS1_Lm1EEEEEE17_M_realloc_insertIJS1_EEEvN9__gnu_cxx17__normal_iteratorIPS1_S7_EEDpOT_@Base 0.14.0
 (optional=templinst)_ZNSt6vectorIN6build210metaopspecEN4butl15small_allocatorIS1_Lm1ENS2_22small_allocator_bufferIS1_Lm1EEEEEED1Ev@Base 0.14.0
 (optional=templinst)_ZNSt6vectorIN6build210metaopspecEN4butl15small_allocatorIS1_Lm1ENS2_22small_allocator_bufferIS1_Lm1EEEEEED2Ev@Base 0.14.0
 (optional=templinst)_ZNSt6vectorIN6build210targetspecEN4butl15small_allocatorIS1_Lm1ENS2_22small_allocator_bufferIS1_Lm1EEEEEE13_M_assign_auxISt13move_iteratorIN9__gnu_cxx17__normal_iteratorIPS1_S7_EEEEEvT_SF_St20forward_iterator_tag@Base 0.14.0
 (optional=templinst)_ZNSt6vectorIN6build210targetspecEN4butl15small_allocatorIS1_Lm1ENS2_22small_allocator_bufferIS1_Lm1EEEEEE17_M_realloc_insertIJNS2_10basic_pathIcNS2_13dir_path_kindIcEEEENS0_4nameEEEEvN9__gnu_cxx17__normal_iteratorIPS1_S7_EEDpOT_@Base 0.14.0
 (optional=templinst)_ZNSt6vectorIN6build210targetspecEN4butl15small_allocatorIS1_Lm1ENS2_22small_allocator_bufferIS1_Lm1EEEEEE7reserveEm@Base 0.14.0
 (optional=templinst)_ZNSt6vectorIN6build210targetspecEN4butl15small_allocatorIS1_Lm1ENS2_22small_allocator_bufferIS1_Lm1EEEEEED1Ev@Base 0.14.0
 (optional=templinst)_ZNSt6vectorIN6build210targetspecEN4butl15small_allocatorIS1_Lm1ENS2_22small_allocator_bufferIS1_Lm1EEEEEED2Ev@Base 0.14.0
 (optional=templinst)_ZNSt6vectorIN6build210targetspecEN4butl15small_allocatorIS1_Lm1ENS2_22small_allocator_bufferIS1_Lm1EEEEEEaSERKS7_@Base 0.14.0
 (optional=templinst)_ZNSt6vectorIN6build212module_stateESaIS1_EE12emplace_backIJS1_EEERS1_DpOT_@Base 0.14.0
 (optional=templinst)_ZNSt6vectorIN6build212module_stateESaIS1_EE17_M_realloc_insertIJS1_EEEvN9__gnu_cxx17__normal_iteratorIPS1_S3_EEDpOT_@Base 0.14.0
 (optional=templinst)_ZNSt6vectorIN6build212prerequisiteESaIS1_EE12emplace_backIJS1_EEERS1_DpOT_@Base 0.14.0
 (optional=templinst)_ZNSt6vectorIN6build212prerequisiteESaIS1_EE17_M_realloc_insertIJS1_EEEvN9__gnu_cxx17__normal_iteratorIPS1_S3_EEDpOT_@Base 0.14.0
 (optional=templinst)_ZNSt6vectorIN6build212prerequisiteESaIS1_EE7reserveEm@Base 0.14.0
 (optional=templinst)_ZNSt6vectorIN6build212prerequisiteESaIS1_EED1Ev@Base 0.14.0
 (optional=templinst)_ZNSt6vectorIN6build212prerequisiteESaIS1_EED2Ev@Base 0.14.0
 (optional=templinst)_ZNSt6vectorIN6build212replay_tokenESaIS1_EE17_M_realloc_insertIJRKS1_EEEvN9__gnu_cxx17__normal_iteratorIPS1_S3_EEDpOT_@Base 0.14.0
 (optional=templinst)_ZNSt6vectorIN6build212replay_tokenESaIS1_EED1Ev@Base 0.14.0
 (optional=templinst)_ZNSt6vectorIN6build212replay_tokenESaIS1_EED2Ev@Base 0.14.0
 (optional=templinst)_ZNSt6vectorIN6build213action_targetESaIS1_EE12emplace_backIJS1_EEERS1_DpOT_@Base 0.14.0
 (optional=templinst)_ZNSt6vectorIN6build213action_targetESaIS1_EE17_M_realloc_insertIJS1_EEEvN9__gnu_cxx17__normal_iteratorIPS1_S3_EEDpOT_@Base 0.14.0
 (optional=templinst)_ZNSt6vectorIN6build217clean_adhoc_extraEN4butl15small_allocatorIS1_Lm2ENS2_22small_allocator_bufferIS1_Lm2EEEEEED1Ev@Base 0.14.0
 (optional=templinst)_ZNSt6vectorIN6build217clean_adhoc_extraEN4butl15small_allocatorIS1_Lm2ENS2_22small_allocator_bufferIS1_Lm2EEEEEED2Ev@Base 0.14.0
 (optional=templinst)_ZNSt6vectorIN6build217function_overloadEN4butl15small_allocatorIS1_Lm8ENS2_22small_allocator_bufferIS1_Lm8EEEEEE12emplace_backIJS1_EEERS1_DpOT_@Base 0.14.0
 (optional=templinst)_ZNSt6vectorIN6build217function_overloadEN4butl15small_allocatorIS1_Lm8ENS2_22small_allocator_bufferIS1_Lm8EEEEEE13_M_assign_auxISt13move_iteratorIN9__gnu_cxx17__normal_iteratorIPS1_S7_EEEEEvT_SF_St20forward_iterator_tag@Base 0.14.0
 (optional=templinst)_ZNSt6vectorIN6build217function_overloadEN4butl15small_allocatorIS1_Lm8ENS2_22small_allocator_bufferIS1_Lm8EEEEEE17_M_realloc_insertIJS1_EEEvN9__gnu_cxx17__normal_iteratorIPS1_S7_EEDpOT_@Base 0.14.0
 (optional=templinst)_ZNSt6vectorIN6build217function_overloadEN4butl15small_allocatorIS1_Lm8ENS2_22small_allocator_bufferIS1_Lm8EEEEEE7reserveEm@Base 0.14.0
 (optional=templinst)_ZNSt6vectorIN6build217variable_overrideESaIS1_EE17_M_realloc_insertIJS1_EEEvN9__gnu_cxx17__normal_iteratorIPS1_S3_EEDpOT_@Base 0.14.0
 (optional=templinst)_ZNSt6vectorIN6build219prerequisite_targetESaIS1_EE12emplace_backIJS1_EEERS1_DpOT_@Base 0.14.0
 (optional=templinst)_ZNSt6vectorIN6build219prerequisite_targetESaIS1_EE17_M_realloc_insertIJRPKNS0_5fsdirENS0_12include_type5valueEEEEvN9__gnu_cxx17__normal_iteratorIPS1_S3_EEDpOT_@Base 0.14.0
 (optional=templinst)_ZNSt6vectorIN6build219prerequisite_targetESaIS1_EE17_M_realloc_insertIJS1_EEEvN9__gnu_cxx17__normal_iteratorIPS1_S3_EEDpOT_@Base 0.14.0
 (optional=templinst)_ZNSt6vectorIN6build224adhoc_rule_regex_pattern7elementESaIS2_EE17_M_realloc_insertIJS2_EEEvN9__gnu_cxx17__normal_iteratorIPS2_S4_EEDpOT_@Base 0.14.0
 (optional=templinst)_ZNSt6vectorIN6build224adhoc_rule_regex_pattern7elementESaIS2_EED1Ev@Base 0.14.0
 (optional=templinst)_ZNSt6vectorIN6build224adhoc_rule_regex_pattern7elementESaIS2_EED2Ev@Base 0.14.0
 (optional=templinst)_ZNSt6vectorIN6build24nameEN4butl15small_allocatorIS1_Lm1ENS2_22small_allocator_bufferIS1_Lm1EEEEEE12emplace_backIJNSt7__cxx1112basic_stringIcSt11char_traitsIcESaIcEEEEEERS1_DpOT_@Base 0.14.0
 (optional=templinst)_ZNSt6vectorIN6build24nameEN4butl15small_allocatorIS1_Lm1ENS2_22small_allocator_bufferIS1_Lm1EEEEEE12emplace_backIJS1_EEERS1_DpOT_@Base 0.14.0
 (optional=templinst)_ZNSt6vectorIN6build24nameEN4butl15small_allocatorIS1_Lm1ENS2_22small_allocator_bufferIS1_Lm1EEEEEE13_M_assign_auxIPKS1_EEvT_SB_St20forward_iterator_tag@Base 0.14.0
 (optional=templinst)_ZNSt6vectorIN6build24nameEN4butl15small_allocatorIS1_Lm1ENS2_22small_allocator_bufferIS1_Lm1EEEEEE13_M_assign_auxISt13move_iteratorIN9__gnu_cxx17__normal_iteratorIPS1_S7_EEEEEvT_SF_St20forward_iterator_tag@Base 0.14.0
 (optional=templinst)_ZNSt6vectorIN6build24nameEN4butl15small_allocatorIS1_Lm1ENS2_22small_allocator_bufferIS1_Lm1EEEEEE13_M_assign_auxISt13move_iteratorIPS1_EEEvT_SC_St20forward_iterator_tag@Base 0.14.0
 (optional=templinst)_ZNSt6vectorIN6build24nameEN4butl15small_allocatorIS1_Lm1ENS2_22small_allocator_bufferIS1_Lm1EEEEEE14_M_move_assignEOS7_St17integral_constantIbLb0EE@Base 0.14.0
 (optional=templinst)_ZNSt6vectorIN6build24nameEN4butl15small_allocatorIS1_Lm1ENS2_22small_allocator_bufferIS1_Lm1EEEEEE15_M_range_insertISt13move_iteratorIN9__gnu_cxx17__normal_iteratorIPS1_S7_EEEEEvSD_T_SF_St20forward_iterator_tag@Base 0.14.0
 (optional=templinst)_ZNSt6vectorIN6build24nameEN4butl15small_allocatorIS1_Lm1ENS2_22small_allocator_bufferIS1_Lm1EEEEEE17_M_default_appendEm@Base 0.14.0
 (optional=templinst)_ZNSt6vectorIN6build24nameEN4butl15small_allocatorIS1_Lm1ENS2_22small_allocator_bufferIS1_Lm1EEEEEE17_M_realloc_insertIJRKNS2_10basic_pathIcNS2_13dir_path_kindIcEEEEEEEvN9__gnu_cxx17__normal_iteratorIPS1_S7_EEDpOT_@Base 0.14.0
 (optional=templinst)_ZNSt6vectorIN6build24nameEN4butl15small_allocatorIS1_Lm1ENS2_22small_allocator_bufferIS1_Lm1EEEEEE17_M_realloc_insertIJRKNS2_10basic_pathIcNS2_13dir_path_kindIcEEEERKPKcNSt7__cxx1112basic_stringIcSt11char_traitsIcESaIcEEEEEEvN9__gnu_cxx17__normal_iteratorIPS1_S7_EEDpOT_@Base 0.14.0
 (optional=templinst)_ZNSt6vectorIN6build24nameEN4butl15small_allocatorIS1_Lm1ENS2_22small_allocator_bufferIS1_Lm1EEEEEE17_M_realloc_insertIJRKNSt7__cxx1112basic_stringIcSt11char_traitsIcESaIcEEEEEEvN9__gnu_cxx17__normal_iteratorIPS1_S7_EEDpOT_@Base 0.14.0
 (optional=templinst)_ZNSt6vectorIN6build24nameEN4butl15small_allocatorIS1_Lm1ENS2_22small_allocator_bufferIS1_Lm1EEEEEE17_M_realloc_insertIJRKS1_EEEvN9__gnu_cxx17__normal_iteratorIPS1_S7_EEDpOT_@Base 0.14.0
 (optional=templinst)_ZNSt6vectorIN6build24nameEN4butl15small_allocatorIS1_Lm1ENS2_22small_allocator_bufferIS1_Lm1EEEEEE17_M_realloc_insertIJRPKcEEEvN9__gnu_cxx17__normal_iteratorIPS1_S7_EEDpOT_@Base 0.14.0
 (optional=templinst)_ZNSt6vectorIN6build24nameEN4butl15small_allocatorIS1_Lm1ENS2_22small_allocator_bufferIS1_Lm1EEEEEE17_M_realloc_insertIJS1_EEEvN9__gnu_cxx17__normal_iteratorIPS1_S7_EEDpOT_@Base 0.14.0
 (optional=templinst)_ZNSt6vectorIN6build24nameEN4butl15small_allocatorIS1_Lm1ENS2_22small_allocator_bufferIS1_Lm1EEEEEE7reserveEm@Base 0.14.0
 (optional=templinst)_ZNSt6vectorIN6build24nameEN4butl15small_allocatorIS1_Lm1ENS2_22small_allocator_bufferIS1_Lm1EEEEEE8_M_eraseEN9__gnu_cxx17__normal_iteratorIPS1_S7_EE@Base 0.14.0
 (optional=templinst)_ZNSt6vectorIN6build24nameEN4butl15small_allocatorIS1_Lm1ENS2_22small_allocator_bufferIS1_Lm1EEEEEE8_M_eraseEN9__gnu_cxx17__normal_iteratorIPS1_S7_EESB_@Base 0.14.0
 (optional=templinst)_ZNSt6vectorIN6build24nameEN4butl15small_allocatorIS1_Lm1ENS2_22small_allocator_bufferIS1_Lm1EEEEEE9push_backERKS1_@Base 0.14.0
 (optional=templinst)_ZNSt6vectorIN6build24nameEN4butl15small_allocatorIS1_Lm1ENS2_22small_allocator_bufferIS1_Lm1EEEEEED1Ev@Base 0.14.0
 (optional=templinst)_ZNSt6vectorIN6build24nameEN4butl15small_allocatorIS1_Lm1ENS2_22small_allocator_bufferIS1_Lm1EEEEEED2Ev@Base 0.14.0
 (optional=templinst)_ZNSt6vectorIN6build24nameEN4butl15small_allocatorIS1_Lm1ENS2_22small_allocator_bufferIS1_Lm1EEEEEEaSERKS7_@Base 0.14.0
 (optional=templinst)_ZNSt6vectorIN6build24nameESaIS1_EE12emplace_backIJS1_EEERS1_DpOT_@Base 0.14.0
 (optional=templinst)_ZNSt6vectorIN6build24nameESaIS1_EE15_M_range_insertISt13move_iteratorIN9__gnu_cxx17__normal_iteratorIPS1_S3_EEEEEvS9_T_SB_St20forward_iterator_tag@Base 0.14.0
 (optional=templinst)_ZNSt6vectorIN6build24nameESaIS1_EED1Ev@Base 0.14.0
 (optional=templinst)_ZNSt6vectorIN6build24nameESaIS1_EED2Ev@Base 0.14.0
 (optional=templinst)_ZNSt6vectorIN6build24nameESaIS1_EEaSERKS3_@Base 0.14.0
 (optional=templinst)_ZNSt6vectorIN6build24test6script11scope_stateESaIS3_EE17_M_realloc_insertIJS3_EEEvN9__gnu_cxx17__normal_iteratorIPS3_S5_EEDpOT_@Base 0.14.0
 (optional=templinst)_ZNSt6vectorIN6build25valueEN4butl15small_allocatorIS1_Lm1ENS2_22small_allocator_bufferIS1_Lm1EEEEEE12emplace_backIJS1_EEERS1_DpOT_@Base 0.14.0
 (optional=templinst)_ZNSt6vectorIN6build25valueEN4butl15small_allocatorIS1_Lm1ENS2_22small_allocator_bufferIS1_Lm1EEEEEE13_M_assign_auxIN9__gnu_cxx17__normal_iteratorIPS1_S7_EEEEvT_SD_St20forward_iterator_tag@Base 0.14.0
 (optional=templinst)_ZNSt6vectorIN6build25valueEN4butl15small_allocatorIS1_Lm1ENS2_22small_allocator_bufferIS1_Lm1EEEEEE17_M_realloc_insertIJS1_EEEvN9__gnu_cxx17__normal_iteratorIPS1_S7_EEDpOT_@Base 0.14.0
 (optional=templinst)_ZNSt6vectorIN6build25valueEN4butl15small_allocatorIS1_Lm1ENS2_22small_allocator_bufferIS1_Lm1EEEEEE7reserveEm@Base 0.14.0
 (optional=templinst)_ZNSt6vectorIN6build25valueEN4butl15small_allocatorIS1_Lm1ENS2_22small_allocator_bufferIS1_Lm1EEEEEED1Ev@Base 0.14.0
 (optional=templinst)_ZNSt6vectorIN6build25valueEN4butl15small_allocatorIS1_Lm1ENS2_22small_allocator_bufferIS1_Lm1EEEEEED2Ev@Base 0.14.0
 (optional=templinst)_ZNSt6vectorIN6build25valueEN4butl15small_allocatorIS1_Lm1ENS2_22small_allocator_bufferIS1_Lm1EEEEEEaSERKS7_@Base 0.14.0
 (optional=templinst)_ZNSt6vectorIN6build25valueEN4butl15small_allocatorIS1_Lm2ENS2_22small_allocator_bufferIS1_Lm2EEEEEE12emplace_backIJS1_EEERS1_DpOT_@Base 0.14.0
 (optional=templinst)_ZNSt6vectorIN6build25valueEN4butl15small_allocatorIS1_Lm2ENS2_22small_allocator_bufferIS1_Lm2EEEEEE17_M_realloc_insertIJS1_EEEvN9__gnu_cxx17__normal_iteratorIPS1_S7_EEDpOT_@Base 0.14.0
 (optional=templinst)_ZNSt6vectorIN6build25valueEN4butl15small_allocatorIS1_Lm2ENS2_22small_allocator_bufferIS1_Lm2EEEEEED1Ev@Base 0.14.0
 (optional=templinst)_ZNSt6vectorIN6build25valueEN4butl15small_allocatorIS1_Lm2ENS2_22small_allocator_bufferIS1_Lm2EEEEEED2Ev@Base 0.14.0
 (optional=templinst)_ZNSt6vectorIN6build25valueEN4butl15small_allocatorIS1_Lm3ENS2_22small_allocator_bufferIS1_Lm3EEEEEE13_M_assign_auxIPKS1_EEvT_SB_St20forward_iterator_tag@Base 0.14.0
 (optional=templinst)_ZNSt6vectorIN6build25valueEN4butl15small_allocatorIS1_Lm3ENS2_22small_allocator_bufferIS1_Lm3EEEEEE17_M_realloc_insertIJS1_EEEvN9__gnu_cxx17__normal_iteratorIPS1_S7_EEDpOT_@Base 0.14.0
 (optional=templinst)_ZNSt6vectorIN6build25valueEN4butl15small_allocatorIS1_Lm3ENS2_22small_allocator_bufferIS1_Lm3EEEEEED1Ev@Base 0.14.0
 (optional=templinst)_ZNSt6vectorIN6build25valueEN4butl15small_allocatorIS1_Lm3ENS2_22small_allocator_bufferIS1_Lm3EEEEEED2Ev@Base 0.14.0
 (optional=templinst)_ZNSt6vectorIN6build26actionEN4butl15small_allocatorIS1_Lm1ENS2_22small_allocator_bufferIS1_Lm1EEEEEE17_M_realloc_insertIJRKS1_EEEvN9__gnu_cxx17__normal_iteratorIPS1_S7_EEDpOT_@Base 0.14.0
 (optional=templinst)_ZNSt6vectorIN6build26config14saved_variableESaIS2_EE17_M_realloc_insertIJS2_EEEvN9__gnu_cxx17__normal_iteratorIPS2_S4_EEDpOT_@Base 0.14.0
 (optional=templinst)_ZNSt6vectorIN6build26opspecEN4butl15small_allocatorIS1_Lm1ENS2_22small_allocator_bufferIS1_Lm1EEEEEE12emplace_backIJS1_EEERS1_DpOT_@Base 0.14.0
 (optional=templinst)_ZNSt6vectorIN6build26opspecEN4butl15small_allocatorIS1_Lm1ENS2_22small_allocator_bufferIS1_Lm1EEEEEE13_M_assign_auxIN9__gnu_cxx17__normal_iteratorIPS1_S7_EEEEvT_SD_St20forward_iterator_tag@Base 0.14.0
 (optional=templinst)_ZNSt6vectorIN6build26opspecEN4butl15small_allocatorIS1_Lm1ENS2_22small_allocator_bufferIS1_Lm1EEEEEE17_M_realloc_insertIJRKS1_EEEvN9__gnu_cxx17__normal_iteratorIPS1_S7_EEDpOT_@Base 0.14.0
 (optional=templinst)_ZNSt6vectorIN6build26opspecEN4butl15small_allocatorIS1_Lm1ENS2_22small_allocator_bufferIS1_Lm1EEEEEE17_M_realloc_insertIJS1_EEEvN9__gnu_cxx17__normal_iteratorIPS1_S7_EEDpOT_@Base 0.14.0
 (optional=templinst)_ZNSt6vectorIN6build26opspecEN4butl15small_allocatorIS1_Lm1ENS2_22small_allocator_bufferIS1_Lm1EEEEEE7reserveEm@Base 0.14.0
 (optional=templinst)_ZNSt6vectorIN6build26opspecEN4butl15small_allocatorIS1_Lm1ENS2_22small_allocator_bufferIS1_Lm1EEEEEED1Ev@Base 0.14.0
 (optional=templinst)_ZNSt6vectorIN6build26opspecEN4butl15small_allocatorIS1_Lm1ENS2_22small_allocator_bufferIS1_Lm1EEEEEED2Ev@Base 0.14.0
 (optional=templinst)_ZNSt6vectorIN6build26opspecEN4butl15small_allocatorIS1_Lm1ENS2_22small_allocator_bufferIS1_Lm1EEEEEEaSERKS7_@Base 0.14.0
 (optional=templinst)_ZNSt6vectorIN6build26parser15adhoc_names_locEN4butl15small_allocatorIS2_Lm1ENS3_22small_allocator_bufferIS2_Lm1EEEEEE17_M_default_appendEm@Base 0.14.0
 (optional=templinst)_ZNSt6vectorIN6build26parser15adhoc_names_locEN4butl15small_allocatorIS2_Lm1ENS3_22small_allocator_bufferIS2_Lm1EEEEEED1Ev@Base 0.14.0
 (optional=templinst)_ZNSt6vectorIN6build26parser15adhoc_names_locEN4butl15small_allocatorIS2_Lm1ENS3_22small_allocator_bufferIS2_Lm1EEEEEED2Ev@Base 0.14.0
 (optional=templinst)_ZNSt6vectorIN6build26script10regex_lineEN4butl15small_allocatorIS2_Lm8ENS3_22small_allocator_bufferIS2_Lm8EEEEEE12emplace_backIJRKmSB_NSt7__cxx1112basic_stringIcSt11char_traitsIcESaIcEEESH_EEERS2_DpOT_@Base 0.14.0
 (optional=templinst)_ZNSt6vectorIN6build26script10regex_lineEN4butl15small_allocatorIS2_Lm8ENS3_22small_allocator_bufferIS2_Lm8EEEEEE12emplace_backIJRKmSB_NSt7__cxx1112basic_stringIcSt11char_traitsIcESaIcEEEbEEERS2_DpOT_@Base 0.14.0
 (optional=templinst)_ZNSt6vectorIN6build26script10regex_lineEN4butl15small_allocatorIS2_Lm8ENS3_22small_allocator_bufferIS2_Lm8EEEEEE12emplace_backIJRmSA_NSt7__cxx1112basic_stringIcSt11char_traitsIcESaIcEEEbEEERS2_DpOT_@Base 0.14.0
 (optional=templinst)_ZNSt6vectorIN6build26script10regex_lineEN4butl15small_allocatorIS2_Lm8ENS3_22small_allocator_bufferIS2_Lm8EEEEEE13_M_assign_auxISt13move_iteratorIN9__gnu_cxx17__normal_iteratorIPS2_S8_EEEEEvT_SG_St20forward_iterator_tag@Base 0.14.0
 (optional=templinst)_ZNSt6vectorIN6build26script10regex_lineEN4butl15small_allocatorIS2_Lm8ENS3_22small_allocator_bufferIS2_Lm8EEEEEE7reserveEm@Base 0.14.0
 (optional=templinst)_ZNSt6vectorIN6build26script10regex_lineEN4butl15small_allocatorIS2_Lm8ENS3_22small_allocator_bufferIS2_Lm8EEEEEED1Ev@Base 0.14.0
 (optional=templinst)_ZNSt6vectorIN6build26script10regex_lineEN4butl15small_allocatorIS2_Lm8ENS3_22small_allocator_bufferIS2_Lm8EEEEEED2Ev@Base 0.14.0
 (optional=templinst)_ZNSt6vectorIN6build26script10regex_lineEN4butl15small_allocatorIS2_Lm8ENS3_22small_allocator_bufferIS2_Lm8EEEEEEaSERKS8_@Base 0.14.0
 (optional=templinst)_ZNSt6vectorIN6build26script4lineEN4butl15small_allocatorIS2_Lm1ENS3_22small_allocator_bufferIS2_Lm1EEEEEE12emplace_backIJS2_EEERS2_DpOT_@Base 0.14.0
 (optional=templinst)_ZNSt6vectorIN6build26script4lineEN4butl15small_allocatorIS2_Lm1ENS3_22small_allocator_bufferIS2_Lm1EEEEEE13_M_assign_auxISt13move_iteratorIN9__gnu_cxx17__normal_iteratorIPS2_S8_EEEEEvT_SG_St20forward_iterator_tag@Base 0.14.0
 (optional=templinst)_ZNSt6vectorIN6build26script4lineEN4butl15small_allocatorIS2_Lm1ENS3_22small_allocator_bufferIS2_Lm1EEEEEE14_M_move_assignEOS8_St17integral_constantIbLb0EE@Base 0.14.0
 (optional=templinst)_ZNSt6vectorIN6build26script4lineEN4butl15small_allocatorIS2_Lm1ENS3_22small_allocator_bufferIS2_Lm1EEEEEE15_M_range_insertISt13move_iteratorIN9__gnu_cxx17__normal_iteratorIPS2_S8_EEEEEvSE_T_SG_St20forward_iterator_tag@Base 0.14.0
 (optional=templinst)_ZNSt6vectorIN6build26script4lineEN4butl15small_allocatorIS2_Lm1ENS3_22small_allocator_bufferIS2_Lm1EEEEEE17_M_realloc_insertIJS2_EEEvN9__gnu_cxx17__normal_iteratorIPS2_S8_EEDpOT_@Base 0.14.0
 (optional=templinst)_ZNSt6vectorIN6build26script4lineEN4butl15small_allocatorIS2_Lm1ENS3_22small_allocator_bufferIS2_Lm1EEEEEED1Ev@Base 0.14.0
 (optional=templinst)_ZNSt6vectorIN6build26script4lineEN4butl15small_allocatorIS2_Lm1ENS3_22small_allocator_bufferIS2_Lm1EEEEEED2Ev@Base 0.14.0
 (optional=templinst)_ZNSt6vectorIN6build26script5regex9line_charESaIS3_EE12emplace_backIJS3_EEERS3_DpOT_@Base 0.14.0
 (optional=templinst)_ZNSt6vectorIN6build26script5regex9line_charESaIS3_EE17_M_realloc_insertIJS3_EEEvN9__gnu_cxx17__normal_iteratorIPS3_S5_EEDpOT_@Base 0.14.0
 (optional=templinst)_ZNSt6vectorIN6build26script5regex9line_charESaIS3_EE8_M_eraseEN9__gnu_cxx17__normal_iteratorIPS3_S5_EES9_@Base 0.14.0
 (optional=templinst)_ZNSt6vectorIN6build26script6parser13here_redirectEN4butl15small_allocatorIS3_Lm2ENS4_22small_allocator_bufferIS3_Lm2EEEEEE13_M_assign_auxIPKS3_EEvT_SD_St20forward_iterator_tag@Base 0.14.0
 (optional=templinst)_ZNSt6vectorIN6build26script6parser13here_redirectEN4butl15small_allocatorIS3_Lm2ENS4_22small_allocator_bufferIS3_Lm2EEEEEE13_M_assign_auxISt13move_iteratorIN9__gnu_cxx17__normal_iteratorIPS3_S9_EEEEEvT_SH_St20forward_iterator_tag@Base 0.14.0
 (optional=templinst)_ZNSt6vectorIN6build26script6parser13here_redirectEN4butl15small_allocatorIS3_Lm2ENS4_22small_allocator_bufferIS3_Lm2EEEEEE17_M_realloc_insertIJRS3_EEEvN9__gnu_cxx17__normal_iteratorIPS3_S9_EEDpOT_@Base 0.14.0
 (optional=templinst)_ZNSt6vectorIN6build26script6parser13here_redirectEN4butl15small_allocatorIS3_Lm2ENS4_22small_allocator_bufferIS3_Lm2EEEEEE7reserveEm@Base 0.14.0
 (optional=templinst)_ZNSt6vectorIN6build26script6parser13here_redirectEN4butl15small_allocatorIS3_Lm2ENS4_22small_allocator_bufferIS3_Lm2EEEEEEaSERKS9_@Base 0.14.0
 (optional=templinst)_ZNSt6vectorIN6build26script6parser8here_docESaIS3_EE12emplace_backIJS3_EEERS3_DpOT_@Base 0.14.0
 (optional=templinst)_ZNSt6vectorIN6build26script6parser8here_docESaIS3_EE17_M_realloc_insertIJS3_EEEvN9__gnu_cxx17__normal_iteratorIPS3_S5_EEDpOT_@Base 0.14.0
 (optional=templinst)_ZNSt6vectorIN6build26script6parser8here_docESaIS3_EED1Ev@Base 0.14.0
 (optional=templinst)_ZNSt6vectorIN6build26script6parser8here_docESaIS3_EED2Ev@Base 0.14.0
 (optional=templinst)_ZNSt6vectorIN6build26script7cleanupESaIS2_EE15_M_range_insertISt13move_iteratorIN9__gnu_cxx17__normal_iteratorIPS2_S4_EEEEEvSA_T_SC_St20forward_iterator_tag@Base 0.14.0
 (optional=templinst)_ZNSt6vectorIN6build26script7cleanupESaIS2_EE17_M_realloc_insertIJS2_EEEvN9__gnu_cxx17__normal_iteratorIPS2_S4_EEDpOT_@Base 0.14.0
 (optional=templinst)_ZNSt6vectorIN6build26script7cleanupESaIS2_EE8_M_eraseEN9__gnu_cxx17__normal_iteratorIPS2_S4_EE@Base 0.14.0
 (optional=templinst)_ZNSt6vectorIN6build26script7commandESaIS2_EE12emplace_backIJS2_EEERS2_DpOT_@Base 0.14.0
 (optional=templinst)_ZNSt6vectorIN6build26script7commandESaIS2_EE17_M_realloc_insertIJS2_EEEvN9__gnu_cxx17__normal_iteratorIPS2_S4_EEDpOT_@Base 0.14.0
 (optional=templinst)_ZNSt6vectorIN6build26script7commandESaIS2_EED1Ev@Base 0.14.0
 (optional=templinst)_ZNSt6vectorIN6build26script7commandESaIS2_EED2Ev@Base 0.14.0
 (optional=templinst)_ZNSt6vectorIN6build26script9expr_termESaIS2_EE12emplace_backIJS2_EEERS2_DpOT_@Base 0.14.0
 (optional=templinst)_ZNSt6vectorIN6build26script9expr_termESaIS2_EE17_M_realloc_insertIJS2_EEEvN9__gnu_cxx17__normal_iteratorIPS2_S4_EEDpOT_@Base 0.14.0
 (optional=templinst)_ZNSt6vectorIN6build26script9expr_termESaIS2_EED1Ev@Base 0.14.0
 (optional=templinst)_ZNSt6vectorIN6build26script9expr_termESaIS2_EED2Ev@Base 0.14.0
 (optional=templinst)_ZNSt6vectorIN6build27install11install_dirESaIS2_EE12emplace_backIJN4butl10basic_pathIcNS6_13dir_path_kindIcEEEEEEERS2_DpOT_@Base 0.14.0
 (optional=templinst)_ZNSt6vectorIN6build27install11install_dirESaIS2_EE12emplace_backIJN4butl10basic_pathIcNS6_13dir_path_kindIcEEEERS2_EEESB_DpOT_@Base 0.14.0
 (optional=templinst)_ZNSt6vectorIN6build27install11install_dirESaIS2_EED1Ev@Base 0.14.0
 (optional=templinst)_ZNSt6vectorIN6build27install11install_dirESaIS2_EED2Ev@Base 0.14.0
 (optional=templinst)_ZNSt6vectorIN6build28backlinkEN4butl15small_allocatorIS1_Lm1ENS2_22small_allocator_bufferIS1_Lm1EEEEEE13_M_assign_auxISt13move_iteratorIN9__gnu_cxx17__normal_iteratorIPS1_S7_EEEEEvT_SF_St20forward_iterator_tag@Base 0.14.0
 (optional=templinst)_ZNSt6vectorIN6build28backlinkEN4butl15small_allocatorIS1_Lm1ENS2_22small_allocator_bufferIS1_Lm1EEEEEED1Ev@Base 0.14.0
 (optional=templinst)_ZNSt6vectorIN6build28backlinkEN4butl15small_allocatorIS1_Lm1ENS2_22small_allocator_bufferIS1_Lm1EEEEEED2Ev@Base 0.14.0
 (optional=templinst)_ZNSt6vectorIN6build29attributeEN4butl15small_allocatorIS1_Lm1ENS2_22small_allocator_bufferIS1_Lm1EEEEEE13_M_assign_auxIN9__gnu_cxx17__normal_iteratorIPS1_S7_EEEEvT_SD_St20forward_iterator_tag@Base 0.14.0
 (optional=templinst)_ZNSt6vectorIN6build29attributeEN4butl15small_allocatorIS1_Lm1ENS2_22small_allocator_bufferIS1_Lm1EEEEEE17_M_realloc_insertIJS1_EEEvN9__gnu_cxx17__normal_iteratorIPS1_S7_EEDpOT_@Base 0.14.0
 (optional=templinst)_ZNSt6vectorIN6build29attributeEN4butl15small_allocatorIS1_Lm1ENS2_22small_allocator_bufferIS1_Lm1EEEEEE7reserveEm@Base 0.14.0
 (optional=templinst)_ZNSt6vectorIN6build29attributeEN4butl15small_allocatorIS1_Lm1ENS2_22small_allocator_bufferIS1_Lm1EEEEEE8_M_eraseEN9__gnu_cxx17__normal_iteratorIPS1_S7_EE@Base 0.14.0
 (optional=templinst)_ZNSt6vectorIN6build29attributeEN4butl15small_allocatorIS1_Lm1ENS2_22small_allocator_bufferIS1_Lm1EEEEEED1Ev@Base 0.14.0
 (optional=templinst)_ZNSt6vectorIN6build29attributeEN4butl15small_allocatorIS1_Lm1ENS2_22small_allocator_bufferIS1_Lm1EEEEEED2Ev@Base 0.14.0
 (optional=templinst)_ZNSt6vectorIN6build29attributeEN4butl15small_allocatorIS1_Lm1ENS2_22small_allocator_bufferIS1_Lm1EEEEEEaSERKS7_@Base 0.14.0
 (optional=templinst)_ZNSt6vectorINSt7__cxx1112basic_stringIN6build26script5regex9line_charESt11char_traitsIS5_ESaIS5_EEESaIS9_EED1Ev@Base 0.14.0
 (optional=templinst)_ZNSt6vectorINSt7__cxx1112basic_stringIN6build26script5regex9line_charESt11char_traitsIS5_ESaIS5_EEESaIS9_EED2Ev@Base 0.14.0
 (optional=templinst)_ZNSt6vectorINSt7__cxx1112basic_stringIcSt11char_traitsIcESaIcEEEN4butl15small_allocatorIS5_Lm16ENS6_22small_allocator_bufferIS5_Lm16EEEEEE12emplace_backIJS5_EEERS5_DpOT_@Base 0.14.0
 (optional=templinst)_ZNSt6vectorINSt7__cxx1112basic_stringIcSt11char_traitsIcESaIcEEEN4butl15small_allocatorIS5_Lm16ENS6_22small_allocator_bufferIS5_Lm16EEEEEE17_M_realloc_insertIJS5_EEEvN9__gnu_cxx17__normal_iteratorIPS5_SB_EEDpOT_@Base 0.14.0
 (optional=templinst)_ZNSt6vectorINSt7__cxx1112basic_stringIcSt11char_traitsIcESaIcEEEN4butl15small_allocatorIS5_Lm16ENS6_22small_allocator_bufferIS5_Lm16EEEEEED1Ev@Base 0.14.0
 (optional=templinst)_ZNSt6vectorINSt7__cxx1112basic_stringIcSt11char_traitsIcESaIcEEEN4butl15small_allocatorIS5_Lm16ENS6_22small_allocator_bufferIS5_Lm16EEEEEED2Ev@Base 0.14.0
 (optional=templinst)_ZNSt6vectorINSt7__cxx1112basic_stringIcSt11char_traitsIcESaIcEEEN4butl15small_allocatorIS5_Lm2ENS6_22small_allocator_bufferIS5_Lm2EEEEEE13_M_assign_auxISt13move_iteratorIN9__gnu_cxx17__normal_iteratorIPS5_SB_EEEEEvT_SJ_St20forward_iterator_tag@Base 0.14.0
 (optional=templinst)_ZNSt6vectorINSt7__cxx1112basic_stringIcSt11char_traitsIcESaIcEEEN4butl15small_allocatorIS5_Lm2ENS6_22small_allocator_bufferIS5_Lm2EEEEEE17_M_realloc_insertIJS5_EEEvN9__gnu_cxx17__normal_iteratorIPS5_SB_EEDpOT_@Base 0.14.0
 (optional=templinst)_ZNSt6vectorINSt7__cxx1112basic_stringIcSt11char_traitsIcESaIcEEEN4butl15small_allocatorIS5_Lm2ENS6_22small_allocator_bufferIS5_Lm2EEEEEED1Ev@Base 0.14.0
 (optional=templinst)_ZNSt6vectorINSt7__cxx1112basic_stringIcSt11char_traitsIcESaIcEEEN4butl15small_allocatorIS5_Lm2ENS6_22small_allocator_bufferIS5_Lm2EEEEEED2Ev@Base 0.14.0
 (optional=templinst)_ZNSt6vectorINSt7__cxx1112basic_stringIcSt11char_traitsIcESaIcEEEN4butl15small_allocatorIS5_Lm4ENS6_22small_allocator_bufferIS5_Lm4EEEEEE13_M_assign_auxISt13move_iteratorIN9__gnu_cxx17__normal_iteratorIPS5_SB_EEEEEvT_SJ_St20forward_iterator_tag@Base 0.14.0
 (optional=templinst)_ZNSt6vectorINSt7__cxx1112basic_stringIcSt11char_traitsIcESaIcEEEN4butl15small_allocatorIS5_Lm4ENS6_22small_allocator_bufferIS5_Lm4EEEEEE17_M_realloc_insertIJS5_EEEvN9__gnu_cxx17__normal_iteratorIPS5_SB_EEDpOT_@Base 0.14.0
 (optional=templinst)_ZNSt6vectorINSt7__cxx1112basic_stringIcSt11char_traitsIcESaIcEEEN4butl15small_allocatorIS5_Lm4ENS6_22small_allocator_bufferIS5_Lm4EEEEEE7reserveEm@Base 0.14.0
 (optional=templinst)_ZNSt6vectorINSt7__cxx1112basic_stringIcSt11char_traitsIcESaIcEEEN4butl15small_allocatorIS5_Lm4ENS6_22small_allocator_bufferIS5_Lm4EEEEEED1Ev@Base 0.14.0
 (optional=templinst)_ZNSt6vectorINSt7__cxx1112basic_stringIcSt11char_traitsIcESaIcEEEN4butl15small_allocatorIS5_Lm4ENS6_22small_allocator_bufferIS5_Lm4EEEEEED2Ev@Base 0.14.0
 (optional=templinst)_ZNSt6vectorINSt7__cxx1112basic_stringIcSt11char_traitsIcESaIcEEEN4butl15small_allocatorIS5_Lm4ENS6_22small_allocator_bufferIS5_Lm4EEEEEEaSERKSB_@Base 0.14.0
 (optional=templinst)_ZNSt6vectorINSt7__cxx1112basic_stringIcSt11char_traitsIcESaIcEEESaIS5_EE12emplace_backIJS5_EEERS5_DpOT_@Base 0.14.0
 (optional=templinst)_ZNSt6vectorINSt7__cxx1112basic_stringIcSt11char_traitsIcESaIcEEESaIS5_EE15_M_range_insertIN9__gnu_cxx17__normal_iteratorIPKS5_S7_EEEEvNSA_IPS5_S7_EET_SG_St20forward_iterator_tag@Base 0.14.0
 (optional=templinst)_ZNSt6vectorINSt7__cxx1112basic_stringIcSt11char_traitsIcESaIcEEESaIS5_EE15_M_range_insertISt13move_iteratorIN9__gnu_cxx17__normal_iteratorIPS5_S7_EEEEEvSD_T_SF_St20forward_iterator_tag@Base 0.14.0
 (optional=templinst)_ZNSt6vectorINSt7__cxx1112basic_stringIcSt11char_traitsIcESaIcEEESaIS5_EE17_M_realloc_insertIJRKS5_EEEvN9__gnu_cxx17__normal_iteratorIPS5_S7_EEDpOT_@Base 0.14.0
 (optional=templinst)_ZNSt6vectorINSt7__cxx1112basic_stringIcSt11char_traitsIcESaIcEEESaIS5_EE17_M_realloc_insertIJS5_EEEvN9__gnu_cxx17__normal_iteratorIPS5_S7_EEDpOT_@Base 0.14.0
 (optional=templinst)_ZNSt6vectorINSt7__cxx1112basic_stringIcSt11char_traitsIcESaIcEEESaIS5_EED1Ev@Base 0.14.0
 (optional=templinst)_ZNSt6vectorINSt7__cxx1112basic_stringIcSt11char_traitsIcESaIcEEESaIS5_EED2Ev@Base 0.14.0
 (optional=templinst)_ZNSt6vectorINSt7__cxx1112basic_stringIcSt11char_traitsIcESaIcEEESaIS5_EEaSERKS7_@Base 0.14.0
 (optional=templinst)_ZNSt6vectorINSt7__cxx1112regex_traitsIcE10_RegexMaskESaIS3_EE17_M_realloc_insertIJRKS3_EEEvN9__gnu_cxx17__normal_iteratorIPS3_S5_EEDpOT_@Base 0.14.0
 (optional=templinst)_ZNSt6vectorINSt7__cxx119sub_matchIN9__gnu_cxx17__normal_iteratorIPKN6build26script5regex9line_charENS0_12basic_stringIS7_St11char_traitsIS7_ESaIS7_EEEEEEESaISG_EE17_M_default_appendEm@Base 0.14.0
 (optional=templinst)_ZNSt6vectorINSt7__cxx119sub_matchIN9__gnu_cxx17__normal_iteratorIPKN6build26script5regex9line_charENS0_12basic_stringIS7_St11char_traitsIS7_ESaIS7_EEEEEEESaISG_EEaSERKSI_@Base 0.14.0
 (optional=templinst)_ZNSt6vectorINSt7__cxx119sub_matchIN9__gnu_cxx17__normal_iteratorIPKcNS0_12basic_stringIcSt11char_traitsIcESaIcEEEEEEESaISC_EE17_M_default_appendEm@Base 0.14.0
 (optional=templinst)_ZNSt6vectorINSt7__cxx119sub_matchIN9__gnu_cxx17__normal_iteratorIPKcNS0_12basic_stringIcSt11char_traitsIcESaIcEEEEEEESaISC_EEaSERKSE_@Base 0.14.0
 (optional=templinst)_ZNSt6vectorINSt8__detail6_StateIN6build26script5regex9line_charEEESaIS6_EE17_M_realloc_insertIJS6_EEEvN9__gnu_cxx17__normal_iteratorIPS6_S8_EEDpOT_@Base 0.14.0
 (optional=templinst)_ZNSt6vectorINSt8__detail6_StateIcEESaIS2_EE17_M_realloc_insertIJS2_EEEvN9__gnu_cxx17__normal_iteratorIPS2_S4_EEDpOT_@Base 0.14.0
 (optional=templinst)_ZNSt6vectorIPFbN6build26actionERKNS0_5scopeEEN4butl15small_allocatorIS6_Lm1ENS7_22small_allocator_bufferIS6_Lm1EEEEEE17_M_realloc_insertIJRKS6_EEEvN9__gnu_cxx17__normal_iteratorIPS6_SC_EEDpOT_@Base 0.14.0
 (optional=templinst)_ZNSt6vectorIPKN4butl10basic_pathIcNS0_13any_path_kindIcEEEENS0_15small_allocatorIS6_Lm1ENS0_22small_allocator_bufferIS6_Lm1EEEEEE17_M_realloc_insertIJS6_EEEvN9__gnu_cxx17__normal_iteratorIPS6_SB_EEDpOT_@Base 0.14.0
 (optional=templinst)_ZNSt6vectorIPKN4butl10basic_pathIcNS0_13any_path_kindIcEEEENS0_15small_allocatorIS6_Lm1ENS0_22small_allocator_bufferIS6_Lm1EEEEEEaSERKSB_@Base 0.14.0
 (optional=templinst)_ZNSt6vectorIPKN6build214operation_infoESaIS3_EE14_M_fill_insertEN9__gnu_cxx17__normal_iteratorIPS3_S5_EEmRKS3_@Base 0.14.0
 (optional=templinst)_ZNSt6vectorIPKN6build214operation_infoESaIS3_EE17_M_realloc_insertIJS3_EEEvN9__gnu_cxx17__normal_iteratorIPS3_S5_EEDpOT_@Base 0.14.0
 (optional=templinst)_ZNSt6vectorIPKN6build217function_overloadEN4butl15small_allocatorIS3_Lm2ENS4_22small_allocator_bufferIS3_Lm2EEEEEE17_M_realloc_insertIJS3_EEEvN9__gnu_cxx17__normal_iteratorIPS3_S9_EEDpOT_@Base 0.14.0
 (optional=templinst)_ZNSt6vectorIPKN6build219meta_operation_infoESaIS3_EE14_M_fill_insertEN9__gnu_cxx17__normal_iteratorIPS3_S5_EEmRKS3_@Base 0.14.0
 (optional=templinst)_ZNSt6vectorIPKN6build219meta_operation_infoESaIS3_EE17_M_realloc_insertIJS3_EEEvN9__gnu_cxx17__normal_iteratorIPS3_S5_EEDpOT_@Base 0.14.0
 (optional=templinst)_ZNSt6vectorIPKcN4butl15small_allocatorIS1_Lm3ENS2_22small_allocator_bufferIS1_Lm3EEEEEE12emplace_backIJS1_EEERS1_DpOT_@Base 0.14.0
 (optional=templinst)_ZNSt6vectorIPKcN4butl15small_allocatorIS1_Lm3ENS2_22small_allocator_bufferIS1_Lm3EEEEEE17_M_realloc_insertIJS1_EEEvN9__gnu_cxx17__normal_iteratorIPS1_S7_EEDpOT_@Base 0.14.0
 (optional=templinst)_ZNSt6vectorIPKcN4butl15small_allocatorIS1_Lm8ENS2_22small_allocator_bufferIS1_Lm8EEEEEE13_M_assign_auxIPKS1_EEvT_SB_St20forward_iterator_tag@Base 0.14.0
 (optional=templinst)_ZNSt6vectorIPKcN4butl15small_allocatorIS1_Lm8ENS2_22small_allocator_bufferIS1_Lm8EEEEEE7reserveEm@Base 0.14.0
 (optional=templinst)_ZNSt6vectorIPKcSaIS1_EE12emplace_backIJS1_EEERS1_DpOT_@Base 0.14.0
 (optional=templinst)_ZNSt6vectorIPKcSaIS1_EE13_M_assign_auxIPKS1_EEvT_S7_St20forward_iterator_tag@Base 0.14.0
 (optional=templinst)_ZNSt6vectorIPKcSaIS1_EE17_M_realloc_insertIJRKS1_EEEvN9__gnu_cxx17__normal_iteratorIPS1_S3_EEDpOT_@Base 0.14.0
 (optional=templinst)_ZNSt6vectorIPKcSaIS1_EE17_M_realloc_insertIJS1_EEEvN9__gnu_cxx17__normal_iteratorIPS1_S3_EEDpOT_@Base 0.14.0
 (optional=templinst)_ZNSt6vectorIPN6build25scopeEN4butl15small_allocatorIS2_Lm3ENS3_22small_allocator_bufferIS2_Lm3EEEEEE12emplace_backIJS2_EEERS2_DpOT_@Base 0.14.0
 (optional=templinst)_ZNSt6vectorIPN6build25scopeEN4butl15small_allocatorIS2_Lm3ENS3_22small_allocator_bufferIS2_Lm3EEEEEE7reserveEm@Base 0.14.0
 (optional=templinst)_ZNSt6vectorIS_IN6build29scheduler15task_queue_dataESaIS2_EEN4butl15small_allocatorIS4_Lm2ENS5_22small_allocator_bufferIS4_Lm2EEEEEE17_M_realloc_insertIJmEEEvN9__gnu_cxx17__normal_iteratorIPS4_SA_EEDpOT_@Base 0.14.0
 (optional=templinst)_ZNSt6vectorISt10shared_ptrIN6build210adhoc_ruleEEN4butl15small_allocatorIS3_Lm1ENS4_22small_allocator_bufferIS3_Lm1EEEEEE12emplace_backIJS3_EEERS3_DpOT_@Base 0.14.0
 (optional=templinst)_ZNSt6vectorISt10shared_ptrIN6build210adhoc_ruleEEN4butl15small_allocatorIS3_Lm1ENS4_22small_allocator_bufferIS3_Lm1EEEEEE17_M_realloc_insertIJS3_EEEvN9__gnu_cxx17__normal_iteratorIPS3_S9_EEDpOT_@Base 0.14.0
 (optional=templinst)_ZNSt6vectorISt10shared_ptrIN6build210adhoc_ruleEEN4butl15small_allocatorIS3_Lm1ENS4_22small_allocator_bufferIS3_Lm1EEEEEED1Ev@Base 0.14.0
 (optional=templinst)_ZNSt6vectorISt10shared_ptrIN6build210adhoc_ruleEEN4butl15small_allocatorIS3_Lm1ENS4_22small_allocator_bufferIS3_Lm1EEEEEED2Ev@Base 0.14.0
 (optional=templinst)_ZNSt6vectorISt10shared_ptrIN6build210adhoc_ruleEESaIS3_EE17_M_realloc_insertIJRKS3_EEEvN9__gnu_cxx17__normal_iteratorIPS3_S5_EEDpOT_@Base 0.14.0
 (optional=templinst)_ZNSt6vectorISt10unique_ptrIN6build218adhoc_rule_patternESt14default_deleteIS2_EESaIS5_EE17_M_realloc_insertIJS5_EEEvN9__gnu_cxx17__normal_iteratorIPS5_S7_EEDpOT_@Base 0.14.0
 (optional=templinst)_ZNSt6vectorISt10unique_ptrIN6build24test6script5scopeESt14default_deleteIS4_EESaIS7_EE12emplace_backIJS7_EEERS7_DpOT_@Base 0.14.0
 (optional=templinst)_ZNSt6vectorISt10unique_ptrIN6build24test6script5scopeESt14default_deleteIS4_EESaIS7_EE17_M_realloc_insertIJS7_EEEvN9__gnu_cxx17__normal_iteratorIPS7_S9_EEDpOT_@Base 0.14.0
 (optional=templinst)_ZNSt6vectorISt3mapIPKN6build211target_typeEN4butl15prefix_map_implIS0_INSt7__cxx1112basic_stringIcSt11char_traitsIcESaIcEEESt17reference_wrapperIKNS1_4ruleEENS5_14compare_prefixISC_EESaISt4pairIKSC_SG_EEELc46EEESt4lessIS4_ESaISJ_IKS4_SO_EEESaISU_EE17_M_default_appendEm@Base 0.14.0
 (optional=templinst)_ZNSt6vectorISt4pairIN6build26lookupENSt7__cxx1112basic_stringIcSt11char_traitsIcESaIcEEEESaIS9_EE17_M_realloc_insertIJS9_EEEvN9__gnu_cxx17__normal_iteratorIPS9_SB_EEDpOT_@Base 0.14.0
 (optional=templinst)_ZNSt6vectorISt4pairIN6build26lookupENSt7__cxx1112basic_stringIcSt11char_traitsIcESaIcEEEESaIS9_EED1Ev@Base 0.14.0
 (optional=templinst)_ZNSt6vectorISt4pairIN6build26lookupENSt7__cxx1112basic_stringIcSt11char_traitsIcESaIcEEEESaIS9_EED2Ev@Base 0.14.0
 (optional=templinst)_ZNSt6vectorISt4pairIN6build26script5regex9line_charES4_ESaIS5_EE12emplace_backIJS5_EEERS5_DpOT_@Base 0.14.0
 (optional=templinst)_ZNSt6vectorISt4pairIN6build26script5regex9line_charES4_ESaIS5_EE17_M_realloc_insertIJS5_EEEvN9__gnu_cxx17__normal_iteratorIPS5_S7_EEDpOT_@Base 0.14.0
 (optional=templinst)_ZNSt6vectorISt4pairINSt7__cxx1112basic_stringIN6build26script5regex9line_charESt11char_traitsIS6_ESaIS6_EEESA_ESaISB_EE12emplace_backIJSB_EEERSB_DpOT_@Base 0.14.0
 (optional=templinst)_ZNSt6vectorISt4pairINSt7__cxx1112basic_stringIN6build26script5regex9line_charESt11char_traitsIS6_ESaIS6_EEESA_ESaISB_EE17_M_realloc_insertIJSB_EEEvN9__gnu_cxx17__normal_iteratorIPSB_SD_EEDpOT_@Base 0.14.0
 (optional=templinst)_ZNSt6vectorISt4pairINSt7__cxx1112basic_stringIN6build26script5regex9line_charESt11char_traitsIS6_ESaIS6_EEESA_ESaISB_EED1Ev@Base 0.14.0
 (optional=templinst)_ZNSt6vectorISt4pairINSt7__cxx1112basic_stringIN6build26script5regex9line_charESt11char_traitsIS6_ESaIS6_EEESA_ESaISB_EED2Ev@Base 0.14.0
 (optional=templinst)_ZNSt6vectorISt4pairINSt7__cxx1112basic_stringIcSt11char_traitsIcESaIcEEEN6build28locationEEN4butl15small_allocatorIS9_Lm4ENSA_22small_allocator_bufferIS9_Lm4EEEEEE17_M_realloc_insertIJS6_RS8_EEEvN9__gnu_cxx17__normal_iteratorIPS9_SF_EEDpOT_@Base 0.14.0
 (optional=templinst)_ZNSt6vectorISt4pairINSt7__cxx1112basic_stringIcSt11char_traitsIcESaIcEEEN6build28locationEEN4butl15small_allocatorIS9_Lm4ENSA_22small_allocator_bufferIS9_Lm4EEEEEED1Ev@Base 0.14.0
 (optional=templinst)_ZNSt6vectorISt4pairINSt7__cxx1112basic_stringIcSt11char_traitsIcESaIcEEEN6build28locationEEN4butl15small_allocatorIS9_Lm4ENSA_22small_allocator_bufferIS9_Lm4EEEEEED2Ev@Base 0.14.0
 (optional=templinst)_ZNSt6vectorISt4pairINSt7__cxx1112basic_stringIcSt11char_traitsIcESaIcEEES6_ESaIS7_EE12emplace_backIJS7_EEERS7_DpOT_@Base 0.14.0
 (optional=templinst)_ZNSt6vectorISt4pairINSt7__cxx1112basic_stringIcSt11char_traitsIcESaIcEEES6_ESaIS7_EE15_M_range_insertISt13move_iteratorIN9__gnu_cxx17__normal_iteratorIPS7_S9_EEEEEvSF_T_SH_St20forward_iterator_tag@Base 0.14.0
 (optional=templinst)_ZNSt6vectorISt4pairINSt7__cxx1112basic_stringIcSt11char_traitsIcESaIcEEES6_ESaIS7_EE17_M_realloc_insertIJS7_EEEvN9__gnu_cxx17__normal_iteratorIPS7_S9_EEDpOT_@Base 0.14.0
 (optional=templinst)_ZNSt6vectorISt4pairINSt7__cxx1112basic_stringIcSt11char_traitsIcESaIcEEES6_ESaIS7_EED1Ev@Base 0.14.0
 (optional=templinst)_ZNSt6vectorISt4pairINSt7__cxx1112basic_stringIcSt11char_traitsIcESaIcEEES6_ESaIS7_EED2Ev@Base 0.14.0
 (optional=templinst)_ZNSt6vectorISt4pairINSt7__cxx1112basic_stringIcSt11char_traitsIcESaIcEEES6_ESaIS7_EEaSERKS9_@Base 0.14.0
 (optional=templinst)_ZNSt6vectorISt4pairINSt7__cxx1112basic_stringIcSt11char_traitsIcESaIcEEESt8optionalIS6_EESaIS9_EE15_M_range_insertISt13move_iteratorIN9__gnu_cxx17__normal_iteratorIPS9_SB_EEEEEvSH_T_SJ_St20forward_iterator_tag@Base 0.14.0
 (optional=templinst)_ZNSt6vectorISt4pairINSt7__cxx1112basic_stringIcSt11char_traitsIcESaIcEEESt8optionalIS6_EESaIS9_EED1Ev@Base 0.14.0
 (optional=templinst)_ZNSt6vectorISt4pairINSt7__cxx1112basic_stringIcSt11char_traitsIcESaIcEEESt8optionalIS6_EESaIS9_EED2Ev@Base 0.14.0
 (optional=templinst)_ZNSt6vectorISt4pairINSt7__cxx1112basic_stringIcSt11char_traitsIcESaIcEEESt8optionalIS6_EESaIS9_EEaSERKSB_@Base 0.14.0
 (optional=templinst)_ZNSt6vectorISt4pairINSt7__cxx1112basic_stringIcSt11char_traitsIcESaIcEEESt8optionalIbEESaIS9_EE15_M_range_insertISt13move_iteratorIN9__gnu_cxx17__normal_iteratorIPS9_SB_EEEEEvSH_T_SJ_St20forward_iterator_tag@Base 0.14.0
 (optional=templinst)_ZNSt6vectorISt4pairINSt7__cxx1112basic_stringIcSt11char_traitsIcESaIcEEESt8optionalIbEESaIS9_EE17_M_realloc_insertIJS9_EEEvN9__gnu_cxx17__normal_iteratorIPS9_SB_EEDpOT_@Base 0.14.0
 (optional=templinst)_ZNSt6vectorISt4pairINSt7__cxx1112basic_stringIcSt11char_traitsIcESaIcEEESt8optionalIbEESaIS9_EED1Ev@Base 0.14.0
 (optional=templinst)_ZNSt6vectorISt4pairINSt7__cxx1112basic_stringIcSt11char_traitsIcESaIcEEESt8optionalIbEESaIS9_EED2Ev@Base 0.14.0
 (optional=templinst)_ZNSt6vectorISt4pairINSt7__cxx1112basic_stringIcSt11char_traitsIcESaIcEEESt8optionalIbEESaIS9_EEaSERKSB_@Base 0.14.0
 (optional=templinst)_ZNSt6vectorISt4pairISt8optionalINSt7__cxx1112basic_stringIcSt11char_traitsIcESaIcEEEES7_ESaIS9_EE15_M_range_insertISt13move_iteratorIN9__gnu_cxx17__normal_iteratorIPS9_SB_EEEEEvSH_T_SJ_St20forward_iterator_tag@Base 0.14.0
 (optional=templinst)_ZNSt6vectorISt4pairISt8optionalINSt7__cxx1112basic_stringIcSt11char_traitsIcESaIcEEEES7_ESaIS9_EED1Ev@Base 0.14.0
 (optional=templinst)_ZNSt6vectorISt4pairISt8optionalINSt7__cxx1112basic_stringIcSt11char_traitsIcESaIcEEEES7_ESaIS9_EED2Ev@Base 0.14.0
 (optional=templinst)_ZNSt6vectorISt4pairISt8optionalINSt7__cxx1112basic_stringIcSt11char_traitsIcESaIcEEEES7_ESaIS9_EEaSERKSB_@Base 0.14.0
 (optional=templinst)_ZNSt6vectorISt4pairIccESaIS1_EE12emplace_backIJS1_EEERS1_DpOT_@Base 0.14.0
 (optional=templinst)_ZNSt6vectorISt4pairIccESaIS1_EE17_M_realloc_insertIJS1_EEEvN9__gnu_cxx17__normal_iteratorIPS1_S3_EEDpOT_@Base 0.14.0
 (optional=templinst)_ZNSt6vectorISt4pairIlS_INSt7__cxx119sub_matchIN9__gnu_cxx17__normal_iteratorIPKN6build26script5regex9line_charENS1_12basic_stringIS8_St11char_traitsIS8_ESaIS8_EEEEEEESaISH_EEESaISK_EE12emplace_backIJRlRKSJ_EEERSK_DpOT_@Base 0.14.0
 (optional=templinst)_ZNSt6vectorISt4pairIlS_INSt7__cxx119sub_matchIN9__gnu_cxx17__normal_iteratorIPKN6build26script5regex9line_charENS1_12basic_stringIS8_St11char_traitsIS8_ESaIS8_EEEEEEESaISH_EEESaISK_EE17_M_realloc_insertIJRlRKSJ_EEEvNS4_IPSK_SM_EEDpOT_@Base 0.14.0
 (optional=templinst)_ZNSt6vectorISt4pairIlS_INSt7__cxx119sub_matchIN9__gnu_cxx17__normal_iteratorIPKN6build26script5regex9line_charENS1_12basic_stringIS8_St11char_traitsIS8_ESaIS8_EEEEEEESaISH_EEESaISK_EED1Ev@Base 0.14.0
 (optional=templinst)_ZNSt6vectorISt4pairIlS_INSt7__cxx119sub_matchIN9__gnu_cxx17__normal_iteratorIPKN6build26script5regex9line_charENS1_12basic_stringIS8_St11char_traitsIS8_ESaIS8_EEEEEEESaISH_EEESaISK_EED2Ev@Base 0.14.0
 (optional=templinst)_ZNSt6vectorISt4pairIlS_INSt7__cxx119sub_matchIN9__gnu_cxx17__normal_iteratorIPKcNS1_12basic_stringIcSt11char_traitsIcESaIcEEEEEEESaISD_EEESaISG_EE12emplace_backIJRlRKSF_EEERSG_DpOT_@Base 0.14.0
 (optional=templinst)_ZNSt6vectorISt4pairIlS_INSt7__cxx119sub_matchIN9__gnu_cxx17__normal_iteratorIPKcNS1_12basic_stringIcSt11char_traitsIcESaIcEEEEEEESaISD_EEESaISG_EE17_M_realloc_insertIJRlRKSF_EEEvNS4_IPSG_SI_EEDpOT_@Base 0.14.0
 (optional=templinst)_ZNSt6vectorISt4pairIlS_INSt7__cxx119sub_matchIN9__gnu_cxx17__normal_iteratorIPKcNS1_12basic_stringIcSt11char_traitsIcESaIcEEEEEEESaISD_EEESaISG_EED1Ev@Base 0.14.0
 (optional=templinst)_ZNSt6vectorISt4pairIlS_INSt7__cxx119sub_matchIN9__gnu_cxx17__normal_iteratorIPKcNS1_12basic_stringIcSt11char_traitsIcESaIcEEEEEEESaISD_EEESaISG_EED2Ev@Base 0.14.0
 (optional=templinst)_ZNSt6vectorIcSaIcEE12emplace_backIJcEEERcDpOT_@Base 0.14.0
 (optional=templinst)_ZNSt6vectorIcSaIcEE17_M_realloc_insertIJcEEEvN9__gnu_cxx17__normal_iteratorIPcS1_EEDpOT_@Base 0.14.0
 (optional=templinst)_ZNSt6vectorIcSaIcEE8_M_eraseEN9__gnu_cxx17__normal_iteratorIPcS1_EES5_@Base 0.14.0
 (optional=templinst)_ZNSt6vectorIlSaIlEE12emplace_backIJlEEERlDpOT_@Base 0.14.0
 (optional=templinst)_ZNSt6vectorIlSaIlEE15_M_range_insertISt13move_iteratorIN9__gnu_cxx17__normal_iteratorIPlS1_EEEEEvS7_T_S9_St20forward_iterator_tag@Base 0.14.0
 (optional=templinst)_ZNSt6vectorIlSaIlEED1Ev@Base 0.14.0
 (optional=templinst)_ZNSt6vectorIlSaIlEED2Ev@Base 0.14.0
 (optional=templinst)_ZNSt6vectorIlSaIlEEaSERKS1_@Base 0.14.0
 (optional=templinst)_ZNSt6vectorImSaImEE12emplace_backIJmEEERmDpOT_@Base 0.14.0
 (optional=templinst)_ZNSt6vectorImSaImEE15_M_range_insertISt13move_iteratorIN9__gnu_cxx17__normal_iteratorIPmS1_EEEEEvS7_T_S9_St20forward_iterator_tag@Base 0.14.0
 (optional=templinst)_ZNSt6vectorImSaImEE17_M_realloc_insertIJRKmEEEvN9__gnu_cxx17__normal_iteratorIPmS1_EEDpOT_@Base 0.14.0
 (optional=templinst)_ZNSt6vectorImSaImEED1Ev@Base 0.14.0
 (optional=templinst)_ZNSt6vectorImSaImEED2Ev@Base 0.14.0
 (optional=templinst)_ZNSt6vectorImSaImEEaSERKS1_@Base 0.14.0
 (optional=templinst)_ZNSt7__cxx1110_List_baseIN6build26script5regex10char_regexESaIS4_EE8_M_clearEv@Base 0.14.0
 (optional=templinst)_ZNSt7__cxx1110_List_baseIN6build29scheduler10task_queueESaIS3_EE8_M_clearEv@Base 0.14.0
 (optional=templinst)_ZNSt7__cxx1111basic_regexIcNS_12regex_traitsIcEEED1Ev@Base 0.14.0
 (optional=templinst)_ZNSt7__cxx1111basic_regexIcNS_12regex_traitsIcEEED2Ev@Base 0.14.0
 (optional=templinst)_ZNSt7__cxx1112basic_stringIN6build26script5regex9line_charESt11char_traitsIS4_ESaIS4_EE12_M_constructIN9__gnu_cxx17__normal_iteratorIPS4_S8_EEEEvT_SE_St20forward_iterator_tag@Base 0.14.0
 (optional=templinst)_ZNSt7__cxx1112basic_stringIN6build26script5regex9line_charESt11char_traitsIS4_ESaIS4_EE12_M_constructIPS4_EEvT_SB_St20forward_iterator_tag@Base 0.14.0
 (optional=templinst)_ZNSt7__cxx1112basic_stringIN6build26script5regex9line_charESt11char_traitsIS4_ESaIS4_EE14_M_replace_auxEmmmS4_@Base 0.14.0
 (optional=templinst)_ZNSt7__cxx1112basic_stringIN6build26script5regex9line_charESt11char_traitsIS4_ESaIS4_EE9_M_assignERKS8_@Base 0.14.0
 (optional=templinst)_ZNSt7__cxx1112basic_stringIN6build26script5regex9line_charESt11char_traitsIS4_ESaIS4_EE9_M_createERmm@Base 0.14.0
 (optional=templinst)_ZNSt7__cxx1112basic_stringIN6build26script5regex9line_charESt11char_traitsIS4_ESaIS4_EE9_M_mutateEmmPKS4_m@Base 0.14.0
 (optional=templinst)_ZNSt7__cxx1112basic_stringIcSt11char_traitsIcESaIcEE10_M_replaceEmmPKcm@Base 0.14.0
 (optional=templinst)_ZNSt7__cxx1112basic_stringIcSt11char_traitsIcESaIcEE12_M_constructEmc@Base 0.14.0
 (optional=templinst)_ZNSt7__cxx1112basic_stringIcSt11char_traitsIcESaIcEE12_M_constructIN9__gnu_cxx17__normal_iteratorIPKcS4_EEEEvT_SB_St20forward_iterator_tag@Base 0.14.0
 (optional=templinst)_ZNSt7__cxx1112basic_stringIcSt11char_traitsIcESaIcEE12_M_constructIPKcEEvT_S8_St20forward_iterator_tag@Base 0.14.0
 (optional=templinst)_ZNSt7__cxx1112basic_stringIcSt11char_traitsIcESaIcEE12_M_constructIPcEEvT_S7_St20forward_iterator_tag@Base 0.14.0
 (optional=templinst)_ZNSt7__cxx1112basic_stringIcSt11char_traitsIcESaIcEE14_M_replace_auxEmmmc@Base 0.14.0
 (optional=templinst)_ZNSt7__cxx1112basic_stringIcSt11char_traitsIcESaIcEE4swapERS4_@Base 0.14.0
 (optional=templinst)_ZNSt7__cxx1112basic_stringIcSt11char_traitsIcESaIcEE5eraseEmm@Base 0.14.0
 (optional=templinst)_ZNSt7__cxx1112basic_stringIcSt11char_traitsIcESaIcEE6appendEPKc@Base 0.14.0
 (optional=templinst)_ZNSt7__cxx1112basic_stringIcSt11char_traitsIcESaIcEE6assignEPKc@Base 0.14.0
 (optional=templinst)_ZNSt7__cxx1112basic_stringIcSt11char_traitsIcESaIcEE6resizeEmc@Base 0.14.0
 (optional=templinst)_ZNSt7__cxx1112basic_stringIcSt11char_traitsIcESaIcEE7reserveEm@Base 0.14.0
 (optional=templinst)_ZNSt7__cxx1112basic_stringIcSt11char_traitsIcESaIcEE8_M_eraseEmm@Base 0.14.0
 (optional=templinst)_ZNSt7__cxx1112basic_stringIcSt11char_traitsIcESaIcEE9_M_appendEPKcm@Base 0.14.0
 (optional=templinst)_ZNSt7__cxx1112basic_stringIcSt11char_traitsIcESaIcEE9_M_assignERKS4_@Base 0.14.0
 (optional=templinst)_ZNSt7__cxx1112basic_stringIcSt11char_traitsIcESaIcEE9_M_createERmm@Base 0.14.0
 (optional=templinst)_ZNSt7__cxx1112basic_stringIcSt11char_traitsIcESaIcEE9_M_mutateEmmPKcm@Base 0.14.0
 (optional=templinst)_ZNSt7__cxx1112basic_stringIcSt11char_traitsIcESaIcEE9push_backEc@Base 0.14.0
 (optional=templinst)_ZNSt7__cxx1112basic_stringIcSt11char_traitsIcESaIcEEC1ERKS4_mm@Base 0.14.0
 (optional=templinst)_ZNSt7__cxx1112basic_stringIcSt11char_traitsIcESaIcEEC1IS3_EEPKcRKS3_@Base 0.14.0
 (optional=templinst)_ZNSt7__cxx1112basic_stringIcSt11char_traitsIcESaIcEEC2ERKS4_mm@Base 0.14.0
 (optional=templinst)_ZNSt7__cxx1112basic_stringIcSt11char_traitsIcESaIcEEC2IS3_EEPKcRKS3_@Base 0.14.0
 (optional=templinst)_ZNSt7__cxx1112basic_stringIcSt11char_traitsIcESaIcEED1Ev@Base 0.14.0
 (optional=templinst)_ZNSt7__cxx1112basic_stringIcSt11char_traitsIcESaIcEED2Ev@Base 0.14.0
 (optional=templinst)_ZNSt7__cxx1112basic_stringIcSt11char_traitsIcESaIcEEaSEOS4_@Base 0.14.0
 (optional=templinst)_ZNSt7__cxx1114regex_iteratorIN9__gnu_cxx17__normal_iteratorIPKcNS_12basic_stringIcSt11char_traitsIcESaIcEEEEEcNS_12regex_traitsIcEEEppEv@Base 0.14.0
 (optional=templinst)_ZNSt7__cxx1115basic_stringbufIcSt11char_traitsIcESaIcEED0Ev@Base 0.14.0
 (optional=templinst)_ZNSt7__cxx1115basic_stringbufIcSt11char_traitsIcESaIcEED1Ev@Base 0.14.0
 (optional=templinst)_ZNSt7__cxx1115basic_stringbufIcSt11char_traitsIcESaIcEED2Ev@Base 0.14.0
 (optional=templinst)_ZNSt8_Rb_treeIN4butl10basic_pathIcNS0_13any_path_kindIcEEEES4_St9_IdentityIS4_ESt4lessIS4_ESaIS4_EE16_M_insert_uniqueIRKS4_EESt4pairISt17_Rb_tree_iteratorIS4_EbEOT_@Base 0.14.0
 (optional=templinst)_ZNSt8_Rb_treeIN4butl10basic_pathIcNS0_13any_path_kindIcEEEES4_St9_IdentityIS4_ESt4lessIS4_ESaIS4_EE8_M_eraseEPSt13_Rb_tree_nodeIS4_E@Base 0.14.0
 (optional=templinst)_ZNSt8_Rb_treeIN4butl10basic_pathIcNS0_13dir_path_kindIcEEEESt4pairIKS4_N6build29scope_map6scopesEESt10_Select1stISA_ENS0_14compare_prefixIS4_EESaISA_EE17_M_emplace_uniqueIJRS6_S9_EEES5_ISt17_Rb_tree_iteratorISA_EbEDpOT_@Base 0.14.0
 (optional=templinst)_ZNSt8_Rb_treeIN4butl10basic_pathIcNS0_13dir_path_kindIcEEEESt4pairIKS4_N6build29scope_map6scopesEESt10_Select1stISA_ENS0_14compare_prefixIS4_EESaISA_EE4findERS6_@Base 0.14.0
 (optional=templinst)_ZNSt8_Rb_treeIN4butl10basic_pathIcNS0_13dir_path_kindIcEEEESt4pairIKS4_N6build29scope_map6scopesEESt10_Select1stISA_ENS0_14compare_prefixIS4_EESaISA_EE8_M_eraseEPSt13_Rb_tree_nodeISA_E@Base 0.14.0
 (optional=templinst)_ZNSt8_Rb_treeIN4butl12project_nameESt4pairIKS1_NS0_10basic_pathIcNS0_13dir_path_kindIcEEEEESt10_Select1stIS8_ESt4lessIS1_ESaIS8_EE14_M_insert_nodeEPSt18_Rb_tree_node_baseSG_PSt13_Rb_tree_nodeIS8_E@Base 0.14.0
 (optional=templinst)_ZNSt8_Rb_treeIN4butl12project_nameESt4pairIKS1_NS0_10basic_pathIcNS0_13dir_path_kindIcEEEEESt10_Select1stIS8_ESt4lessIS1_ESaIS8_EE17_M_emplace_uniqueIJRS1_RS7_EEES2_ISt17_Rb_tree_iteratorIS8_EbEDpOT_@Base 0.14.0
 (optional=templinst)_ZNSt8_Rb_treeIN4butl12project_nameESt4pairIKS1_NS0_10basic_pathIcNS0_13dir_path_kindIcEEEEESt10_Select1stIS8_ESt4lessIS1_ESaIS8_EE17_M_emplace_uniqueIJS1_S7_EEES2_ISt17_Rb_tree_iteratorIS8_EbEDpOT_@Base 0.14.0
 (optional=templinst)_ZNSt8_Rb_treeIN4butl12project_nameESt4pairIKS1_NS0_10basic_pathIcNS0_13dir_path_kindIcEEEEESt10_Select1stIS8_ESt4lessIS1_ESaIS8_EE24_M_get_insert_unique_posERS3_@Base 0.14.0
 (optional=templinst)_ZNSt8_Rb_treeIN4butl12project_nameESt4pairIKS1_NS0_10basic_pathIcNS0_13dir_path_kindIcEEEEESt10_Select1stIS8_ESt4lessIS1_ESaIS8_EE29_M_get_insert_hint_unique_posESt23_Rb_tree_const_iteratorIS8_ERS3_@Base 0.14.0
 (optional=templinst)_ZNSt8_Rb_treeIN4butl12project_nameESt4pairIKS1_NS0_10basic_pathIcNS0_13dir_path_kindIcEEEEESt10_Select1stIS8_ESt4lessIS1_ESaIS8_EE4swapERSE_@Base 0.14.0
 (optional=templinst)_ZNSt8_Rb_treeIN4butl12project_nameESt4pairIKS1_NS0_10basic_pathIcNS0_13dir_path_kindIcEEEEESt10_Select1stIS8_ESt4lessIS1_ESaIS8_EE7_M_copyINSE_11_Alloc_nodeEEEPSt13_Rb_tree_nodeIS8_EPKSI_PSt18_Rb_tree_node_baseRT_@Base 0.14.0
 (optional=templinst)_ZNSt8_Rb_treeIN4butl12project_nameESt4pairIKS1_NS0_10basic_pathIcNS0_13dir_path_kindIcEEEEESt10_Select1stIS8_ESt4lessIS1_ESaIS8_EE7_M_copyINSE_20_Reuse_or_alloc_nodeEEEPSt13_Rb_tree_nodeIS8_EPKSI_PSt18_Rb_tree_node_baseRT_@Base 0.14.0
 (optional=templinst)_ZNSt8_Rb_treeIN4butl12project_nameESt4pairIKS1_NS0_10basic_pathIcNS0_13dir_path_kindIcEEEEESt10_Select1stIS8_ESt4lessIS1_ESaIS8_EE8_M_eraseEPSt13_Rb_tree_nodeIS8_E@Base 0.14.0
 (optional=templinst)_ZNSt8_Rb_treeIN4butl12project_nameESt4pairIKS1_NS0_10basic_pathIcNS0_13dir_path_kindIcEEEEESt10_Select1stIS8_ESt4lessIS1_ESaIS8_EEaSERKSE_@Base 0.14.0
 (optional=templinst)_ZNSt8_Rb_treeIN4butl21basic_path_name_valueINS0_10basic_pathIcNS0_13any_path_kindIcEEEEEES6_St9_IdentityIS6_EN6build24test6script6script13compare_pathsESaIS6_EE10_M_insert_IS6_NSF_11_Alloc_nodeEEESt17_Rb_tree_iteratorIS6_EPSt18_Rb_tree_node_baseSL_OT_RT0_@Base 0.14.0
 (optional=templinst)_ZNSt8_Rb_treeIN4butl21basic_path_name_valueINS0_10basic_pathIcNS0_13any_path_kindIcEEEEEES6_St9_IdentityIS6_EN6build24test6script6script13compare_pathsESaIS6_EE16_M_insert_uniqueIS6_EESt4pairISt17_Rb_tree_iteratorIS6_EbEOT_@Base 0.14.0
 (optional=templinst)_ZNSt8_Rb_treeIN4butl21basic_path_name_valueINS0_10basic_pathIcNS0_13any_path_kindIcEEEEEES6_St9_IdentityIS6_EN6build24test6script6script13compare_pathsESaIS6_EE8_M_eraseEPSt13_Rb_tree_nodeIS6_E@Base 0.14.0
 (optional=templinst)_ZNSt8_Rb_treeIN6build213variable_pool7patternES2_St9_IdentityIS2_ESt4lessIS2_ESaIS2_EE15_M_insert_equalIS2_EESt17_Rb_tree_iteratorIS2_EOT_@Base 0.14.0
 (optional=templinst)_ZNSt8_Rb_treeIN6build213variable_pool7patternES2_St9_IdentityIS2_ESt4lessIS2_ESaIS2_EE8_M_eraseEPSt13_Rb_tree_nodeIS2_E@Base 0.14.0
 (optional=templinst)_ZNSt8_Rb_treeIN6build220variable_pattern_map7patternESt4pairIKS2_NS0_12variable_mapEESt10_Select1stIS6_ENS1_15pattern_compareESaIS6_EE17_M_emplace_uniqueIJS2_S5_EEES3_ISt17_Rb_tree_iteratorIS6_EbEDpOT_@Base 0.14.0
 (optional=templinst)_ZNSt8_Rb_treeIN6build220variable_pattern_map7patternESt4pairIKS2_NS0_12variable_mapEESt10_Select1stIS6_ENS1_15pattern_compareESaIS6_EE24_M_get_insert_unique_posERS4_@Base 0.14.0
 (optional=templinst)_ZNSt8_Rb_treeIN6build220variable_pattern_map7patternESt4pairIKS2_NS0_12variable_mapEESt10_Select1stIS6_ENS1_15pattern_compareESaIS6_EE8_M_eraseEPSt13_Rb_tree_nodeIS6_E@Base 0.14.0
 (optional=templinst)_ZNSt8_Rb_treeINSt7__cxx1112basic_stringIcSt11char_traitsIcESaIcEEESt4pairIKS5_N6build215target_type_map15target_type_refEESt10_Select1stISB_ESt4lessIS5_ESaISB_EE17_M_emplace_uniqueIJRKPKcSA_EEES6_ISt17_Rb_tree_iteratorISB_EbEDpOT_@Base 0.14.0
 (optional=templinst)_ZNSt8_Rb_treeINSt7__cxx1112basic_stringIcSt11char_traitsIcESaIcEEESt4pairIKS5_N6build215target_type_map15target_type_refEESt10_Select1stISB_ESt4lessIS5_ESaISB_EE17_M_emplace_uniqueIJRS7_SA_EEES6_ISt17_Rb_tree_iteratorISB_EbEDpOT_@Base 0.14.0
 (optional=templinst)_ZNSt8_Rb_treeINSt7__cxx1112basic_stringIcSt11char_traitsIcESaIcEEESt4pairIKS5_N6build215target_type_map15target_type_refEESt10_Select1stISB_ESt4lessIS5_ESaISB_EE8_M_eraseEPSt13_Rb_tree_nodeISB_E@Base 0.14.0
 (optional=templinst)_ZNSt8_Rb_treeINSt7__cxx1112basic_stringIcSt11char_traitsIcESaIcEEESt4pairIKS5_N6build218function_overloadsEESt10_Select1stISA_ESt4lessIS5_ESaISA_EE17_M_emplace_uniqueIJS5_S9_EEES6_ISt17_Rb_tree_iteratorISA_EbEDpOT_@Base 0.14.0
 (optional=templinst)_ZNSt8_Rb_treeINSt7__cxx1112basic_stringIcSt11char_traitsIcESaIcEEESt4pairIKS5_N6build218function_overloadsEESt10_Select1stISA_ESt4lessIS5_ESaISA_EE8_M_eraseEPSt13_Rb_tree_nodeISA_E@Base 0.14.0
 (optional=templinst)_ZNSt8_Rb_treeINSt7__cxx1112basic_stringIcSt11char_traitsIcESaIcEEESt4pairIKS5_N6build26config15saved_variablesEESt10_Select1stISB_EN4butl14compare_prefixIS5_EESaISB_EE17_M_emplace_uniqueIJS5_SA_EEES6_ISt17_Rb_tree_iteratorISB_EbEDpOT_@Base 0.14.0
 (optional=templinst)_ZNSt8_Rb_treeINSt7__cxx1112basic_stringIcSt11char_traitsIcESaIcEEESt4pairIKS5_N6build26config15saved_variablesEESt10_Select1stISB_EN4butl14compare_prefixIS5_EESaISB_EE4findERS7_@Base 0.14.0
 (optional=templinst)_ZNSt8_Rb_treeINSt7__cxx1112basic_stringIcSt11char_traitsIcESaIcEEESt4pairIKS5_N6build26config15saved_variablesEESt10_Select1stISB_EN4butl14compare_prefixIS5_EESaISB_EE8_M_eraseEPSt13_Rb_tree_nodeISB_E@Base 0.14.0
 (optional=templinst)_ZNSt8_Rb_treeINSt7__cxx1112basic_stringIcSt11char_traitsIcESaIcEEESt4pairIKS5_PFvRN6build26script11set_optionsERNS9_3cli7scannerEEESt10_Select1stISH_ESt4lessIS5_ESaISH_EE24_M_get_insert_unique_posERS7_@Base 0.14.0
 (optional=templinst)_ZNSt8_Rb_treeINSt7__cxx1112basic_stringIcSt11char_traitsIcESaIcEEESt4pairIKS5_PFvRN6build26script11set_optionsERNS9_3cli7scannerEEESt10_Select1stISH_ESt4lessIS5_ESaISH_EE29_M_get_insert_hint_unique_posESt23_Rb_tree_const_iteratorISH_ERS7_@Base 0.14.0
 (optional=templinst)_ZNSt8_Rb_treeINSt7__cxx1112basic_stringIcSt11char_traitsIcESaIcEEESt4pairIKS5_PFvRN6build26script11set_optionsERNS9_3cli7scannerEEESt10_Select1stISH_ESt4lessIS5_ESaISH_EE8_M_eraseEPSt13_Rb_tree_nodeISH_E@Base 0.14.0
 (optional=templinst)_ZNSt8_Rb_treeINSt7__cxx1112basic_stringIcSt11char_traitsIcESaIcEEESt4pairIKS5_PFvRN6build26script14export_optionsERNS9_3cli7scannerEEESt10_Select1stISH_ESt4lessIS5_ESaISH_EE24_M_get_insert_unique_posERS7_@Base 0.14.0
 (optional=templinst)_ZNSt8_Rb_treeINSt7__cxx1112basic_stringIcSt11char_traitsIcESaIcEEESt4pairIKS5_PFvRN6build26script14export_optionsERNS9_3cli7scannerEEESt10_Select1stISH_ESt4lessIS5_ESaISH_EE29_M_get_insert_hint_unique_posESt23_Rb_tree_const_iteratorISH_ERS7_@Base 0.14.0
 (optional=templinst)_ZNSt8_Rb_treeINSt7__cxx1112basic_stringIcSt11char_traitsIcESaIcEEESt4pairIKS5_PFvRN6build26script14export_optionsERNS9_3cli7scannerEEESt10_Select1stISH_ESt4lessIS5_ESaISH_EE8_M_eraseEPSt13_Rb_tree_nodeISH_E@Base 0.14.0
 (optional=templinst)_ZNSt8_Rb_treeINSt7__cxx1112basic_stringIcSt11char_traitsIcESaIcEEESt4pairIKS5_PFvRN6build26script15timeout_optionsERNS9_3cli7scannerEEESt10_Select1stISH_ESt4lessIS5_ESaISH_EE24_M_get_insert_unique_posERS7_@Base 0.14.0
 (optional=templinst)_ZNSt8_Rb_treeINSt7__cxx1112basic_stringIcSt11char_traitsIcESaIcEEESt4pairIKS5_PFvRN6build26script15timeout_optionsERNS9_3cli7scannerEEESt10_Select1stISH_ESt4lessIS5_ESaISH_EE29_M_get_insert_hint_unique_posESt23_Rb_tree_const_iteratorISH_ERS7_@Base 0.14.0
 (optional=templinst)_ZNSt8_Rb_treeINSt7__cxx1112basic_stringIcSt11char_traitsIcESaIcEEESt4pairIKS5_PFvRN6build26script15timeout_optionsERNS9_3cli7scannerEEESt10_Select1stISH_ESt4lessIS5_ESaISH_EE8_M_eraseEPSt13_Rb_tree_nodeISH_E@Base 0.14.0
 (optional=templinst)_ZNSt8_Rb_treeINSt7__cxx1112basic_stringIcSt11char_traitsIcESaIcEEESt4pairIKS5_PKN6build216module_functionsEESt10_Select1stISC_ESt4lessIS5_ESaISC_EE14_M_insert_nodeEPSt18_Rb_tree_node_baseSK_PSt13_Rb_tree_nodeISC_E@Base 0.14.0
 (optional=templinst)_ZNSt8_Rb_treeINSt7__cxx1112basic_stringIcSt11char_traitsIcESaIcEEESt4pairIKS5_PKN6build216module_functionsEESt10_Select1stISC_ESt4lessIS5_ESaISC_EE17_M_emplace_uniqueIJRS7_RSB_EEES6_ISt17_Rb_tree_iteratorISC_EbEDpOT_@Base 0.14.0
 (optional=templinst)_ZNSt8_Rb_treeINSt7__cxx1112basic_stringIcSt11char_traitsIcESaIcEEESt4pairIKS5_PKN6build216module_functionsEESt10_Select1stISC_ESt4lessIS5_ESaISC_EE17_M_emplace_uniqueIJS5_DnEEES6_ISt17_Rb_tree_iteratorISC_EbEDpOT_@Base 0.14.0
 (optional=templinst)_ZNSt8_Rb_treeINSt7__cxx1112basic_stringIcSt11char_traitsIcESaIcEEESt4pairIKS5_PKN6build216module_functionsEESt10_Select1stISC_ESt4lessIS5_ESaISC_EE24_M_get_insert_unique_posERS7_@Base 0.14.0
 (optional=templinst)_ZNSt8_Rb_treeINSt7__cxx1112basic_stringIcSt11char_traitsIcESaIcEEESt4pairIKS5_PKN6build216module_functionsEESt10_Select1stISC_ESt4lessIS5_ESaISC_EE29_M_get_insert_hint_unique_posESt23_Rb_tree_const_iteratorISC_ERS7_@Base 0.14.0
 (optional=templinst)_ZNSt8_Rb_treeINSt7__cxx1112basic_stringIcSt11char_traitsIcESaIcEEESt4pairIKS5_PKN6build216module_functionsEESt10_Select1stISC_ESt4lessIS5_ESaISC_EE4findERS7_@Base 0.14.0
 (optional=templinst)_ZNSt8_Rb_treeINSt7__cxx1112basic_stringIcSt11char_traitsIcESaIcEEESt4pairIKS5_PKN6build216module_functionsEESt10_Select1stISC_ESt4lessIS5_ESaISC_EE8_M_eraseEPSt13_Rb_tree_nodeISC_E@Base 0.14.0
 (optional=templinst)_ZNSt8_Rb_treeINSt7__cxx1112basic_stringIcSt11char_traitsIcESaIcEEESt4pairIKS5_S5_ESt10_Select1stIS8_ESt4lessIS5_ESaIS8_EE17_M_emplace_uniqueIJS5_S5_EEES6_ISt17_Rb_tree_iteratorIS8_EbEDpOT_@Base 0.14.0
 (optional=templinst)_ZNSt8_Rb_treeINSt7__cxx1112basic_stringIcSt11char_traitsIcESaIcEEESt4pairIKS5_S5_ESt10_Select1stIS8_ESt4lessIS5_ESaIS8_EE24_M_get_insert_unique_posERS7_@Base 0.14.0
 (optional=templinst)_ZNSt8_Rb_treeINSt7__cxx1112basic_stringIcSt11char_traitsIcESaIcEEESt4pairIKS5_S5_ESt10_Select1stIS8_ESt4lessIS5_ESaIS8_EE29_M_get_insert_hint_unique_posESt23_Rb_tree_const_iteratorIS8_ERS7_@Base 0.14.0
 (optional=templinst)_ZNSt8_Rb_treeINSt7__cxx1112basic_stringIcSt11char_traitsIcESaIcEEESt4pairIKS5_S5_ESt10_Select1stIS8_ESt4lessIS5_ESaIS8_EE4swapERSE_@Base 0.14.0
 (optional=templinst)_ZNSt8_Rb_treeINSt7__cxx1112basic_stringIcSt11char_traitsIcESaIcEEESt4pairIKS5_S5_ESt10_Select1stIS8_ESt4lessIS5_ESaIS8_EE7_M_copyINSE_11_Alloc_nodeEEEPSt13_Rb_tree_nodeIS8_EPKSI_PSt18_Rb_tree_node_baseRT_@Base 0.14.0
 (optional=templinst)_ZNSt8_Rb_treeINSt7__cxx1112basic_stringIcSt11char_traitsIcESaIcEEESt4pairIKS5_S5_ESt10_Select1stIS8_ESt4lessIS5_ESaIS8_EE7_M_copyINSE_20_Reuse_or_alloc_nodeEEEPSt13_Rb_tree_nodeIS8_EPKSI_PSt18_Rb_tree_node_baseRT_@Base 0.14.0
 (optional=templinst)_ZNSt8_Rb_treeINSt7__cxx1112basic_stringIcSt11char_traitsIcESaIcEEESt4pairIKS5_S5_ESt10_Select1stIS8_ESt4lessIS5_ESaIS8_EE8_M_eraseEPSt13_Rb_tree_nodeIS8_E@Base 0.14.0
 (optional=templinst)_ZNSt8_Rb_treeINSt7__cxx1112basic_stringIcSt11char_traitsIcESaIcEEESt4pairIKS5_S5_ESt10_Select1stIS8_ESt4lessIS5_ESaIS8_EEaSERKSE_@Base 0.14.0
 (optional=templinst)_ZNSt8_Rb_treeINSt7__cxx1112basic_stringIcSt11char_traitsIcESaIcEEESt4pairIKS5_St17reference_wrapperIKN6build211target_typeEEESt10_Select1stISD_ESt4lessIS5_ESaISD_EE17_M_emplace_uniqueIJRS7_RSB_EEES6_ISt17_Rb_tree_iteratorISD_EbEDpOT_@Base 0.14.0
 (optional=templinst)_ZNSt8_Rb_treeINSt7__cxx1112basic_stringIcSt11char_traitsIcESaIcEEESt4pairIKS5_St17reference_wrapperIKN6build211target_typeEEESt10_Select1stISD_ESt4lessIS5_ESaISD_EE8_M_eraseEPSt13_Rb_tree_nodeISD_E@Base 0.14.0
 (optional=templinst)_ZNSt8_Rb_treeINSt7__cxx1112basic_stringIcSt11char_traitsIcESaIcEEESt4pairIKS5_St17reference_wrapperIKN6build24ruleEEESt10_Select1stISD_EN4butl14compare_prefixIS5_EESaISD_EE17_M_emplace_uniqueIJS5_RSB_EEES6_ISt17_Rb_tree_iteratorISD_EbEDpOT_@Base 0.14.0
 (optional=templinst)_ZNSt8_Rb_treeINSt7__cxx1112basic_stringIcSt11char_traitsIcESaIcEEESt4pairIKS5_St17reference_wrapperIKN6build24ruleEEESt10_Select1stISD_EN4butl14compare_prefixIS5_EESaISD_EE8_M_eraseEPSt13_Rb_tree_nodeISD_E@Base 0.14.0
 (optional=templinst)_ZNSt8_Rb_treeINSt7__cxx1112basic_stringIcSt11char_traitsIcESaIcEEESt4pairIKS5_St8optionalIS5_EESt10_Select1stISA_ESt4lessIS5_ESaISA_EE17_M_emplace_uniqueIJS5_S9_EEES6_ISt17_Rb_tree_iteratorISA_EbEDpOT_@Base 0.14.0
 (optional=templinst)_ZNSt8_Rb_treeINSt7__cxx1112basic_stringIcSt11char_traitsIcESaIcEEESt4pairIKS5_St8optionalIS5_EESt10_Select1stISA_ESt4lessIS5_ESaISA_EE24_M_get_insert_unique_posERS7_@Base 0.14.0
 (optional=templinst)_ZNSt8_Rb_treeINSt7__cxx1112basic_stringIcSt11char_traitsIcESaIcEEESt4pairIKS5_St8optionalIS5_EESt10_Select1stISA_ESt4lessIS5_ESaISA_EE29_M_get_insert_hint_unique_posESt23_Rb_tree_const_iteratorISA_ERS7_@Base 0.14.0
 (optional=templinst)_ZNSt8_Rb_treeINSt7__cxx1112basic_stringIcSt11char_traitsIcESaIcEEESt4pairIKS5_St8optionalIS5_EESt10_Select1stISA_ESt4lessIS5_ESaISA_EE4swapERSG_@Base 0.14.0
 (optional=templinst)_ZNSt8_Rb_treeINSt7__cxx1112basic_stringIcSt11char_traitsIcESaIcEEESt4pairIKS5_St8optionalIS5_EESt10_Select1stISA_ESt4lessIS5_ESaISA_EE7_M_copyINSG_11_Alloc_nodeEEEPSt13_Rb_tree_nodeISA_EPKSK_PSt18_Rb_tree_node_baseRT_@Base 0.14.0
 (optional=templinst)_ZNSt8_Rb_treeINSt7__cxx1112basic_stringIcSt11char_traitsIcESaIcEEESt4pairIKS5_St8optionalIS5_EESt10_Select1stISA_ESt4lessIS5_ESaISA_EE7_M_copyINSG_20_Reuse_or_alloc_nodeEEEPSt13_Rb_tree_nodeISA_EPKSK_PSt18_Rb_tree_node_baseRT_@Base 0.14.0
 (optional=templinst)_ZNSt8_Rb_treeINSt7__cxx1112basic_stringIcSt11char_traitsIcESaIcEEESt4pairIKS5_St8optionalIS5_EESt10_Select1stISA_ESt4lessIS5_ESaISA_EE8_M_eraseEPSt13_Rb_tree_nodeISA_E@Base 0.14.0
 (optional=templinst)_ZNSt8_Rb_treeINSt7__cxx1112basic_stringIcSt11char_traitsIcESaIcEEESt4pairIKS5_St8optionalIS5_EESt10_Select1stISA_ESt4lessIS5_ESaISA_EEaSERKSG_@Base 0.14.0
 (optional=templinst)_ZNSt8_Rb_treeINSt7__cxx1112basic_stringIcSt11char_traitsIcESaIcEEESt4pairIKS5_St8optionalIbEESt10_Select1stISA_ESt4lessIS5_ESaISA_EE17_M_emplace_uniqueIJS5_S9_EEES6_ISt17_Rb_tree_iteratorISA_EbEDpOT_@Base 0.14.0
 (optional=templinst)_ZNSt8_Rb_treeINSt7__cxx1112basic_stringIcSt11char_traitsIcESaIcEEESt4pairIKS5_St8optionalIbEESt10_Select1stISA_ESt4lessIS5_ESaISA_EE24_M_get_insert_unique_posERS7_@Base 0.14.0
 (optional=templinst)_ZNSt8_Rb_treeINSt7__cxx1112basic_stringIcSt11char_traitsIcESaIcEEESt4pairIKS5_St8optionalIbEESt10_Select1stISA_ESt4lessIS5_ESaISA_EE29_M_get_insert_hint_unique_posESt23_Rb_tree_const_iteratorISA_ERS7_@Base 0.14.0
 (optional=templinst)_ZNSt8_Rb_treeINSt7__cxx1112basic_stringIcSt11char_traitsIcESaIcEEESt4pairIKS5_St8optionalIbEESt10_Select1stISA_ESt4lessIS5_ESaISA_EE4swapERSG_@Base 0.14.0
 (optional=templinst)_ZNSt8_Rb_treeINSt7__cxx1112basic_stringIcSt11char_traitsIcESaIcEEESt4pairIKS5_St8optionalIbEESt10_Select1stISA_ESt4lessIS5_ESaISA_EE7_M_copyINSG_11_Alloc_nodeEEEPSt13_Rb_tree_nodeISA_EPKSK_PSt18_Rb_tree_node_baseRT_@Base 0.14.0
 (optional=templinst)_ZNSt8_Rb_treeINSt7__cxx1112basic_stringIcSt11char_traitsIcESaIcEEESt4pairIKS5_St8optionalIbEESt10_Select1stISA_ESt4lessIS5_ESaISA_EE7_M_copyINSG_20_Reuse_or_alloc_nodeEEEPSt13_Rb_tree_nodeISA_EPKSK_PSt18_Rb_tree_node_baseRT_@Base 0.14.0
 (optional=templinst)_ZNSt8_Rb_treeINSt7__cxx1112basic_stringIcSt11char_traitsIcESaIcEEESt4pairIKS5_St8optionalIbEESt10_Select1stISA_ESt4lessIS5_ESaISA_EE8_M_eraseEPSt13_Rb_tree_nodeISA_E@Base 0.14.0
 (optional=templinst)_ZNSt8_Rb_treeINSt7__cxx1112basic_stringIcSt11char_traitsIcESaIcEEESt4pairIKS5_St8optionalIbEESt10_Select1stISA_ESt4lessIS5_ESaISA_EEaSERKSG_@Base 0.14.0
 (optional=templinst)_ZNSt8_Rb_treeINSt7__cxx1112basic_stringIcSt11char_traitsIcESaIcEEESt4pairIKS5_bESt10_Select1stIS8_ESt4lessIS5_ESaIS8_EE17_M_emplace_uniqueIJS6_IS5_bEEEES6_ISt17_Rb_tree_iteratorIS8_EbEDpOT_@Base 0.14.0
 (optional=templinst)_ZNSt8_Rb_treeINSt7__cxx1112basic_stringIcSt11char_traitsIcESaIcEEESt4pairIKS5_bESt10_Select1stIS8_ESt4lessIS5_ESaIS8_EE8_M_eraseEPSt13_Rb_tree_nodeIS8_E@Base 0.14.0
 (optional=templinst)_ZNSt8_Rb_treeIPKN6build211target_typeESt4pairIKS3_N4butl15prefix_map_implISt3mapINSt7__cxx1112basic_stringIcSt11char_traitsIcESaIcEEESt17reference_wrapperIKNS0_4ruleEENS6_14compare_prefixISE_EESaIS4_IKSE_SI_EEELc46EEEESt10_Select1stISQ_ESt4lessIS3_ESaISQ_EE24_M_get_insert_unique_posERS5_@Base 0.14.0
 (optional=templinst)_ZNSt8_Rb_treeIPKN6build211target_typeESt4pairIKS3_N4butl15prefix_map_implISt3mapINSt7__cxx1112basic_stringIcSt11char_traitsIcESaIcEEESt17reference_wrapperIKNS0_4ruleEENS6_14compare_prefixISE_EESaIS4_IKSE_SI_EEELc46EEEESt10_Select1stISQ_ESt4lessIS3_ESaISQ_EE29_M_get_insert_hint_unique_posESt23_Rb_tree_const_iteratorISQ_ERS5_@Base 0.14.0
 (optional=templinst)_ZNSt8_Rb_treeIPKN6build211target_typeESt4pairIKS3_N4butl15prefix_map_implISt3mapINSt7__cxx1112basic_stringIcSt11char_traitsIcESaIcEEESt17reference_wrapperIKNS0_4ruleEENS6_14compare_prefixISE_EESaIS4_IKSE_SI_EEELc46EEEESt10_Select1stISQ_ESt4lessIS3_ESaISQ_EE8_M_eraseEPSt13_Rb_tree_nodeISQ_E@Base 0.14.0
 (optional=templinst)_ZNSt8_Rb_treeIPKN6build25scopeES3_St9_IdentityIS3_ESt4lessIS3_ESaIS3_EE16_M_insert_uniqueIS3_EESt4pairISt17_Rb_tree_iteratorIS3_EbEOT_@Base 0.14.0
 (optional=templinst)_ZNSt8_Rb_treeIPKN6build25scopeES3_St9_IdentityIS3_ESt4lessIS3_ESaIS3_EE8_M_eraseEPSt13_Rb_tree_nodeIS3_E@Base 0.14.0
 (optional=templinst)_ZNSt8_Rb_treeISt17reference_wrapperIKN6build211target_typeEESt4pairIKS4_NS1_20variable_pattern_mapEESt10_Select1stIS8_ESt4lessIS4_ESaIS8_EE17_M_emplace_uniqueIJRS3_S7_EEES5_ISt17_Rb_tree_iteratorIS8_EbEDpOT_@Base 0.14.0
 (optional=templinst)_ZNSt8_Rb_treeISt17reference_wrapperIKN6build211target_typeEESt4pairIKS4_NS1_20variable_pattern_mapEESt10_Select1stIS8_ESt4lessIS4_ESaIS8_EE8_M_eraseEPSt13_Rb_tree_nodeIS8_E@Base 0.14.0
 (optional=templinst)_ZNSt8_Rb_treeISt17reference_wrapperIKN6build28variableEESt4pairIKS4_NS1_12variable_map10value_dataEESt10_Select1stIS9_EN4butl14compare_prefixIS4_EESaIS9_EE11equal_rangeERS6_@Base 0.14.0
 (optional=templinst)_ZNSt8_Rb_treeISt17reference_wrapperIKN6build28variableEESt4pairIKS4_NS1_12variable_map10value_dataEESt10_Select1stIS9_EN4butl14compare_prefixIS4_EESaIS9_EE17_M_emplace_uniqueIJRS3_S8_EEES5_ISt17_Rb_tree_iteratorIS9_EbEDpOT_@Base 0.14.0
 (optional=templinst)_ZNSt8_Rb_treeISt17reference_wrapperIKN6build28variableEESt4pairIKS4_NS1_12variable_map10value_dataEESt10_Select1stIS9_EN4butl14compare_prefixIS4_EESaIS9_EE24_M_get_insert_unique_posERS6_@Base 0.14.0
 (optional=templinst)_ZNSt8_Rb_treeISt17reference_wrapperIKN6build28variableEESt4pairIKS4_NS1_12variable_map10value_dataEESt10_Select1stIS9_EN4butl14compare_prefixIS4_EESaIS9_EE7_M_copyINSG_11_Alloc_nodeEEEPSt13_Rb_tree_nodeIS9_EPKSK_PSt18_Rb_tree_node_baseRT_@Base 0.14.0
 (optional=templinst)_ZNSt8_Rb_treeISt17reference_wrapperIKN6build28variableEESt4pairIKS4_NS1_12variable_map10value_dataEESt10_Select1stIS9_EN4butl14compare_prefixIS4_EESaIS9_EE8_M_eraseEPSt13_Rb_tree_nodeIS9_E@Base 0.14.0
 (optional=templinst)_ZNSt8_Rb_treeISt4pairIPKN6build28variableEPKNS1_12variable_mapEES0_IKS8_NS1_14variable_cacheIS8_E10entry_typeEESt10_Select1stISD_ESt4lessIS8_ESaISD_EE17_M_emplace_uniqueIJS8_SC_EEES0_ISt17_Rb_tree_iteratorISD_EbEDpOT_@Base 0.14.0
 (optional=templinst)_ZNSt8_Rb_treeISt4pairIPKN6build28variableEPKNS1_12variable_mapEES0_IKS8_NS1_14variable_cacheIS8_E10entry_typeEESt10_Select1stISD_ESt4lessIS8_ESaISD_EE8_M_eraseEPSt13_Rb_tree_nodeISD_E@Base 0.14.0
 (optional=templinst)_ZNSt8_Rb_treeISt5tupleIJPKN6build25valueEPKNS1_11target_typeENSt7__cxx1112basic_stringIcSt11char_traitsIcESaIcEEEEESt4pairIKSE_NS1_14variable_cacheISE_E10entry_typeEESt10_Select1stISK_ESt4lessISE_ESaISK_EE17_M_emplace_uniqueIJSE_SJ_EEESF_ISt17_Rb_tree_iteratorISK_EbEDpOT_@Base 0.14.0
 (optional=templinst)_ZNSt8_Rb_treeISt5tupleIJPKN6build25valueEPKNS1_11target_typeENSt7__cxx1112basic_stringIcSt11char_traitsIcESaIcEEEEESt4pairIKSE_NS1_14variable_cacheISE_E10entry_typeEESt10_Select1stISK_ESt4lessISE_ESaISK_EE8_M_eraseEPSt13_Rb_tree_nodeISK_E@Base 0.14.0
 (optional=templinst)_ZNSt8_Rb_treeISt8optionalINSt7__cxx1112basic_stringIcSt11char_traitsIcESaIcEEEESt4pairIKS7_S6_ESt10_Select1stISA_ESt4lessIS7_ESaISA_EE17_M_emplace_uniqueIJS7_S6_EEES8_ISt17_Rb_tree_iteratorISA_EbEDpOT_@Base 0.14.0
 (optional=templinst)_ZNSt8_Rb_treeISt8optionalINSt7__cxx1112basic_stringIcSt11char_traitsIcESaIcEEEESt4pairIKS7_S6_ESt10_Select1stISA_ESt4lessIS7_ESaISA_EE24_M_get_insert_unique_posERS9_@Base 0.14.0
 (optional=templinst)_ZNSt8_Rb_treeISt8optionalINSt7__cxx1112basic_stringIcSt11char_traitsIcESaIcEEEESt4pairIKS7_S6_ESt10_Select1stISA_ESt4lessIS7_ESaISA_EE29_M_get_insert_hint_unique_posESt23_Rb_tree_const_iteratorISA_ERS9_@Base 0.14.0
 (optional=templinst)_ZNSt8_Rb_treeISt8optionalINSt7__cxx1112basic_stringIcSt11char_traitsIcESaIcEEEESt4pairIKS7_S6_ESt10_Select1stISA_ESt4lessIS7_ESaISA_EE4swapERSG_@Base 0.14.0
 (optional=templinst)_ZNSt8_Rb_treeISt8optionalINSt7__cxx1112basic_stringIcSt11char_traitsIcESaIcEEEESt4pairIKS7_S6_ESt10_Select1stISA_ESt4lessIS7_ESaISA_EE7_M_copyINSG_11_Alloc_nodeEEEPSt13_Rb_tree_nodeISA_EPKSK_PSt18_Rb_tree_node_baseRT_@Base 0.14.0
 (optional=templinst)_ZNSt8_Rb_treeISt8optionalINSt7__cxx1112basic_stringIcSt11char_traitsIcESaIcEEEESt4pairIKS7_S6_ESt10_Select1stISA_ESt4lessIS7_ESaISA_EE7_M_copyINSG_20_Reuse_or_alloc_nodeEEEPSt13_Rb_tree_nodeISA_EPKSK_PSt18_Rb_tree_node_baseRT_@Base 0.14.0
 (optional=templinst)_ZNSt8_Rb_treeISt8optionalINSt7__cxx1112basic_stringIcSt11char_traitsIcESaIcEEEESt4pairIKS7_S6_ESt10_Select1stISA_ESt4lessIS7_ESaISA_EE8_M_eraseEPSt13_Rb_tree_nodeISA_E@Base 0.14.0
 (optional=templinst)_ZNSt8_Rb_treeISt8optionalINSt7__cxx1112basic_stringIcSt11char_traitsIcESaIcEEEESt4pairIKS7_S6_ESt10_Select1stISA_ESt4lessIS7_ESaISA_EEaSERKSG_@Base 0.14.0
 (optional=templinst)_ZNSt8_Rb_treeIhSt4pairIKhN6build25scope18operation_callbackEESt10_Select1stIS5_ESt4lessIhESaIS5_EE16_M_emplace_equalIJRNS2_6actionES4_EEESt17_Rb_tree_iteratorIS5_EDpOT_@Base 0.14.0
 (optional=templinst)_ZNSt8_Rb_treeIhSt4pairIKhN6build25scope18operation_callbackEESt10_Select1stIS5_ESt4lessIhESaIS5_EE8_M_eraseEPSt13_Rb_tree_nodeIS5_E@Base 0.14.0
 (optional=templinst)_ZNSt8_Rb_treeIiSt4pairIKiSt23_Rb_tree_const_iteratorIS0_IKNSt7__cxx1112basic_stringIcSt11char_traitsIcESaIcEEEN6build26config15saved_variablesEEEESt10_Select1stISF_ESt4lessIiESaISF_EE16_M_emplace_equalIJRiRSt17_Rb_tree_iteratorISD_EEEESO_ISF_EDpOT_@Base 0.14.0
 (optional=templinst)_ZNSt8_Rb_treeIiSt4pairIKiSt23_Rb_tree_const_iteratorIS0_IKNSt7__cxx1112basic_stringIcSt11char_traitsIcESaIcEEEN6build26config15saved_variablesEEEESt10_Select1stISF_ESt4lessIiESaISF_EE8_M_eraseEPSt13_Rb_tree_nodeISF_E@Base 0.14.0
 (optional=templinst)_ZNSt8_Rb_treeIlSt4pairIKllESt10_Select1stIS2_ESt4lessIlESaIS2_EE22_M_emplace_hint_uniqueIJRKSt21piecewise_construct_tSt5tupleIJRS1_EESD_IJEEEEESt17_Rb_tree_iteratorIS2_ESt23_Rb_tree_const_iteratorIS2_EDpOT_@Base 0.14.0
 (optional=templinst)_ZNSt8_Rb_treeIlSt4pairIKllESt10_Select1stIS2_ESt4lessIlESaIS2_EE24_M_get_insert_unique_posERS1_@Base 0.14.0
 (optional=templinst)_ZNSt8_Rb_treeIlSt4pairIKllESt10_Select1stIS2_ESt4lessIlESaIS2_EE29_M_get_insert_hint_unique_posESt23_Rb_tree_const_iteratorIS2_ERS1_@Base 0.14.0
 (optional=templinst)_ZNSt8_Rb_treeIlSt4pairIKllESt10_Select1stIS2_ESt4lessIlESaIS2_EE8_M_eraseEPSt13_Rb_tree_nodeIS2_E@Base 0.14.0
 (optional=templinst)_ZNSt8__detail13__compile_nfaINSt7__cxx1112regex_traitsIcEEPKcEENSt9enable_ifIXsrNS_20__is_contiguous_iterIT0_EE5valueESt10shared_ptrIKNS_4_NFAIT_EEEE4typeES8_S8_RKNSC_11locale_typeENSt15regex_constants18syntax_option_typeE@Base 0.14.0
 (optional=templinst)_ZNSt8__detail15_BracketMatcherINSt7__cxx1112regex_traitsIN6build26script5regex9line_charEEELb0ELb0EED1Ev@Base 0.14.0
 (optional=templinst)_ZNSt8__detail15_BracketMatcherINSt7__cxx1112regex_traitsIN6build26script5regex9line_charEEELb0ELb0EED2Ev@Base 0.14.0
 (optional=templinst)_ZNSt8__detail15_BracketMatcherINSt7__cxx1112regex_traitsIN6build26script5regex9line_charEEELb0ELb1EE13_M_make_rangeES6_S6_@Base 0.14.0
 (optional=templinst)_ZNSt8__detail15_BracketMatcherINSt7__cxx1112regex_traitsIN6build26script5regex9line_charEEELb0ELb1EED1Ev@Base 0.14.0
 (optional=templinst)_ZNSt8__detail15_BracketMatcherINSt7__cxx1112regex_traitsIN6build26script5regex9line_charEEELb0ELb1EED2Ev@Base 0.14.0
 (optional=templinst)_ZNSt8__detail15_BracketMatcherINSt7__cxx1112regex_traitsIN6build26script5regex9line_charEEELb1ELb0EED1Ev@Base 0.14.0
 (optional=templinst)_ZNSt8__detail15_BracketMatcherINSt7__cxx1112regex_traitsIN6build26script5regex9line_charEEELb1ELb0EED2Ev@Base 0.14.0
 (optional=templinst)_ZNSt8__detail15_BracketMatcherINSt7__cxx1112regex_traitsIN6build26script5regex9line_charEEELb1ELb1EE13_M_make_rangeES6_S6_@Base 0.14.0
 (optional=templinst)_ZNSt8__detail15_BracketMatcherINSt7__cxx1112regex_traitsIN6build26script5regex9line_charEEELb1ELb1EED1Ev@Base 0.14.0
 (optional=templinst)_ZNSt8__detail15_BracketMatcherINSt7__cxx1112regex_traitsIN6build26script5regex9line_charEEELb1ELb1EED2Ev@Base 0.14.0
 (optional=templinst)_ZNSt8__detail15_BracketMatcherINSt7__cxx1112regex_traitsIcEELb0ELb0EE8_M_readyEv@Base 0.14.0
 (optional=templinst)_ZNSt8__detail15_BracketMatcherINSt7__cxx1112regex_traitsIcEELb0ELb0EED1Ev@Base 0.14.0
 (optional=templinst)_ZNSt8__detail15_BracketMatcherINSt7__cxx1112regex_traitsIcEELb0ELb0EED2Ev@Base 0.14.0
 (optional=templinst)_ZNSt8__detail15_BracketMatcherINSt7__cxx1112regex_traitsIcEELb0ELb1EE13_M_make_rangeEcc@Base 0.14.0
 (optional=templinst)_ZNSt8__detail15_BracketMatcherINSt7__cxx1112regex_traitsIcEELb0ELb1EE8_M_readyEv@Base 0.14.0
 (optional=templinst)_ZNSt8__detail15_BracketMatcherINSt7__cxx1112regex_traitsIcEELb0ELb1EED1Ev@Base 0.14.0
 (optional=templinst)_ZNSt8__detail15_BracketMatcherINSt7__cxx1112regex_traitsIcEELb0ELb1EED2Ev@Base 0.14.0
 (optional=templinst)_ZNSt8__detail15_BracketMatcherINSt7__cxx1112regex_traitsIcEELb1ELb0EE8_M_readyEv@Base 0.14.0
 (optional=templinst)_ZNSt8__detail15_BracketMatcherINSt7__cxx1112regex_traitsIcEELb1ELb0EED1Ev@Base 0.14.0
 (optional=templinst)_ZNSt8__detail15_BracketMatcherINSt7__cxx1112regex_traitsIcEELb1ELb0EED2Ev@Base 0.14.0
 (optional=templinst)_ZNSt8__detail15_BracketMatcherINSt7__cxx1112regex_traitsIcEELb1ELb1EE13_M_make_rangeEcc@Base 0.14.0
 (optional=templinst)_ZNSt8__detail15_BracketMatcherINSt7__cxx1112regex_traitsIcEELb1ELb1EE8_M_readyEv@Base 0.14.0
 (optional=templinst)_ZNSt8__detail15_BracketMatcherINSt7__cxx1112regex_traitsIcEELb1ELb1EED1Ev@Base 0.14.0
 (optional=templinst)_ZNSt8__detail15_BracketMatcherINSt7__cxx1112regex_traitsIcEELb1ELb1EED2Ev@Base 0.14.0
 (optional=templinst)_ZNSt8__detail17__regex_algo_implIN9__gnu_cxx17__normal_iteratorIPKN6build26script5regex9line_charENSt7__cxx1112basic_stringIS6_St11char_traitsIS6_ESaIS6_EEEEESaINS9_9sub_matchISF_EEES6_NS9_12regex_traitsIS6_EELNS_20_RegexExecutorPolicyE0ELb1EEEbT_SM_RNS9_13match_resultsISM_T0_EERKNS9_11basic_regexIT1_T2_EENSt15regex_constants15match_flag_typeE@Base 0.14.0
 (optional=templinst)_ZNSt8__detail17__regex_algo_implIN9__gnu_cxx17__normal_iteratorIPKcNSt7__cxx1112basic_stringIcSt11char_traitsIcESaIcEEEEESaINS5_9sub_matchISB_EEEcNS5_12regex_traitsIcEELNS_20_RegexExecutorPolicyE0ELb0EEEbT_SI_RNS5_13match_resultsISI_T0_EERKNS5_11basic_regexIT1_T2_EENSt15regex_constants15match_flag_typeE@Base 0.14.0
 (optional=templinst)_ZNSt8__detail17__regex_algo_implIN9__gnu_cxx17__normal_iteratorIPKcNSt7__cxx1112basic_stringIcSt11char_traitsIcESaIcEEEEESaINS5_9sub_matchISB_EEEcNS5_12regex_traitsIcEELNS_20_RegexExecutorPolicyE0ELb1EEEbT_SI_RNS5_13match_resultsISI_T0_EERKNS5_11basic_regexIT1_T2_EENSt15regex_constants15match_flag_typeE@Base 0.14.0
 (optional=templinst)_ZNSt8__detail4_NFAINSt7__cxx1112regex_traitsIN6build26script5regex9line_charEEEE17_M_insert_backrefEm@Base 0.14.0
 (optional=templinst)_ZNSt8__detail4_NFAINSt7__cxx1112regex_traitsIcEEE15_M_insert_dummyEv@Base 0.14.0
 (optional=templinst)_ZNSt8__detail4_NFAINSt7__cxx1112regex_traitsIcEEE16_M_insert_repeatEllb@Base 0.14.0
 (optional=templinst)_ZNSt8__detail4_NFAINSt7__cxx1112regex_traitsIcEEE17_M_insert_backrefEm@Base 0.14.0
 (optional=templinst)_ZNSt8__detail4_NFAINSt7__cxx1112regex_traitsIcEEE17_M_insert_matcherESt8functionIFbcEE@Base 0.14.0
 (optional=templinst)_ZNSt8__detail4_NFAINSt7__cxx1112regex_traitsIcEEE23_M_insert_subexpr_beginEv@Base 0.14.0
 (optional=templinst)_ZNSt8__detail6_StateIN6build26script5regex9line_charEEC1EOS5_@Base 0.14.0
 (optional=templinst)_ZNSt8__detail6_StateIN6build26script5regex9line_charEEC2EOS5_@Base 0.14.0
 (optional=templinst)_ZNSt8__detail6_StateIN6build26script5regex9line_charEED1Ev@Base 0.14.0
 (optional=templinst)_ZNSt8__detail6_StateIN6build26script5regex9line_charEED2Ev@Base 0.14.0
 (optional=templinst)_ZNSt8__detail6_StateIcEC1EOS1_@Base 0.14.0
 (optional=templinst)_ZNSt8__detail6_StateIcEC2EOS1_@Base 0.14.0
 (optional=templinst)_ZNSt8__detail6_StateIcED1Ev@Base 0.14.0
 (optional=templinst)_ZNSt8__detail6_StateIcED2Ev@Base 0.14.0
 (optional=templinst)_ZNSt8__detail8_ScannerIN6build26script5regex9line_charEE10_M_advanceEv@Base 0.14.0
 (optional=templinst)_ZNSt8__detail8_ScannerIN6build26script5regex9line_charEE12_M_eat_classEc@Base 0.14.0
 (optional=templinst)_ZNSt8__detail8_ScannerIN6build26script5regex9line_charEE14_M_scan_normalEv@Base 0.14.0
 (optional=templinst)_ZNSt8__detail8_ScannerIN6build26script5regex9line_charEE16_M_scan_in_braceEv@Base 0.14.0
 (optional=templinst)_ZNSt8__detail8_ScannerIN6build26script5regex9line_charEE17_M_eat_escape_awkEv@Base 0.14.0
 (optional=templinst)_ZNSt8__detail8_ScannerIN6build26script5regex9line_charEE18_M_eat_escape_ecmaEv@Base 0.14.0
 (optional=templinst)_ZNSt8__detail8_ScannerIN6build26script5regex9line_charEE18_M_scan_in_bracketEv@Base 0.14.0
 (optional=templinst)_ZNSt8__detail8_ScannerIN6build26script5regex9line_charEE19_M_eat_escape_posixEv@Base 0.14.0
 (optional=templinst)_ZNSt8__detail8_ScannerIN6build26script5regex9line_charEEC1EPKS4_S7_NSt15regex_constants18syntax_option_typeESt6locale@Base 0.14.0
 (optional=templinst)_ZNSt8__detail8_ScannerIN6build26script5regex9line_charEEC2EPKS4_S7_NSt15regex_constants18syntax_option_typeESt6locale@Base 0.14.0
 (optional=templinst)_ZNSt8__detail8_ScannerIcE10_M_advanceEv@Base 0.14.0
 (optional=templinst)_ZNSt8__detail8_ScannerIcE12_M_eat_classEc@Base 0.14.0
 (optional=templinst)_ZNSt8__detail8_ScannerIcE14_M_scan_normalEv@Base 0.14.0
 (optional=templinst)_ZNSt8__detail8_ScannerIcE16_M_scan_in_braceEv@Base 0.14.0
 (optional=templinst)_ZNSt8__detail8_ScannerIcE17_M_eat_escape_awkEv@Base 0.14.0
 (optional=templinst)_ZNSt8__detail8_ScannerIcE18_M_eat_escape_ecmaEv@Base 0.14.0
 (optional=templinst)_ZNSt8__detail8_ScannerIcE18_M_scan_in_bracketEv@Base 0.14.0
 (optional=templinst)_ZNSt8__detail8_ScannerIcE19_M_eat_escape_posixEv@Base 0.14.0
 (optional=templinst)_ZNSt8__detail8_ScannerIcEC1EPKcS3_NSt15regex_constants18syntax_option_typeESt6locale@Base 0.14.0
 (optional=templinst)_ZNSt8__detail8_ScannerIcEC2EPKcS3_NSt15regex_constants18syntax_option_typeESt6locale@Base 0.14.0
 (optional=templinst)_ZNSt8__detail9_CompilerINSt7__cxx1112regex_traitsIN6build26script5regex9line_charEEEE11_M_try_charEv@Base 0.14.0
 (optional=templinst)_ZNSt8__detail9_CompilerINSt7__cxx1112regex_traitsIN6build26script5regex9line_charEEEE12_M_assertionEv@Base 0.14.0
 (optional=templinst)_ZNSt8__detail9_CompilerINSt7__cxx1112regex_traitsIN6build26script5regex9line_charEEEE13_M_quantifierEv@Base 0.14.0
 (optional=templinst)_ZNSt8__detail9_CompilerINSt7__cxx1112regex_traitsIN6build26script5regex9line_charEEEE14_M_alternativeEv@Base 0.14.0
 (optional=templinst)_ZNSt8__detail9_CompilerINSt7__cxx1112regex_traitsIN6build26script5regex9line_charEEEE14_M_disjunctionEv@Base 0.14.0
 (optional=templinst)_ZNSt8__detail9_CompilerINSt7__cxx1112regex_traitsIN6build26script5regex9line_charEEEE16_M_cur_int_valueEi@Base 0.14.0
 (optional=templinst)_ZNSt8__detail9_CompilerINSt7__cxx1112regex_traitsIN6build26script5regex9line_charEEEE18_M_expression_termILb0ELb0EEEbRSt4pairIbS6_ERNS_15_BracketMatcherIS7_XT_EXT0_EEE@Base 0.14.0
 (optional=templinst)_ZNSt8__detail9_CompilerINSt7__cxx1112regex_traitsIN6build26script5regex9line_charEEEE18_M_expression_termILb0ELb1EEEbRSt4pairIbS6_ERNS_15_BracketMatcherIS7_XT_EXT0_EEE@Base 0.14.0
 (optional=templinst)_ZNSt8__detail9_CompilerINSt7__cxx1112regex_traitsIN6build26script5regex9line_charEEEE18_M_expression_termILb1ELb0EEEbRSt4pairIbS6_ERNS_15_BracketMatcherIS7_XT_EXT0_EEE@Base 0.14.0
 (optional=templinst)_ZNSt8__detail9_CompilerINSt7__cxx1112regex_traitsIN6build26script5regex9line_charEEEE18_M_expression_termILb1ELb1EEEbRSt4pairIbS6_ERNS_15_BracketMatcherIS7_XT_EXT0_EEE@Base 0.14.0
 (optional=templinst)_ZNSt8__detail9_CompilerINSt7__cxx1112regex_traitsIN6build26script5regex9line_charEEEE21_M_bracket_expressionEv@Base 0.14.0
 (optional=templinst)_ZNSt8__detail9_CompilerINSt7__cxx1112regex_traitsIN6build26script5regex9line_charEEEE22_M_insert_char_matcherILb0ELb0EEEvv@Base 0.14.0
 (optional=templinst)_ZNSt8__detail9_CompilerINSt7__cxx1112regex_traitsIN6build26script5regex9line_charEEEE22_M_insert_char_matcherILb0ELb1EEEvv@Base 0.14.0
 (optional=templinst)_ZNSt8__detail9_CompilerINSt7__cxx1112regex_traitsIN6build26script5regex9line_charEEEE25_M_insert_bracket_matcherILb0ELb0EEEvb@Base 0.14.0
 (optional=templinst)_ZNSt8__detail9_CompilerINSt7__cxx1112regex_traitsIN6build26script5regex9line_charEEEE25_M_insert_bracket_matcherILb0ELb1EEEvb@Base 0.14.0
 (optional=templinst)_ZNSt8__detail9_CompilerINSt7__cxx1112regex_traitsIN6build26script5regex9line_charEEEE25_M_insert_bracket_matcherILb1ELb0EEEvb@Base 0.14.0
 (optional=templinst)_ZNSt8__detail9_CompilerINSt7__cxx1112regex_traitsIN6build26script5regex9line_charEEEE25_M_insert_bracket_matcherILb1ELb1EEEvb@Base 0.14.0
 (optional=templinst)_ZNSt8__detail9_CompilerINSt7__cxx1112regex_traitsIN6build26script5regex9line_charEEEE26_M_insert_any_matcher_ecmaILb0ELb0EEEvv@Base 0.14.0
 (optional=templinst)_ZNSt8__detail9_CompilerINSt7__cxx1112regex_traitsIN6build26script5regex9line_charEEEE26_M_insert_any_matcher_ecmaILb0ELb1EEEvv@Base 0.14.0
 (optional=templinst)_ZNSt8__detail9_CompilerINSt7__cxx1112regex_traitsIN6build26script5regex9line_charEEEE26_M_insert_any_matcher_ecmaILb1ELb0EEEvv@Base 0.14.0
 (optional=templinst)_ZNSt8__detail9_CompilerINSt7__cxx1112regex_traitsIN6build26script5regex9line_charEEEE26_M_insert_any_matcher_ecmaILb1ELb1EEEvv@Base 0.14.0
 (optional=templinst)_ZNSt8__detail9_CompilerINSt7__cxx1112regex_traitsIN6build26script5regex9line_charEEEE27_M_insert_any_matcher_posixILb0ELb0EEEvv@Base 0.14.0
 (optional=templinst)_ZNSt8__detail9_CompilerINSt7__cxx1112regex_traitsIN6build26script5regex9line_charEEEE27_M_insert_any_matcher_posixILb0ELb1EEEvv@Base 0.14.0
 (optional=templinst)_ZNSt8__detail9_CompilerINSt7__cxx1112regex_traitsIN6build26script5regex9line_charEEEE27_M_insert_any_matcher_posixILb1ELb0EEEvv@Base 0.14.0
 (optional=templinst)_ZNSt8__detail9_CompilerINSt7__cxx1112regex_traitsIN6build26script5regex9line_charEEEE27_M_insert_any_matcher_posixILb1ELb1EEEvv@Base 0.14.0
 (optional=templinst)_ZNSt8__detail9_CompilerINSt7__cxx1112regex_traitsIN6build26script5regex9line_charEEEE33_M_insert_character_class_matcherILb0ELb0EEEvv@Base 0.14.0
 (optional=templinst)_ZNSt8__detail9_CompilerINSt7__cxx1112regex_traitsIN6build26script5regex9line_charEEEE33_M_insert_character_class_matcherILb0ELb1EEEvv@Base 0.14.0
 (optional=templinst)_ZNSt8__detail9_CompilerINSt7__cxx1112regex_traitsIN6build26script5regex9line_charEEEE33_M_insert_character_class_matcherILb1ELb0EEEvv@Base 0.14.0
 (optional=templinst)_ZNSt8__detail9_CompilerINSt7__cxx1112regex_traitsIN6build26script5regex9line_charEEEE33_M_insert_character_class_matcherILb1ELb1EEEvv@Base 0.14.0
 (optional=templinst)_ZNSt8__detail9_CompilerINSt7__cxx1112regex_traitsIN6build26script5regex9line_charEEEE7_M_atomEv@Base 0.14.0
 (optional=templinst)_ZNSt8__detail9_CompilerINSt7__cxx1112regex_traitsIN6build26script5regex9line_charEEEEC1EPKS6_SA_RKNS5_16line_char_localeENSt15regex_constants18syntax_option_typeE@Base 0.14.0
 (optional=templinst)_ZNSt8__detail9_CompilerINSt7__cxx1112regex_traitsIN6build26script5regex9line_charEEEEC2EPKS6_SA_RKNS5_16line_char_localeENSt15regex_constants18syntax_option_typeE@Base 0.14.0
 (optional=templinst)_ZNSt8__detail9_CompilerINSt7__cxx1112regex_traitsIcEEE11_M_try_charEv@Base 0.14.0
 (optional=templinst)_ZNSt8__detail9_CompilerINSt7__cxx1112regex_traitsIcEEE12_M_assertionEv@Base 0.14.0
 (optional=templinst)_ZNSt8__detail9_CompilerINSt7__cxx1112regex_traitsIcEEE13_M_quantifierEv@Base 0.14.0
 (optional=templinst)_ZNSt8__detail9_CompilerINSt7__cxx1112regex_traitsIcEEE14_M_alternativeEv@Base 0.14.0
 (optional=templinst)_ZNSt8__detail9_CompilerINSt7__cxx1112regex_traitsIcEEE14_M_disjunctionEv@Base 0.14.0
 (optional=templinst)_ZNSt8__detail9_CompilerINSt7__cxx1112regex_traitsIcEEE16_M_cur_int_valueEi@Base 0.14.0
 (optional=templinst)_ZNSt8__detail9_CompilerINSt7__cxx1112regex_traitsIcEEE18_M_expression_termILb0ELb0EEEbRSt4pairIbcERNS_15_BracketMatcherIS3_XT_EXT0_EEE@Base 0.14.0
 (optional=templinst)_ZNSt8__detail9_CompilerINSt7__cxx1112regex_traitsIcEEE18_M_expression_termILb0ELb1EEEbRSt4pairIbcERNS_15_BracketMatcherIS3_XT_EXT0_EEE@Base 0.14.0
 (optional=templinst)_ZNSt8__detail9_CompilerINSt7__cxx1112regex_traitsIcEEE18_M_expression_termILb1ELb0EEEbRSt4pairIbcERNS_15_BracketMatcherIS3_XT_EXT0_EEE@Base 0.14.0
 (optional=templinst)_ZNSt8__detail9_CompilerINSt7__cxx1112regex_traitsIcEEE18_M_expression_termILb1ELb1EEEbRSt4pairIbcERNS_15_BracketMatcherIS3_XT_EXT0_EEE@Base 0.14.0
 (optional=templinst)_ZNSt8__detail9_CompilerINSt7__cxx1112regex_traitsIcEEE21_M_bracket_expressionEv@Base 0.14.0
 (optional=templinst)_ZNSt8__detail9_CompilerINSt7__cxx1112regex_traitsIcEEE22_M_insert_char_matcherILb0ELb0EEEvv@Base 0.14.0
 (optional=templinst)_ZNSt8__detail9_CompilerINSt7__cxx1112regex_traitsIcEEE22_M_insert_char_matcherILb0ELb1EEEvv@Base 0.14.0
 (optional=templinst)_ZNSt8__detail9_CompilerINSt7__cxx1112regex_traitsIcEEE22_M_insert_char_matcherILb1ELb0EEEvv@Base 0.14.0
 (optional=templinst)_ZNSt8__detail9_CompilerINSt7__cxx1112regex_traitsIcEEE22_M_insert_char_matcherILb1ELb1EEEvv@Base 0.14.0
 (optional=templinst)_ZNSt8__detail9_CompilerINSt7__cxx1112regex_traitsIcEEE25_M_insert_bracket_matcherILb0ELb0EEEvb@Base 0.14.0
 (optional=templinst)_ZNSt8__detail9_CompilerINSt7__cxx1112regex_traitsIcEEE25_M_insert_bracket_matcherILb0ELb1EEEvb@Base 0.14.0
 (optional=templinst)_ZNSt8__detail9_CompilerINSt7__cxx1112regex_traitsIcEEE25_M_insert_bracket_matcherILb1ELb0EEEvb@Base 0.14.0
 (optional=templinst)_ZNSt8__detail9_CompilerINSt7__cxx1112regex_traitsIcEEE25_M_insert_bracket_matcherILb1ELb1EEEvb@Base 0.14.0
 (optional=templinst)_ZNSt8__detail9_CompilerINSt7__cxx1112regex_traitsIcEEE26_M_insert_any_matcher_ecmaILb0ELb0EEEvv@Base 0.14.0
 (optional=templinst)_ZNSt8__detail9_CompilerINSt7__cxx1112regex_traitsIcEEE26_M_insert_any_matcher_ecmaILb0ELb1EEEvv@Base 0.14.0
 (optional=templinst)_ZNSt8__detail9_CompilerINSt7__cxx1112regex_traitsIcEEE26_M_insert_any_matcher_ecmaILb1ELb0EEEvv@Base 0.14.0
 (optional=templinst)_ZNSt8__detail9_CompilerINSt7__cxx1112regex_traitsIcEEE26_M_insert_any_matcher_ecmaILb1ELb1EEEvv@Base 0.14.0
 (optional=templinst)_ZNSt8__detail9_CompilerINSt7__cxx1112regex_traitsIcEEE27_M_insert_any_matcher_posixILb0ELb0EEEvv@Base 0.14.0
 (optional=templinst)_ZNSt8__detail9_CompilerINSt7__cxx1112regex_traitsIcEEE27_M_insert_any_matcher_posixILb0ELb1EEEvv@Base 0.14.0
 (optional=templinst)_ZNSt8__detail9_CompilerINSt7__cxx1112regex_traitsIcEEE27_M_insert_any_matcher_posixILb1ELb0EEEvv@Base 0.14.0
 (optional=templinst)_ZNSt8__detail9_CompilerINSt7__cxx1112regex_traitsIcEEE27_M_insert_any_matcher_posixILb1ELb1EEEvv@Base 0.14.0
 (optional=templinst)_ZNSt8__detail9_CompilerINSt7__cxx1112regex_traitsIcEEE33_M_insert_character_class_matcherILb0ELb0EEEvv@Base 0.14.0
 (optional=templinst)_ZNSt8__detail9_CompilerINSt7__cxx1112regex_traitsIcEEE33_M_insert_character_class_matcherILb0ELb1EEEvv@Base 0.14.0
 (optional=templinst)_ZNSt8__detail9_CompilerINSt7__cxx1112regex_traitsIcEEE33_M_insert_character_class_matcherILb1ELb0EEEvv@Base 0.14.0
 (optional=templinst)_ZNSt8__detail9_CompilerINSt7__cxx1112regex_traitsIcEEE33_M_insert_character_class_matcherILb1ELb1EEEvv@Base 0.14.0
 (optional=templinst)_ZNSt8__detail9_CompilerINSt7__cxx1112regex_traitsIcEEE6_M_popEv@Base 0.14.0
 (optional=templinst)_ZNSt8__detail9_CompilerINSt7__cxx1112regex_traitsIcEEE7_M_atomEv@Base 0.14.0
 (optional=templinst)_ZNSt8__detail9_CompilerINSt7__cxx1112regex_traitsIcEEEC1EPKcS6_RKSt6localeNSt15regex_constants18syntax_option_typeE@Base 0.14.0
 (optional=templinst)_ZNSt8__detail9_CompilerINSt7__cxx1112regex_traitsIcEEEC2EPKcS6_RKSt6localeNSt15regex_constants18syntax_option_typeE@Base 0.14.0
 (optional=templinst)_ZNSt8__detail9_ExecutorIN9__gnu_cxx17__normal_iteratorIPKN6build26script5regex9line_charENSt7__cxx1112basic_stringIS6_St11char_traitsIS6_ESaIS6_EEEEESaINS9_9sub_matchISF_EEENS9_12regex_traitsIS6_EELb0EE12_M_lookaheadEl@Base 0.14.0
 (optional=templinst)_ZNSt8__detail9_ExecutorIN9__gnu_cxx17__normal_iteratorIPKN6build26script5regex9line_charENSt7__cxx1112basic_stringIS6_St11char_traitsIS6_ESaIS6_EEEEESaINS9_9sub_matchISF_EEENS9_12regex_traitsIS6_EELb0EE16_M_main_dispatchENSL_11_Match_modeESt17integral_constantIbLb0EE@Base 0.14.0
 (optional=templinst)_ZNSt8__detail9_ExecutorIN9__gnu_cxx17__normal_iteratorIPKN6build26script5regex9line_charENSt7__cxx1112basic_stringIS6_St11char_traitsIS6_ESaIS6_EEEEESaINS9_9sub_matchISF_EEENS9_12regex_traitsIS6_EELb0EE16_M_rep_once_moreENSL_11_Match_modeEl@Base 0.14.0
 (optional=templinst)_ZNSt8__detail9_ExecutorIN9__gnu_cxx17__normal_iteratorIPKN6build26script5regex9line_charENSt7__cxx1112basic_stringIS6_St11char_traitsIS6_ESaIS6_EEEEESaINS9_9sub_matchISF_EEENS9_12regex_traitsIS6_EELb0EE6_M_dfsENSL_11_Match_modeEl@Base 0.14.0
 (optional=templinst)_ZNSt8__detail9_ExecutorIN9__gnu_cxx17__normal_iteratorIPKN6build26script5regex9line_charENSt7__cxx1112basic_stringIS6_St11char_traitsIS6_ESaIS6_EEEEESaINS9_9sub_matchISF_EEENS9_12regex_traitsIS6_EELb0EED1Ev@Base 0.14.0
 (optional=templinst)_ZNSt8__detail9_ExecutorIN9__gnu_cxx17__normal_iteratorIPKN6build26script5regex9line_charENSt7__cxx1112basic_stringIS6_St11char_traitsIS6_ESaIS6_EEEEESaINS9_9sub_matchISF_EEENS9_12regex_traitsIS6_EELb0EED2Ev@Base 0.14.0
 (optional=templinst)_ZNSt8__detail9_ExecutorIN9__gnu_cxx17__normal_iteratorIPKN6build26script5regex9line_charENSt7__cxx1112basic_stringIS6_St11char_traitsIS6_ESaIS6_EEEEESaINS9_9sub_matchISF_EEENS9_12regex_traitsIS6_EELb1EE12_M_lookaheadEl@Base 0.14.0
 (optional=templinst)_ZNSt8__detail9_ExecutorIN9__gnu_cxx17__normal_iteratorIPKN6build26script5regex9line_charENSt7__cxx1112basic_stringIS6_St11char_traitsIS6_ESaIS6_EEEEESaINS9_9sub_matchISF_EEENS9_12regex_traitsIS6_EELb1EE16_M_rep_once_moreENSL_11_Match_modeEl@Base 0.14.0
 (optional=templinst)_ZNSt8__detail9_ExecutorIN9__gnu_cxx17__normal_iteratorIPKN6build26script5regex9line_charENSt7__cxx1112basic_stringIS6_St11char_traitsIS6_ESaIS6_EEEEESaINS9_9sub_matchISF_EEENS9_12regex_traitsIS6_EELb1EE6_M_dfsENSL_11_Match_modeEl@Base 0.14.0
 (optional=templinst)_ZNSt8__detail9_ExecutorIN9__gnu_cxx17__normal_iteratorIPKN6build26script5regex9line_charENSt7__cxx1112basic_stringIS6_St11char_traitsIS6_ESaIS6_EEEEESaINS9_9sub_matchISF_EEENS9_12regex_traitsIS6_EELb1EED1Ev@Base 0.14.0
 (optional=templinst)_ZNSt8__detail9_ExecutorIN9__gnu_cxx17__normal_iteratorIPKN6build26script5regex9line_charENSt7__cxx1112basic_stringIS6_St11char_traitsIS6_ESaIS6_EEEEESaINS9_9sub_matchISF_EEENS9_12regex_traitsIS6_EELb1EED2Ev@Base 0.14.0
 (optional=templinst)_ZNSt8__detail9_ExecutorIN9__gnu_cxx17__normal_iteratorIPKcNSt7__cxx1112basic_stringIcSt11char_traitsIcESaIcEEEEESaINS5_9sub_matchISB_EEENS5_12regex_traitsIcEELb0EE12_M_lookaheadEl@Base 0.14.0
 (optional=templinst)_ZNSt8__detail9_ExecutorIN9__gnu_cxx17__normal_iteratorIPKcNSt7__cxx1112basic_stringIcSt11char_traitsIcESaIcEEEEESaINS5_9sub_matchISB_EEENS5_12regex_traitsIcEELb0EE16_M_main_dispatchENSH_11_Match_modeESt17integral_constantIbLb0EE@Base 0.14.0
 (optional=templinst)_ZNSt8__detail9_ExecutorIN9__gnu_cxx17__normal_iteratorIPKcNSt7__cxx1112basic_stringIcSt11char_traitsIcESaIcEEEEESaINS5_9sub_matchISB_EEENS5_12regex_traitsIcEELb0EE16_M_rep_once_moreENSH_11_Match_modeEl@Base 0.14.0
 (optional=templinst)_ZNSt8__detail9_ExecutorIN9__gnu_cxx17__normal_iteratorIPKcNSt7__cxx1112basic_stringIcSt11char_traitsIcESaIcEEEEESaINS5_9sub_matchISB_EEENS5_12regex_traitsIcEELb0EE6_M_dfsENSH_11_Match_modeEl@Base 0.14.0
 (optional=templinst)_ZNSt8__detail9_ExecutorIN9__gnu_cxx17__normal_iteratorIPKcNSt7__cxx1112basic_stringIcSt11char_traitsIcESaIcEEEEESaINS5_9sub_matchISB_EEENS5_12regex_traitsIcEELb0EED1Ev@Base 0.14.0
 (optional=templinst)_ZNSt8__detail9_ExecutorIN9__gnu_cxx17__normal_iteratorIPKcNSt7__cxx1112basic_stringIcSt11char_traitsIcESaIcEEEEESaINS5_9sub_matchISB_EEENS5_12regex_traitsIcEELb0EED2Ev@Base 0.14.0
 (optional=templinst)_ZNSt8__detail9_ExecutorIN9__gnu_cxx17__normal_iteratorIPKcNSt7__cxx1112basic_stringIcSt11char_traitsIcESaIcEEEEESaINS5_9sub_matchISB_EEENS5_12regex_traitsIcEELb1EE12_M_lookaheadEl@Base 0.14.0
 (optional=templinst)_ZNSt8__detail9_ExecutorIN9__gnu_cxx17__normal_iteratorIPKcNSt7__cxx1112basic_stringIcSt11char_traitsIcESaIcEEEEESaINS5_9sub_matchISB_EEENS5_12regex_traitsIcEELb1EE16_M_rep_once_moreENSH_11_Match_modeEl@Base 0.14.0
 (optional=templinst)_ZNSt8__detail9_ExecutorIN9__gnu_cxx17__normal_iteratorIPKcNSt7__cxx1112basic_stringIcSt11char_traitsIcESaIcEEEEESaINS5_9sub_matchISB_EEENS5_12regex_traitsIcEELb1EE6_M_dfsENSH_11_Match_modeEl@Base 0.14.0
 (optional=templinst)_ZNSt8__detail9_ExecutorIN9__gnu_cxx17__normal_iteratorIPKcNSt7__cxx1112basic_stringIcSt11char_traitsIcESaIcEEEEESaINS5_9sub_matchISB_EEENS5_12regex_traitsIcEELb1EED1Ev@Base 0.14.0
 (optional=templinst)_ZNSt8__detail9_ExecutorIN9__gnu_cxx17__normal_iteratorIPKcNSt7__cxx1112basic_stringIcSt11char_traitsIcESaIcEEEEESaINS5_9sub_matchISB_EEENS5_12regex_traitsIcEELb1EED2Ev@Base 0.14.0
 (optional=templinst)_ZNSt8__detail9_StateSeqINSt7__cxx1112regex_traitsIN6build26script5regex9line_charEEEE8_M_cloneEv@Base 0.14.0
 (optional=templinst)_ZNSt8__detail9_StateSeqINSt7__cxx1112regex_traitsIcEEE8_M_cloneEv@Base 0.14.0
 (optional=templinst)_ZNSt8functionIFN6build212target_stateENS0_6actionERKNS0_6targetEEEC1ERKS7_@Base 0.14.0
 (optional=templinst)_ZNSt8functionIFN6build212target_stateENS0_6actionERKNS0_6targetEEEC2ERKS7_@Base 0.14.0
 (optional=templinst)_ZNSt8functionIFN6build212target_stateENS0_6actionERKNS0_6targetEEED1Ev@Base 0.14.0
 (optional=templinst)_ZNSt8functionIFN6build212target_stateENS0_6actionERKNS0_6targetEEED2Ev@Base 0.14.0
 (optional=templinst)_ZNSt8functionIFbN6build26script5regex9line_charEEEC1ERKS5_@Base 0.14.0
 (optional=templinst)_ZNSt8functionIFbN6build26script5regex9line_charEEEC1INSt8__detail15_BracketMatcherINSt7__cxx1112regex_traitsIS3_EELb0ELb1EEEvvEET_@Base 0.14.0
 (optional=templinst)_ZNSt8functionIFbN6build26script5regex9line_charEEEC1INSt8__detail15_BracketMatcherINSt7__cxx1112regex_traitsIS3_EELb1ELb0EEEvvEET_@Base 0.14.0
 (optional=templinst)_ZNSt8functionIFbN6build26script5regex9line_charEEEC1INSt8__detail15_BracketMatcherINSt7__cxx1112regex_traitsIS3_EELb1ELb1EEEvvEET_@Base 0.14.0
 (optional=templinst)_ZNSt8functionIFbN6build26script5regex9line_charEEEC2ERKS5_@Base 0.14.0
 (optional=templinst)_ZNSt8functionIFbN6build26script5regex9line_charEEEC2INSt8__detail15_BracketMatcherINSt7__cxx1112regex_traitsIS3_EELb0ELb1EEEvvEET_@Base 0.14.0
 (optional=templinst)_ZNSt8functionIFbN6build26script5regex9line_charEEEC2INSt8__detail15_BracketMatcherINSt7__cxx1112regex_traitsIS3_EELb1ELb0EEEvvEET_@Base 0.14.0
 (optional=templinst)_ZNSt8functionIFbN6build26script5regex9line_charEEEC2INSt8__detail15_BracketMatcherINSt7__cxx1112regex_traitsIS3_EELb1ELb1EEEvvEET_@Base 0.14.0
 (optional=templinst)_ZNSt8functionIFbcEEC1ERKS1_@Base 0.14.0
 (optional=templinst)_ZNSt8functionIFbcEEC1INSt8__detail15_BracketMatcherINSt7__cxx1112regex_traitsIcEELb0ELb0EEEvvEET_@Base 0.14.0
 (optional=templinst)_ZNSt8functionIFbcEEC1INSt8__detail15_BracketMatcherINSt7__cxx1112regex_traitsIcEELb0ELb1EEEvvEET_@Base 0.14.0
 (optional=templinst)_ZNSt8functionIFbcEEC1INSt8__detail15_BracketMatcherINSt7__cxx1112regex_traitsIcEELb1ELb0EEEvvEET_@Base 0.14.0
 (optional=templinst)_ZNSt8functionIFbcEEC1INSt8__detail15_BracketMatcherINSt7__cxx1112regex_traitsIcEELb1ELb1EEEvvEET_@Base 0.14.0
 (optional=templinst)_ZNSt8functionIFbcEEC2ERKS1_@Base 0.14.0
 (optional=templinst)_ZNSt8functionIFbcEEC2INSt8__detail15_BracketMatcherINSt7__cxx1112regex_traitsIcEELb0ELb0EEEvvEET_@Base 0.14.0
 (optional=templinst)_ZNSt8functionIFbcEEC2INSt8__detail15_BracketMatcherINSt7__cxx1112regex_traitsIcEELb0ELb1EEEvvEET_@Base 0.14.0
 (optional=templinst)_ZNSt8functionIFbcEEC2INSt8__detail15_BracketMatcherINSt7__cxx1112regex_traitsIcEELb1ELb0EEEvvEET_@Base 0.14.0
 (optional=templinst)_ZNSt8functionIFbcEEC2INSt8__detail15_BracketMatcherINSt7__cxx1112regex_traitsIcEELb1ELb1EEEvvEET_@Base 0.14.0
 (optional=templinst)_ZNSt8optionalIN4butl10basic_pathIcNS0_13any_path_kindIcEEEEED1Ev@Base 0.14.0
 (optional=templinst)_ZNSt8optionalIN4butl10basic_pathIcNS0_13any_path_kindIcEEEEED2Ev@Base 0.14.0
 (optional=templinst)_ZNSt8optionalIN4butl10basic_pathIcNS0_13dir_path_kindIcEEEEED1Ev@Base 0.14.0
 (optional=templinst)_ZNSt8optionalIN4butl10basic_pathIcNS0_13dir_path_kindIcEEEEED2Ev@Base 0.14.0
 (optional=templinst)_ZNSt8optionalIN4butl12project_nameEED1Ev@Base 0.14.0
 (optional=templinst)_ZNSt8optionalIN4butl12project_nameEED2Ev@Base 0.14.0
 (optional=templinst)_ZNSt8optionalINSt7__cxx1112basic_stringIcSt11char_traitsIcESaIcEEEED1Ev@Base 0.14.0
 (optional=templinst)_ZNSt8optionalINSt7__cxx1112basic_stringIcSt11char_traitsIcESaIcEEEED2Ev@Base 0.14.0
 (optional=templinst)_ZNSt8optionalINSt7__cxx1112basic_stringIcSt11char_traitsIcESaIcEEEEaSIS5_EENSt9enable_ifIX7__and_vISt6__not_ISt7is_sameIS6_NSt9remove_cvINSt16remove_referenceIT_E4typeEE4typeEEES9_ISt6__and_IJSt9is_scalarIS5_ESA_IS5_NSt5decayISD_E4typeEEEEESt16is_constructibleIS5_JSD_EESt13is_assignableIRS5_SD_EEERS6_E4typeEOSD_@Base 0.14.0
 (optional=templinst)_ZSt13__adjust_heapIN9__gnu_cxx17__normal_iteratorIPN6build26script5regex9line_charESt6vectorIS5_SaIS5_EEEElS5_NS0_5__ops15_Iter_less_iterEEvT_T0_SE_T1_T2_@Base 0.14.0
 (optional=templinst)_ZSt13__adjust_heapIN9__gnu_cxx17__normal_iteratorIPcSt6vectorIcSaIcEEEElcNS0_5__ops15_Iter_less_iterEEvT_T0_SA_T1_T2_@Base 0.14.0
 (optional=templinst)_ZSt13binary_searchIN9__gnu_cxx17__normal_iteratorIPKN6build26script5regex9line_charESt6vectorIS5_SaIS5_EEEES5_EbT_SC_RKT0_@Base 0.14.0
 (optional=templinst)_ZSt13binary_searchIN9__gnu_cxx17__normal_iteratorIPKcSt6vectorIcSaIcEEEEcEbT_S8_RKT0_@Base 0.14.0
 (optional=templinst)_ZSt16__insertion_sortIN9__gnu_cxx17__normal_iteratorIPN6build26script5regex9line_charESt6vectorIS5_SaIS5_EEEENS0_5__ops15_Iter_less_iterEEvT_SD_T0_@Base 0.14.0
 (optional=templinst)_ZSt16__insertion_sortIN9__gnu_cxx17__normal_iteratorIPcSt6vectorIcSaIcEEEENS0_5__ops15_Iter_less_iterEEvT_S9_T0_@Base 0.14.0
 (optional=templinst)_ZSt16__introsort_loopIN9__gnu_cxx17__normal_iteratorIPcSt6vectorIcSaIcEEEElNS0_5__ops15_Iter_less_iterEEvT_S9_T0_T1_@Base 0.14.0
 _ZSt19__throw_regex_errorNSt15regex_constants10error_typeEPKc@Base 0.14.0
 _ZSt19piecewise_construct@Base 0.14.0
 (optional=templinst)_ZSt22__final_insertion_sortIN9__gnu_cxx17__normal_iteratorIPcSt6vectorIcSaIcEEEENS0_5__ops15_Iter_less_iterEEvT_S9_T0_@Base 0.14.0
 (optional=templinst)_ZSt22__uninitialized_copy_aIN9__gnu_cxx17__normal_iteratorIPN6build210metaopspecESt6vectorIS3_N4butl15small_allocatorIS3_Lm1ENS6_22small_allocator_bufferIS3_Lm1EEEEEEEES4_SA_ET0_T_SE_SD_RT1_@Base 0.14.0
 (optional=templinst)_ZSt22__uninitialized_copy_aIN9__gnu_cxx17__normal_iteratorIPN6build25valueESt6vectorIS3_N4butl15small_allocatorIS3_Lm1ENS6_22small_allocator_bufferIS3_Lm1EEEEEEEES4_SA_ET0_T_SE_SD_RT1_@Base 0.14.0
 (optional=templinst)_ZSt22__uninitialized_copy_aIN9__gnu_cxx17__normal_iteratorIPN6build26opspecESt6vectorIS3_N4butl15small_allocatorIS3_Lm1ENS6_22small_allocator_bufferIS3_Lm1EEEEEEEES4_SA_ET0_T_SE_SD_RT1_@Base 0.14.0
 (optional=templinst)_ZSt22__uninitialized_copy_aIN9__gnu_cxx17__normal_iteratorIPN6build29attributeESt6vectorIS3_N4butl15small_allocatorIS3_Lm1ENS6_22small_allocator_bufferIS3_Lm1EEEEEEEES4_SA_ET0_T_SE_SD_RT1_@Base 0.14.0
 (optional=templinst)_ZSt22__uninitialized_copy_aIPKN6build210attributesEPS1_N4butl15small_allocatorIS1_Lm2ENS5_22small_allocator_bufferIS1_Lm2EEEEEET0_T_SB_SA_RT1_@Base 0.14.0
 (optional=templinst)_ZSt22__uninitialized_copy_aIPKN6build210metaopspecEPS1_N4butl15small_allocatorIS1_Lm1ENS5_22small_allocator_bufferIS1_Lm1EEEEEET0_T_SB_SA_RT1_@Base 0.14.0
 (optional=templinst)_ZSt22__uninitialized_copy_aIPKN6build217clean_adhoc_extraEPS1_N4butl15small_allocatorIS1_Lm2ENS5_22small_allocator_bufferIS1_Lm2EEEEEET0_T_SB_SA_RT1_@Base 0.14.0
 (optional=templinst)_ZSt22__uninitialized_copy_aIPKN6build24nameEPS1_N4butl15small_allocatorIS1_Lm1ENS5_22small_allocator_bufferIS1_Lm1EEEEEET0_T_SB_SA_RT1_@Base 0.14.0
 (optional=templinst)_ZSt22__uninitialized_copy_aIPKN6build25valueEPS1_N4butl15small_allocatorIS1_Lm1ENS5_22small_allocator_bufferIS1_Lm1EEEEEET0_T_SB_SA_RT1_@Base 0.14.0
 (optional=templinst)_ZSt22__uninitialized_copy_aIPKN6build25valueEPS1_N4butl15small_allocatorIS1_Lm2ENS5_22small_allocator_bufferIS1_Lm2EEEEEET0_T_SB_SA_RT1_@Base 0.14.0
 (optional=templinst)_ZSt22__uninitialized_copy_aIPKN6build25valueEPS1_N4butl15small_allocatorIS1_Lm3ENS5_22small_allocator_bufferIS1_Lm3EEEEEET0_T_SB_SA_RT1_@Base 0.14.0
 (optional=templinst)_ZSt22__uninitialized_copy_aIPKN6build26opspecEPS1_N4butl15small_allocatorIS1_Lm1ENS5_22small_allocator_bufferIS1_Lm1EEEEEET0_T_SB_SA_RT1_@Base 0.14.0
 (optional=templinst)_ZSt22__uninitialized_copy_aIPKN6build26parser15adhoc_names_locEPS2_N4butl15small_allocatorIS2_Lm1ENS6_22small_allocator_bufferIS2_Lm1EEEEEET0_T_SC_SB_RT1_@Base 0.14.0
 (optional=templinst)_ZSt22__uninitialized_copy_aIPKN6build29attributeEPS1_N4butl15small_allocatorIS1_Lm1ENS5_22small_allocator_bufferIS1_Lm1EEEEEET0_T_SB_SA_RT1_@Base 0.14.0
 (optional=templinst)_ZSt27__uninitialized_default_n_aIPN6build26parser15adhoc_names_locEmN4butl15small_allocatorIS2_Lm1ENS4_22small_allocator_bufferIS2_Lm1EEEEEET_S9_T0_RT1_@Base 0.14.0
 (optional=templinst)_ZSt30__lexicographical_compare_implIPKN6build24nameES3_N9__gnu_cxx5__ops15_Iter_less_iterEEbT_S7_T0_S8_T1_@Base 0.14.0
 (optional=templinst)_ZSt8__uniqueIN9__gnu_cxx17__normal_iteratorIPN6build26script5regex9line_charESt6vectorIS5_SaIS5_EEEENS0_5__ops19_Iter_equal_to_iterEET_SD_SD_T0_@Base 0.14.0
 (optional=templinst)_ZSt8__uniqueIN9__gnu_cxx17__normal_iteratorIPcSt6vectorIcSaIcEEEENS0_5__ops19_Iter_equal_to_iterEET_S9_S9_T0_@Base 0.14.0
 (optional=templinst)_ZSt9__find_ifIN9__gnu_cxx17__normal_iteratorIPKN6build212module_stateESt6vectorIS3_SaIS3_EEEENS0_5__ops10_Iter_predIZNKS2_10module_map4findERKNSt7__cxx1112basic_stringIcSt11char_traitsIcESaIcEEEEUlRS4_E_EEET_SO_SO_T0_St26random_access_iterator_tag@Base 0.14.0
 (optional=templinst)_ZSt9__find_ifIN9__gnu_cxx17__normal_iteratorIPKN6build26actionESt6vectorIS3_N4butl15small_allocatorIS3_Lm1ENS7_22small_allocator_bufferIS3_Lm1EEEEEEEENS0_5__ops16_Iter_equals_valIKhEEET_SI_SI_T0_St26random_access_iterator_tag@Base 0.14.0
 (optional=templinst)_ZSt9__find_ifIN9__gnu_cxx17__normal_iteratorIPKN6build26config14saved_variableESt6vectorIS4_SaIS4_EEEENS0_5__ops10_Iter_predIZNKS3_15saved_variables4findERKNS2_8variableEEUlRS5_E_EEET_SK_SK_T0_St26random_access_iterator_tag@Base 0.14.0
 (optional=templinst)_ZSt9__find_ifIN9__gnu_cxx17__normal_iteratorIPKNSt7__cxx1112basic_stringIcSt11char_traitsIcESaIcEEESt6vectorIS7_N4butl15small_allocatorIS7_Lm2ENSB_22small_allocator_bufferIS7_Lm2EEEEEEEENS0_5__ops16_Iter_equals_valIS8_EEET_SL_SL_T0_St26random_access_iterator_tag@Base 0.14.0
 (optional=templinst)_ZSt9__find_ifIN9__gnu_cxx17__normal_iteratorIPKNSt7__cxx1112basic_stringIcSt11char_traitsIcESaIcEEESt6vectorIS7_SaIS7_EEEENS0_5__ops16_Iter_equals_valIS8_EEET_SH_SH_T0_St26random_access_iterator_tag@Base 0.14.0
 (optional=templinst)_ZSt9__find_ifIN9__gnu_cxx17__normal_iteratorIPKSt10unique_ptrIN6build24test6script5scopeESt14default_deleteIS6_EESt6vectorIS9_SaIS9_EEEENS0_5__ops10_Iter_predIZNKS5_5group5emptyEvEUlRSA_E_EEET_SM_SM_T0_St26random_access_iterator_tag@Base 0.14.0
 (optional=templinst)_ZSt9__find_ifIN9__gnu_cxx17__normal_iteratorIPN6build212module_stateESt6vectorIS3_SaIS3_EEEENS0_5__ops10_Iter_predIZNS2_10module_map4findERKNSt7__cxx1112basic_stringIcSt11char_traitsIcESaIcEEEEUlRKS3_E_EEET_SO_SO_T0_St26random_access_iterator_tag@Base 0.14.0
 (optional=templinst)_ZSt9__find_ifIN9__gnu_cxx17__normal_iteratorIPN6build26actionESt6vectorIS3_N4butl15small_allocatorIS3_Lm1ENS6_22small_allocator_bufferIS3_Lm1EEEEEEEENS0_5__ops16_Iter_equals_valIKS3_EEET_SH_SH_T0_St26random_access_iterator_tag@Base 0.14.0
 (optional=templinst)_ZSt9__find_ifIN9__gnu_cxx17__normal_iteratorIPNSt7__cxx1112basic_stringIcSt11char_traitsIcESaIcEEESt6vectorIS7_N4butl15small_allocatorIS7_Lm2ENSA_22small_allocator_bufferIS7_Lm2EEEEEEEENS0_5__ops16_Iter_equals_valIKS7_EEET_SL_SL_T0_St26random_access_iterator_tag@Base 0.14.0
 (optional=templinst)_ZSt9__find_ifIN9__gnu_cxx17__normal_iteratorIPNSt7__cxx1112basic_stringIcSt11char_traitsIcESaIcEEESt6vectorIS7_SaIS7_EEEENS0_5__ops10_Iter_predIZN6build26config17saved_environment4findERKS7_EUlSJ_E_EEET_SM_SM_T0_St26random_access_iterator_tag@Base 0.14.0
 (optional=templinst)_ZSt9use_facetISt5ctypeIN6build26script5regex9line_charEEERKT_RKSt6locale@Base 0.14.0
 (optional=templinst)_ZSteqIcEN9__gnu_cxx11__enable_ifIXsrSt9__is_charIT_E7__valueEbE6__typeERKNSt7__cxx1112basic_stringIS3_St11char_traitsIS3_ESaIS3_EEESE_@Base 0.14.0
 _ZStlsRSoRKN4butl10basic_pathIcNS0_13any_path_kindIcEEEE@Base 0.14.0
 _ZStlsRSoRKN4butl12process_pathE@Base 0.14.0
 _ZStlsRSoRKN4butl20basic_path_name_viewINS0_10basic_pathIcNS0_13any_path_kindIcEEEEEE@Base 0.14.0
 (optional=templinst)_ZStplIcSt11char_traitsIcESaIcEENSt7__cxx1112basic_stringIT_T0_T1_EEOS8_PKS5_@Base 0.14.0
 (optional=templinst)_ZStplIcSt11char_traitsIcESaIcEENSt7__cxx1112basic_stringIT_T0_T1_EEOS8_S5_@Base 0.14.0
 (optional=templinst)_ZStplIcSt11char_traitsIcESaIcEENSt7__cxx1112basic_stringIT_T0_T1_EEPKS5_OS8_@Base 0.14.0
 (optional=templinst)_ZStplIcSt11char_traitsIcESaIcEENSt7__cxx1112basic_stringIT_T0_T1_EEPKS5_RKS8_@Base 0.14.0
 (optional=templinst)_ZStplIcSt11char_traitsIcESaIcEENSt7__cxx1112basic_stringIT_T0_T1_EES5_RKS8_@Base 0.14.0
 _ZTIFN6build212target_stateENS_6actionERKNS_5scopeERKNS_3dirEE@Base 0.14.0
 _ZTIFN6build212target_stateENS_6actionERKNS_6targetEE@Base 0.14.0
 _ZTIFN6build25valueEON4butl7auto_fdEE@Base 0.14.0
 _ZTIN4butl12char_scannerINS_14utf8_validatorELm2EEE@Base 0.14.0
 _ZTIN4butl13process_errorE@Base 0.14.0
 _ZTIN4butl17invalid_path_baseE@Base 0.14.0
 _ZTIN4butl18invalid_basic_pathIcEE@Base 0.14.0
 _ZTIN6build210adhoc_ruleE@Base 0.14.0
 _ZTIN6build210alias_ruleE@Base 0.14.0
 _ZTIN6build210fsdir_ruleE@Base 0.14.0
 _ZTIN6build211cxx_rule_v1E@Base 0.14.0
 _ZTIN6build211path_targetE@Base 0.14.0
 _ZTIN6build211simple_ruleE@Base 0.14.0
 _ZTIN6build212mtime_targetE@Base 0.14.0
 _ZTIN6build214adhoc_cxx_ruleE@Base 0.14.0
 _ZTIN6build218adhoc_rule_pattern13fallback_ruleE@Base 0.14.0
 _ZTIN6build218adhoc_rule_patternE@Base 0.14.0
 _ZTIN6build222adhoc_buildscript_ruleE@Base 0.14.0
 _ZTIN6build224adhoc_rule_regex_patternE@Base 0.14.0
 _ZTIN6build224adhoc_rule_with_deadlineE@Base 0.14.0
 _ZTIN6build23dirE@Base 0.14.0
 _ZTIN6build23docE@Base 0.14.0
 _ZTIN6build23exeE@Base 0.14.0
 _ZTIN6build23manE@Base 0.14.0
 _ZTIN6build24dist4ruleE@Base 0.14.0
 _ZTIN6build24dist6moduleE@Base 0.14.0
 _ZTIN6build24fileE@Base 0.14.0
 _ZTIN6build24man1E@Base 0.14.0
 _ZTIN6build24ruleE@Base 0.14.0
 _ZTIN6build24test10group_ruleE@Base 0.14.0
 _ZTIN6build24test10testscriptE@Base 0.14.0
 _ZTIN6build24test11common_dataE@Base 0.14.0
 _ZTIN6build24test12default_ruleE@Base 0.14.0
 _ZTIN6build24test4ruleE@Base 0.14.0
 _ZTIN6build24test6commonE@Base 0.14.0
 _ZTIN6build24test6moduleE@Base 0.14.0
 _ZTIN6build24test6script10scope_baseE@Base 0.14.0
 _ZTIN6build24test6script11script_baseE@Base 0.14.0
 _ZTIN6build24test6script14default_runnerE@Base 0.14.0
 _ZTIN6build24test6script4testE@Base 0.14.0
 _ZTIN6build24test6script5groupE@Base 0.14.0
 _ZTIN6build24test6script5lexerE@Base 0.14.0
 _ZTIN6build24test6script5scopeE@Base 0.14.0
 _ZTIN6build24test6script6parserE@Base 0.14.0
 _ZTIN6build24test6script6runnerE@Base 0.14.0
 _ZTIN6build24test6script6scriptE@Base 0.14.0
 _ZTIN6build25aliasE@Base 0.14.0
 _ZTIN6build25build6script11environmentE@Base 0.14.0
 _ZTIN6build25build6script14default_runnerE@Base 0.14.0
 _ZTIN6build25build6script5lexerE@Base 0.14.0
 _ZTIN6build25build6script6parserE@Base 0.14.0
 _ZTIN6build25build6script6runnerE@Base 0.14.0
 _ZTIN6build25fsdirE@Base 0.14.0
 _ZTIN6build25legalE@Base 0.14.0
 _ZTIN6build25lexerE@Base 0.14.0
 _ZTIN6build26config6moduleE@Base 0.14.0
 _ZTIN6build26failedE@Base 0.14.0
 _ZTIN6build26moduleE@Base 0.14.0
 _ZTIN6build26parserE@Base 0.14.0
 _ZTIN6build26script11environmentE@Base 0.14.0
 _ZTIN6build26script3cli11eos_reachedE@Base 0.14.0
 _ZTIN6build26script3cli12argv_scannerE@Base 0.14.0
 _ZTIN6build26script3cli13invalid_valueE@Base 0.14.0
 _ZTIN6build26script3cli13missing_valueE@Base 0.14.0
 _ZTIN6build26script3cli14unknown_optionE@Base 0.14.0
 _ZTIN6build26script3cli14vector_scannerE@Base 0.14.0
 _ZTIN6build26script3cli16unknown_argumentE@Base 0.14.0
 _ZTIN6build26script3cli7scannerE@Base 0.14.0
 _ZTIN6build26script3cli9exceptionE@Base 0.14.0
 _ZTIN6build26script4exitE@Base 0.14.0
 _ZTIN6build26script5lexerE@Base 0.14.0
 _ZTIN6build26script6parserE@Base 0.14.0
 _ZTIN6build26targetE@Base 0.14.0
 _ZTIN6build27install10alias_ruleE@Base 0.14.0
 _ZTIN6build27install10fsdir_ruleE@Base 0.14.0
 _ZTIN6build27install10group_ruleE@Base 0.14.0
 _ZTIN6build27install9file_ruleE@Base 0.14.0
 _ZTIN6build28cxx_ruleE@Base 0.14.0
 _ZTIN6build28manifestE@Base 0.14.0
 _ZTIN6build29buildfileE@Base 0.14.0
 _ZTIN6build29file_ruleE@Base 0.14.0
 _ZTIN6build29noop_ruleE@Base 0.14.0
 _ZTINSt6thread11_State_implINS_8_InvokerISt5tupleIJPFPvS3_EPN6build29schedulerEEEEEEE@Base 0.14.0
 _ZTINSt8__detail11_AnyMatcherINSt7__cxx1112regex_traitsIN6build26script5regex9line_charEEELb0ELb0ELb0EEE@Base 0.14.0
 _ZTINSt8__detail11_AnyMatcherINSt7__cxx1112regex_traitsIN6build26script5regex9line_charEEELb0ELb0ELb1EEE@Base 0.14.0
 _ZTINSt8__detail11_AnyMatcherINSt7__cxx1112regex_traitsIN6build26script5regex9line_charEEELb0ELb1ELb0EEE@Base 0.14.0
 _ZTINSt8__detail11_AnyMatcherINSt7__cxx1112regex_traitsIN6build26script5regex9line_charEEELb0ELb1ELb1EEE@Base 0.14.0
 _ZTINSt8__detail11_AnyMatcherINSt7__cxx1112regex_traitsIN6build26script5regex9line_charEEELb1ELb0ELb0EEE@Base 0.14.0
 _ZTINSt8__detail11_AnyMatcherINSt7__cxx1112regex_traitsIN6build26script5regex9line_charEEELb1ELb0ELb1EEE@Base 0.14.0
 _ZTINSt8__detail11_AnyMatcherINSt7__cxx1112regex_traitsIN6build26script5regex9line_charEEELb1ELb1ELb0EEE@Base 0.14.0
 _ZTINSt8__detail11_AnyMatcherINSt7__cxx1112regex_traitsIN6build26script5regex9line_charEEELb1ELb1ELb1EEE@Base 0.14.0
 _ZTINSt8__detail11_AnyMatcherINSt7__cxx1112regex_traitsIcEELb0ELb0ELb0EEE@Base 0.14.0
 _ZTINSt8__detail11_AnyMatcherINSt7__cxx1112regex_traitsIcEELb0ELb0ELb1EEE@Base 0.14.0
 _ZTINSt8__detail11_AnyMatcherINSt7__cxx1112regex_traitsIcEELb0ELb1ELb0EEE@Base 0.14.0
 _ZTINSt8__detail11_AnyMatcherINSt7__cxx1112regex_traitsIcEELb0ELb1ELb1EEE@Base 0.14.0
 _ZTINSt8__detail11_AnyMatcherINSt7__cxx1112regex_traitsIcEELb1ELb0ELb0EEE@Base 0.14.0
 _ZTINSt8__detail11_AnyMatcherINSt7__cxx1112regex_traitsIcEELb1ELb0ELb1EEE@Base 0.14.0
 _ZTINSt8__detail11_AnyMatcherINSt7__cxx1112regex_traitsIcEELb1ELb1ELb0EEE@Base 0.14.0
 _ZTINSt8__detail11_AnyMatcherINSt7__cxx1112regex_traitsIcEELb1ELb1ELb1EEE@Base 0.14.0
 _ZTINSt8__detail12_CharMatcherINSt7__cxx1112regex_traitsIN6build26script5regex9line_charEEELb0ELb0EEE@Base 0.14.0
 _ZTINSt8__detail12_CharMatcherINSt7__cxx1112regex_traitsIN6build26script5regex9line_charEEELb0ELb1EEE@Base 0.14.0
 _ZTINSt8__detail12_CharMatcherINSt7__cxx1112regex_traitsIcEELb0ELb0EEE@Base 0.14.0
 _ZTINSt8__detail12_CharMatcherINSt7__cxx1112regex_traitsIcEELb0ELb1EEE@Base 0.14.0
 _ZTINSt8__detail12_CharMatcherINSt7__cxx1112regex_traitsIcEELb1ELb0EEE@Base 0.14.0
 _ZTINSt8__detail12_CharMatcherINSt7__cxx1112regex_traitsIcEELb1ELb1EEE@Base 0.14.0
 _ZTINSt8__detail15_BracketMatcherINSt7__cxx1112regex_traitsIN6build26script5regex9line_charEEELb0ELb0EEE@Base 0.14.0
 _ZTINSt8__detail15_BracketMatcherINSt7__cxx1112regex_traitsIN6build26script5regex9line_charEEELb0ELb1EEE@Base 0.14.0
 _ZTINSt8__detail15_BracketMatcherINSt7__cxx1112regex_traitsIN6build26script5regex9line_charEEELb1ELb0EEE@Base 0.14.0
 _ZTINSt8__detail15_BracketMatcherINSt7__cxx1112regex_traitsIN6build26script5regex9line_charEEELb1ELb1EEE@Base 0.14.0
 _ZTINSt8__detail15_BracketMatcherINSt7__cxx1112regex_traitsIcEELb0ELb0EEE@Base 0.14.0
 _ZTINSt8__detail15_BracketMatcherINSt7__cxx1112regex_traitsIcEELb0ELb1EEE@Base 0.14.0
 _ZTINSt8__detail15_BracketMatcherINSt7__cxx1112regex_traitsIcEELb1ELb0EEE@Base 0.14.0
 _ZTINSt8__detail15_BracketMatcherINSt7__cxx1112regex_traitsIcEELb1ELb1EEE@Base 0.14.0
 _ZTIPFN6build212target_stateENS_6actionERKNS_5scopeERKNS_3dirEE@Base 0.14.0
 _ZTIPFN6build212target_stateENS_6actionERKNS_6targetEE@Base 0.14.0
 _ZTIPFN6build25valueEON4butl7auto_fdEE@Base 0.14.0
 _ZTISt10ctype_base@Base 0.14.0
 _ZTISt11_Mutex_baseILN9__gnu_cxx12_Lock_policyE2EE@Base 0.14.0
 _ZTISt11__pair_baseIN4butl10entry_typeESt12system_errorE@Base 0.14.0
 _ZTISt15_Sp_counted_ptrIPN6build214adhoc_cxx_ruleELN9__gnu_cxx12_Lock_policyE2EE@Base 0.14.0
 _ZTISt15_Sp_counted_ptrIPN6build222adhoc_buildscript_ruleELN9__gnu_cxx12_Lock_policyE2EE@Base 0.14.0
 _ZTISt15_Sp_counted_ptrIPN6build24dist6moduleELN9__gnu_cxx12_Lock_policyE2EE@Base 0.14.0
 _ZTISt15_Sp_counted_ptrIPN6build24test6moduleELN9__gnu_cxx12_Lock_policyE2EE@Base 0.14.0
 _ZTISt15_Sp_counted_ptrIPN6build26config6moduleELN9__gnu_cxx12_Lock_policyE2EE@Base 0.14.0
 _ZTISt16_Sp_counted_baseILN9__gnu_cxx12_Lock_policyE2EE@Base 0.14.0
 _ZTISt23_Sp_counted_ptr_inplaceINSt8__detail4_NFAINSt7__cxx1112regex_traitsIN6build26script5regex9line_charEEEEESaIS9_ELN9__gnu_cxx12_Lock_policyE2EE@Base 0.14.0
 _ZTISt23_Sp_counted_ptr_inplaceINSt8__detail4_NFAINSt7__cxx1112regex_traitsIcEEEESaIS5_ELN9__gnu_cxx12_Lock_policyE2EE@Base 0.14.0
 _ZTISt4pairIN4butl10entry_typeESt12system_errorE@Base 0.14.0
 _ZTISt5ctypeIN6build26script5regex9line_charEE@Base 0.14.0
 _ZTIZN6build226match_prerequisite_membersENS_6actionERNS_6targetERKSt8functionIFNS_19prerequisite_targetES0_RKS1_RKNS_19prerequisite_memberENS_12include_typeEEEEUlS0_S6_RKNS_12prerequisiteESA_E_@Base 0.14.0
 _ZTSFN6build212target_stateENS_6actionERKNS_5scopeERKNS_3dirEE@Base 0.14.0
 _ZTSFN6build212target_stateENS_6actionERKNS_6targetEE@Base 0.14.0
 _ZTSFN6build25valueEON4butl7auto_fdEE@Base 0.14.0
 _ZTSN4butl12char_scannerINS_14utf8_validatorELm2EEE@Base 0.14.0
 _ZTSN4butl13process_errorE@Base 0.14.0
 _ZTSN4butl17invalid_path_baseE@Base 0.14.0
 _ZTSN4butl18invalid_basic_pathIcEE@Base 0.14.0
 _ZTSN6build210adhoc_ruleE@Base 0.14.0
 _ZTSN6build210alias_ruleE@Base 0.14.0
 _ZTSN6build210fsdir_ruleE@Base 0.14.0
 _ZTSN6build211cxx_rule_v1E@Base 0.14.0
 _ZTSN6build211path_targetE@Base 0.14.0
 _ZTSN6build211simple_ruleE@Base 0.14.0
 _ZTSN6build212mtime_targetE@Base 0.14.0
 _ZTSN6build214adhoc_cxx_ruleE@Base 0.14.0
 _ZTSN6build218adhoc_rule_pattern13fallback_ruleE@Base 0.14.0
 _ZTSN6build218adhoc_rule_patternE@Base 0.14.0
 _ZTSN6build222adhoc_buildscript_ruleE@Base 0.14.0
 _ZTSN6build224adhoc_rule_regex_patternE@Base 0.14.0
 _ZTSN6build224adhoc_rule_with_deadlineE@Base 0.14.0
 _ZTSN6build23dirE@Base 0.14.0
 _ZTSN6build23docE@Base 0.14.0
 _ZTSN6build23exeE@Base 0.14.0
 _ZTSN6build23manE@Base 0.14.0
 _ZTSN6build24dist4ruleE@Base 0.14.0
 _ZTSN6build24dist6moduleE@Base 0.14.0
 _ZTSN6build24fileE@Base 0.14.0
 _ZTSN6build24man1E@Base 0.14.0
 _ZTSN6build24ruleE@Base 0.14.0
 _ZTSN6build24test10group_ruleE@Base 0.14.0
 _ZTSN6build24test10testscriptE@Base 0.14.0
 _ZTSN6build24test11common_dataE@Base 0.14.0
 _ZTSN6build24test12default_ruleE@Base 0.14.0
 _ZTSN6build24test4ruleE@Base 0.14.0
 _ZTSN6build24test6commonE@Base 0.14.0
 _ZTSN6build24test6moduleE@Base 0.14.0
 _ZTSN6build24test6script10scope_baseE@Base 0.14.0
 _ZTSN6build24test6script11script_baseE@Base 0.14.0
 _ZTSN6build24test6script14default_runnerE@Base 0.14.0
 _ZTSN6build24test6script4testE@Base 0.14.0
 _ZTSN6build24test6script5groupE@Base 0.14.0
 _ZTSN6build24test6script5lexerE@Base 0.14.0
 _ZTSN6build24test6script5scopeE@Base 0.14.0
 _ZTSN6build24test6script6parserE@Base 0.14.0
 _ZTSN6build24test6script6runnerE@Base 0.14.0
 _ZTSN6build24test6script6scriptE@Base 0.14.0
 _ZTSN6build25aliasE@Base 0.14.0
 _ZTSN6build25build6script11environmentE@Base 0.14.0
 _ZTSN6build25build6script14default_runnerE@Base 0.14.0
 _ZTSN6build25build6script5lexerE@Base 0.14.0
 _ZTSN6build25build6script6parserE@Base 0.14.0
 _ZTSN6build25build6script6runnerE@Base 0.14.0
 _ZTSN6build25fsdirE@Base 0.14.0
 _ZTSN6build25legalE@Base 0.14.0
 _ZTSN6build25lexerE@Base 0.14.0
 _ZTSN6build26config6moduleE@Base 0.14.0
 _ZTSN6build26failedE@Base 0.14.0
 _ZTSN6build26moduleE@Base 0.14.0
 _ZTSN6build26parserE@Base 0.14.0
 _ZTSN6build26script11environmentE@Base 0.14.0
 _ZTSN6build26script3cli11eos_reachedE@Base 0.14.0
 _ZTSN6build26script3cli12argv_scannerE@Base 0.14.0
 _ZTSN6build26script3cli13invalid_valueE@Base 0.14.0
 _ZTSN6build26script3cli13missing_valueE@Base 0.14.0
 _ZTSN6build26script3cli14unknown_optionE@Base 0.14.0
 _ZTSN6build26script3cli14vector_scannerE@Base 0.14.0
 _ZTSN6build26script3cli16unknown_argumentE@Base 0.14.0
 _ZTSN6build26script3cli7scannerE@Base 0.14.0
 _ZTSN6build26script3cli9exceptionE@Base 0.14.0
 _ZTSN6build26script4exitE@Base 0.14.0
 _ZTSN6build26script5lexerE@Base 0.14.0
 _ZTSN6build26script6parserE@Base 0.14.0
 _ZTSN6build26targetE@Base 0.14.0
 _ZTSN6build27install10alias_ruleE@Base 0.14.0
 _ZTSN6build27install10fsdir_ruleE@Base 0.14.0
 _ZTSN6build27install10group_ruleE@Base 0.14.0
 _ZTSN6build27install9file_ruleE@Base 0.14.0
 _ZTSN6build28cxx_ruleE@Base 0.14.0
 _ZTSN6build28manifestE@Base 0.14.0
 _ZTSN6build29buildfileE@Base 0.14.0
 _ZTSN6build29file_ruleE@Base 0.14.0
 _ZTSN6build29noop_ruleE@Base 0.14.0
 _ZTSNSt6thread11_State_implINS_8_InvokerISt5tupleIJPFPvS3_EPN6build29schedulerEEEEEEE@Base 0.14.0
 _ZTSNSt8__detail11_AnyMatcherINSt7__cxx1112regex_traitsIN6build26script5regex9line_charEEELb0ELb0ELb0EEE@Base 0.14.0
 _ZTSNSt8__detail11_AnyMatcherINSt7__cxx1112regex_traitsIN6build26script5regex9line_charEEELb0ELb0ELb1EEE@Base 0.14.0
 _ZTSNSt8__detail11_AnyMatcherINSt7__cxx1112regex_traitsIN6build26script5regex9line_charEEELb0ELb1ELb0EEE@Base 0.14.0
 _ZTSNSt8__detail11_AnyMatcherINSt7__cxx1112regex_traitsIN6build26script5regex9line_charEEELb0ELb1ELb1EEE@Base 0.14.0
 _ZTSNSt8__detail11_AnyMatcherINSt7__cxx1112regex_traitsIN6build26script5regex9line_charEEELb1ELb0ELb0EEE@Base 0.14.0
 _ZTSNSt8__detail11_AnyMatcherINSt7__cxx1112regex_traitsIN6build26script5regex9line_charEEELb1ELb0ELb1EEE@Base 0.14.0
 _ZTSNSt8__detail11_AnyMatcherINSt7__cxx1112regex_traitsIN6build26script5regex9line_charEEELb1ELb1ELb0EEE@Base 0.14.0
 _ZTSNSt8__detail11_AnyMatcherINSt7__cxx1112regex_traitsIN6build26script5regex9line_charEEELb1ELb1ELb1EEE@Base 0.14.0
 _ZTSNSt8__detail11_AnyMatcherINSt7__cxx1112regex_traitsIcEELb0ELb0ELb0EEE@Base 0.14.0
 _ZTSNSt8__detail11_AnyMatcherINSt7__cxx1112regex_traitsIcEELb0ELb0ELb1EEE@Base 0.14.0
 _ZTSNSt8__detail11_AnyMatcherINSt7__cxx1112regex_traitsIcEELb0ELb1ELb0EEE@Base 0.14.0
 _ZTSNSt8__detail11_AnyMatcherINSt7__cxx1112regex_traitsIcEELb0ELb1ELb1EEE@Base 0.14.0
 _ZTSNSt8__detail11_AnyMatcherINSt7__cxx1112regex_traitsIcEELb1ELb0ELb0EEE@Base 0.14.0
 _ZTSNSt8__detail11_AnyMatcherINSt7__cxx1112regex_traitsIcEELb1ELb0ELb1EEE@Base 0.14.0
 _ZTSNSt8__detail11_AnyMatcherINSt7__cxx1112regex_traitsIcEELb1ELb1ELb0EEE@Base 0.14.0
 _ZTSNSt8__detail11_AnyMatcherINSt7__cxx1112regex_traitsIcEELb1ELb1ELb1EEE@Base 0.14.0
 _ZTSNSt8__detail12_CharMatcherINSt7__cxx1112regex_traitsIN6build26script5regex9line_charEEELb0ELb0EEE@Base 0.14.0
 _ZTSNSt8__detail12_CharMatcherINSt7__cxx1112regex_traitsIN6build26script5regex9line_charEEELb0ELb1EEE@Base 0.14.0
 _ZTSNSt8__detail12_CharMatcherINSt7__cxx1112regex_traitsIcEELb0ELb0EEE@Base 0.14.0
 _ZTSNSt8__detail12_CharMatcherINSt7__cxx1112regex_traitsIcEELb0ELb1EEE@Base 0.14.0
 _ZTSNSt8__detail12_CharMatcherINSt7__cxx1112regex_traitsIcEELb1ELb0EEE@Base 0.14.0
 _ZTSNSt8__detail12_CharMatcherINSt7__cxx1112regex_traitsIcEELb1ELb1EEE@Base 0.14.0
 _ZTSNSt8__detail15_BracketMatcherINSt7__cxx1112regex_traitsIN6build26script5regex9line_charEEELb0ELb0EEE@Base 0.14.0
 _ZTSNSt8__detail15_BracketMatcherINSt7__cxx1112regex_traitsIN6build26script5regex9line_charEEELb0ELb1EEE@Base 0.14.0
 _ZTSNSt8__detail15_BracketMatcherINSt7__cxx1112regex_traitsIN6build26script5regex9line_charEEELb1ELb0EEE@Base 0.14.0
 _ZTSNSt8__detail15_BracketMatcherINSt7__cxx1112regex_traitsIN6build26script5regex9line_charEEELb1ELb1EEE@Base 0.14.0
 _ZTSNSt8__detail15_BracketMatcherINSt7__cxx1112regex_traitsIcEELb0ELb0EEE@Base 0.14.0
 _ZTSNSt8__detail15_BracketMatcherINSt7__cxx1112regex_traitsIcEELb0ELb1EEE@Base 0.14.0
 _ZTSNSt8__detail15_BracketMatcherINSt7__cxx1112regex_traitsIcEELb1ELb0EEE@Base 0.14.0
 _ZTSNSt8__detail15_BracketMatcherINSt7__cxx1112regex_traitsIcEELb1ELb1EEE@Base 0.14.0
 _ZTSPFN6build212target_stateENS_6actionERKNS_5scopeERKNS_3dirEE@Base 0.14.0
 _ZTSPFN6build212target_stateENS_6actionERKNS_6targetEE@Base 0.14.0
 _ZTSPFN6build25valueEON4butl7auto_fdEE@Base 0.14.0
 _ZTSSt10ctype_base@Base 0.14.0
 _ZTSSt11_Mutex_baseILN9__gnu_cxx12_Lock_policyE2EE@Base 0.14.0
 _ZTSSt11__pair_baseIN4butl10entry_typeESt12system_errorE@Base 0.14.0
 _ZTSSt15_Sp_counted_ptrIPN6build214adhoc_cxx_ruleELN9__gnu_cxx12_Lock_policyE2EE@Base 0.14.0
 _ZTSSt15_Sp_counted_ptrIPN6build222adhoc_buildscript_ruleELN9__gnu_cxx12_Lock_policyE2EE@Base 0.14.0
 _ZTSSt15_Sp_counted_ptrIPN6build24dist6moduleELN9__gnu_cxx12_Lock_policyE2EE@Base 0.14.0
 _ZTSSt15_Sp_counted_ptrIPN6build24test6moduleELN9__gnu_cxx12_Lock_policyE2EE@Base 0.14.0
 _ZTSSt15_Sp_counted_ptrIPN6build26config6moduleELN9__gnu_cxx12_Lock_policyE2EE@Base 0.14.0
 _ZTSSt16_Sp_counted_baseILN9__gnu_cxx12_Lock_policyE2EE@Base 0.14.0
 _ZTSSt19_Sp_make_shared_tag@Base 0.14.0
 _ZTSSt23_Sp_counted_ptr_inplaceINSt8__detail4_NFAINSt7__cxx1112regex_traitsIN6build26script5regex9line_charEEEEESaIS9_ELN9__gnu_cxx12_Lock_policyE2EE@Base 0.14.0
 _ZTSSt23_Sp_counted_ptr_inplaceINSt8__detail4_NFAINSt7__cxx1112regex_traitsIcEEEESaIS5_ELN9__gnu_cxx12_Lock_policyE2EE@Base 0.14.0
 _ZTSSt4pairIN4butl10entry_typeESt12system_errorE@Base 0.14.0
 _ZTSSt5ctypeIN6build26script5regex9line_charEE@Base 0.14.0
 _ZTSZN6build226match_prerequisite_membersENS_6actionERNS_6targetERKSt8functionIFNS_19prerequisite_targetES0_RKS1_RKNS_19prerequisite_memberENS_12include_typeEEEEUlS0_S6_RKNS_12prerequisiteESA_E_@Base 0.14.0
 _ZTTN6build24test4ruleE@Base 0.14.0
 _ZTTN6build24test6moduleE@Base 0.14.0
 _ZTVN4butl13process_errorE@Base 0.14.0
 _ZTVN4butl17invalid_path_baseE@Base 0.14.0
 _ZTVN4butl18invalid_basic_pathIcEE@Base 0.14.0
 _ZTVN6build210adhoc_ruleE@Base 0.14.0
 _ZTVN6build210alias_ruleE@Base 0.14.0
 _ZTVN6build210fsdir_ruleE@Base 0.14.0
 _ZTVN6build211cxx_rule_v1E@Base 0.14.0
 _ZTVN6build211path_targetE@Base 0.14.0
 _ZTVN6build211simple_ruleE@Base 0.14.0
 _ZTVN6build212mtime_targetE@Base 0.14.0
 _ZTVN6build214adhoc_cxx_ruleE@Base 0.14.0
 _ZTVN6build218adhoc_rule_pattern13fallback_ruleE@Base 0.14.0
 _ZTVN6build218adhoc_rule_patternE@Base 0.14.0
 _ZTVN6build222adhoc_buildscript_ruleE@Base 0.14.0
 _ZTVN6build224adhoc_rule_regex_patternE@Base 0.14.0
 _ZTVN6build224adhoc_rule_with_deadlineE@Base 0.14.0
 _ZTVN6build23dirE@Base 0.14.0
 _ZTVN6build23docE@Base 0.14.0
 _ZTVN6build23exeE@Base 0.14.0
 _ZTVN6build23manE@Base 0.14.0
 _ZTVN6build24dist4ruleE@Base 0.14.0
 _ZTVN6build24dist6moduleE@Base 0.14.0
 _ZTVN6build24fileE@Base 0.14.0
 _ZTVN6build24man1E@Base 0.14.0
 _ZTVN6build24ruleE@Base 0.14.0
 _ZTVN6build24test10testscriptE@Base 0.14.0
 _ZTVN6build24test4ruleE@Base 0.14.0
 _ZTVN6build24test6moduleE@Base 0.14.0
 _ZTVN6build24test6script14default_runnerE@Base 0.14.0
 _ZTVN6build24test6script4testE@Base 0.14.0
 _ZTVN6build24test6script5groupE@Base 0.14.0
 _ZTVN6build24test6script5lexerE@Base 0.14.0
 _ZTVN6build24test6script5scopeE@Base 0.14.0
 _ZTVN6build24test6script6parserE@Base 0.14.0
 _ZTVN6build24test6script6scriptE@Base 0.14.0
 _ZTVN6build25aliasE@Base 0.14.0
 _ZTVN6build25build6script11environmentE@Base 0.14.0
 _ZTVN6build25build6script14default_runnerE@Base 0.14.0
 _ZTVN6build25build6script5lexerE@Base 0.14.0
 _ZTVN6build25build6script6parserE@Base 0.14.0
 _ZTVN6build25fsdirE@Base 0.14.0
 _ZTVN6build25legalE@Base 0.14.0
 _ZTVN6build25lexerE@Base 0.14.0
 _ZTVN6build26config6moduleE@Base 0.14.0
 _ZTVN6build26failedE@Base 0.14.0
 _ZTVN6build26parserE@Base 0.14.0
 _ZTVN6build26script11environmentE@Base 0.14.0
 _ZTVN6build26script3cli11eos_reachedE@Base 0.14.0
 _ZTVN6build26script3cli12argv_scannerE@Base 0.14.0
 _ZTVN6build26script3cli13invalid_valueE@Base 0.14.0
 _ZTVN6build26script3cli13missing_valueE@Base 0.14.0
 _ZTVN6build26script3cli14unknown_optionE@Base 0.14.0
 _ZTVN6build26script3cli14vector_scannerE@Base 0.14.0
 _ZTVN6build26script3cli16unknown_argumentE@Base 0.14.0
 _ZTVN6build26script3cli7scannerE@Base 0.14.0
 _ZTVN6build26script3cli9exceptionE@Base 0.14.0
 _ZTVN6build26script5lexerE@Base 0.14.0
 _ZTVN6build26script6parserE@Base 0.14.0
 _ZTVN6build26targetE@Base 0.14.0
 _ZTVN6build27install10alias_ruleE@Base 0.14.0
 _ZTVN6build27install10fsdir_ruleE@Base 0.14.0
 _ZTVN6build27install10group_ruleE@Base 0.14.0
 _ZTVN6build27install9file_ruleE@Base 0.14.0
 _ZTVN6build28manifestE@Base 0.14.0
 _ZTVN6build29buildfileE@Base 0.14.0
 _ZTVN6build29file_ruleE@Base 0.14.0
 _ZTVN6build29noop_ruleE@Base 0.14.0
 _ZTVNSt6thread11_State_implINS_8_InvokerISt5tupleIJPFPvS3_EPN6build29schedulerEEEEEEE@Base 0.14.0
 _ZTVSt15_Sp_counted_ptrIPN6build214adhoc_cxx_ruleELN9__gnu_cxx12_Lock_policyE2EE@Base 0.14.0
 _ZTVSt15_Sp_counted_ptrIPN6build222adhoc_buildscript_ruleELN9__gnu_cxx12_Lock_policyE2EE@Base 0.14.0
 _ZTVSt15_Sp_counted_ptrIPN6build24dist6moduleELN9__gnu_cxx12_Lock_policyE2EE@Base 0.14.0
 _ZTVSt15_Sp_counted_ptrIPN6build24test6moduleELN9__gnu_cxx12_Lock_policyE2EE@Base 0.14.0
 _ZTVSt15_Sp_counted_ptrIPN6build26config6moduleELN9__gnu_cxx12_Lock_policyE2EE@Base 0.14.0
 _ZTVSt23_Sp_counted_ptr_inplaceINSt8__detail4_NFAINSt7__cxx1112regex_traitsIN6build26script5regex9line_charEEEEESaIS9_ELN9__gnu_cxx12_Lock_policyE2EE@Base 0.14.0
 _ZTVSt23_Sp_counted_ptr_inplaceINSt8__detail4_NFAINSt7__cxx1112regex_traitsIcEEEESaIS5_ELN9__gnu_cxx12_Lock_policyE2EE@Base 0.14.0
 _ZTVSt5ctypeIN6build26script5regex9line_charEE@Base 0.14.0
 (optional=templinst)_ZZN4butl27regex_replace_match_resultsIcEENSt7__cxx1112basic_stringIT_St11char_traitsIS3_ESaIS3_EEERKNS1_13match_resultsINS7_14const_iteratorESaINS1_9sub_matchIS9_EEEEEPKS3_mENKUlN9__gnu_cxx17__normal_iteratorIPKcNS2_IcS4_IcESaIcEEEEESP_E2_clESP_SP_@Base 0.14.0
 _ZZN6build214fail_mark_baseC4EPKcPKvENUlRKN4butl11diag_recordEE_4_FUNES8_@Base 0.14.0
 _ZZN6build215trace_mark_baseC4EPKcS2_PKvENUlvE_4_FUNEv@Base 0.14.0
 (optional=templinst)_ZZN6build25rmdirIN4butl10basic_pathIcNS1_13dir_path_kindIcEEEEEENS_9fs_statusINS1_12rmdir_statusEEERNS_7contextERKS5_RKT_tENKUlvE_clEv@Base 0.14.0
 (optional=templinst)_ZZN6build25rmdirINS_6targetEEENS_9fs_statusIN4butl12rmdir_statusEEERNS_7contextERKNS3_10basic_pathIcNS3_13dir_path_kindIcEEEERKT_tENKUlvE_clEv@Base 0.14.0
 (optional=templinst)_ZZN6build26rmfileIN4butl10basic_pathIcNS1_13any_path_kindIcEEEEEENS_9fs_statusINS1_13rmfile_statusEEERNS_7contextERKS5_RKT_tENKUlvE_clEv@Base 0.14.0
 (optional=templinst)_ZZN6build26rmfileINS_4fileEEENS_9fs_statusIN4butl13rmfile_statusEEERNS_7contextERKNS3_10basic_pathIcNS3_13any_path_kindIcEEEERKT_tENKUlvE_clEv@Base 0.14.0
 (optional=templinst)_ZZN6build26rmfileINS_6targetEEENS_9fs_statusIN4butl13rmfile_statusEEERNS_7contextERKNS3_10basic_pathIcNS3_13any_path_kindIcEEEERKT_tENKUlvE_clEv@Base 0.14.0
 (optional=templinst)_ZZNK6build26target4dataINSt7__cxx1113match_resultsIN9__gnu_cxx17__normal_iteratorIPKcNS2_12basic_stringIcSt11char_traitsIcESaIcEEEEESaINS2_9sub_matchISD_EEEEESH_EENSt9enable_ifIXntsrSt25is_trivially_destructibleIT0_E5valueERSK_E4typeEOT_ENUlPvE_4_FUNESR_@Base 0.14.0
 (optional=templinst)_ZZNKSt7__cxx1112regex_traitsIcE16lookup_classnameIPKcEENS1_10_RegexMaskET_S6_bE12__classnames@Base 0.14.0
 (optional=templinst)_ZZNKSt7__cxx1112regex_traitsIcE18lookup_collatenameIPKcEENS_12basic_stringIcSt11char_traitsIcESaIcEEET_SA_E14__collatenames@Base 0.14.0
 (optional=templinst)_ZZNKSt8__detail11_AnyMatcherINSt7__cxx1112regex_traitsIN6build26script5regex9line_charEEELb0ELb0ELb0EEclES6_E5__nul@Base 0.14.0
 (optional=templinst)_ZZNKSt8__detail11_AnyMatcherINSt7__cxx1112regex_traitsIN6build26script5regex9line_charEEELb0ELb0ELb1EEclES6_E5__nul@Base 0.14.0
 (optional=templinst)_ZZNKSt8__detail11_AnyMatcherINSt7__cxx1112regex_traitsIcEELb0ELb0ELb0EEclEcE5__nul@Base 0.14.0
 (optional=templinst)_ZZNKSt8__detail11_AnyMatcherINSt7__cxx1112regex_traitsIcEELb0ELb0ELb1EEclEcE5__nul@Base 0.14.0
 (optional=templinst)_ZZNKSt8__detail11_AnyMatcherINSt7__cxx1112regex_traitsIcEELb0ELb1ELb0EEclEcE5__nul@Base 0.14.0
 (optional=templinst)_ZZNKSt8__detail11_AnyMatcherINSt7__cxx1112regex_traitsIcEELb0ELb1ELb1EEclEcE5__nul@Base 0.14.0
 (optional=templinst)_ZZNKSt8__detail9_ExecutorIN9__gnu_cxx17__normal_iteratorIPKN6build26script5regex9line_charENSt7__cxx1112basic_stringIS6_St11char_traitsIS6_ESaIS6_EEEEESaINS9_9sub_matchISF_EEENS9_12regex_traitsIS6_EELb0EE10_M_is_wordES6_E3__s@Base 0.14.0
 (optional=templinst)_ZZNKSt8__detail9_ExecutorIN9__gnu_cxx17__normal_iteratorIPKN6build26script5regex9line_charENSt7__cxx1112basic_stringIS6_St11char_traitsIS6_ESaIS6_EEEEESaINS9_9sub_matchISF_EEENS9_12regex_traitsIS6_EELb1EE10_M_is_wordES6_E3__s@Base 0.14.0
 (optional=templinst)_ZZNKSt8__detail9_ExecutorIN9__gnu_cxx17__normal_iteratorIPKcNSt7__cxx1112basic_stringIcSt11char_traitsIcESaIcEEEEESaINS5_9sub_matchISB_EEENS5_12regex_traitsIcEELb0EE10_M_is_wordEcE3__s@Base 0.14.0
 (optional=templinst)_ZZNKSt8__detail9_ExecutorIN9__gnu_cxx17__normal_iteratorIPKcNSt7__cxx1112basic_stringIcSt11char_traitsIcESaIcEEEEESaINS5_9sub_matchISB_EEENS5_12regex_traitsIcEELb1EE10_M_is_wordEcE3__s@Base 0.14.0
 _ZZNSt19_Sp_make_shared_tag5_S_tiEvE5__tag@Base 0.14.0
 build2_config_load@Base 0.14.0
 build2_dist_load@Base 0.14.0
 build2_install_load@Base 0.14.0
 build2_test_load@Base 0.14.0
 (c++)"non-virtual thunk to build2::adhoc_buildscript_rule::apply(build2::action, build2::target&, build2::match_extra&, std::optional<std::chrono::time_point<std::chrono::_V2::system_clock, std::chrono::duration<long, std::ratio<1l, 1000000000l> > > > const&) const@Base" 0.14.0
 (c++)"non-virtual thunk to build2::adhoc_buildscript_rule::~adhoc_buildscript_rule()@Base" 0.14.0
 (c++)"non-virtual thunk to build2::test::module::~module()@Base" 0.14.0
libbuild2-bash-0.14-0.14.so libbuild2-staged-0.14 #MINVER#
* Build-Depends-Package: build2-staged-dev
 (optional=templinst)_ZN4butl10basic_pathIcNS_13any_path_kindIcEEE9normalizeEbb@Base 0.14.0
 (optional=templinst)_ZN4butl13any_path_kindIcE4initEONSt7__cxx1112basic_stringIcSt11char_traitsIcESaIcEEEb@Base 0.14.0
 _ZN4butl17invalid_path_baseD0Ev@Base 0.14.0
 _ZN4butl17invalid_path_baseD1Ev@Base 0.14.0
 _ZN4butl17invalid_path_baseD2Ev@Base 0.14.0
 (optional=templinst)_ZN4butl18invalid_basic_pathIcEC1ERKNSt7__cxx1112basic_stringIcSt11char_traitsIcESaIcEEE@Base 0.14.0
 (optional=templinst)_ZN4butl18invalid_basic_pathIcEC2ERKNSt7__cxx1112basic_stringIcSt11char_traitsIcESaIcEEE@Base 0.14.0
 (optional=templinst)_ZN4butl18invalid_basic_pathIcED0Ev@Base 0.14.0
 (optional=templinst)_ZN4butl18invalid_basic_pathIcED1Ev@Base 0.14.0
 (optional=templinst)_ZN4butl18invalid_basic_pathIcED2Ev@Base 0.14.0
 (optional=templinst)_ZN6build214target_factoryINS_4bash4bashEEEPNS_6targetERNS_7contextERKNS_11target_typeEN4butl10basic_pathIcNSA_13dir_path_kindIcEEEESE_NSt7__cxx1112basic_stringIcSt11char_traitsIcESaIcEEE@Base 0.14.0
 (optional=templinst)_ZN6build218target_pattern_varIXadL_ZNS_4bash12bash_ext_defEEEEEbRKNS_11target_typeERKNS_5scopeERNSt7__cxx1112basic_stringIcSt11char_traitsIcESaIcEEERSt8optionalISD_ERKNS_8locationEb@Base 0.14.0
 (optional=templinst)_ZN6build220target_extension_varIXadL_ZNS_4bash12bash_ext_defEEEEESt8optionalINSt7__cxx1112basic_stringIcSt11char_traitsIcESaIcEEEERKNS_10target_keyERKNS_5scopeEPKcb@Base 0.14.0
 _ZN6build220variable_pattern_map7patternD1Ev@Base 0.14.0
 _ZN6build220variable_pattern_map7patternD2Ev@Base 0.14.0
 _ZN6build225target_extension_var_implERKNS_11target_typeERKNSt7__cxx1112basic_stringIcSt11char_traitsIcESaIcEEERKNS_5scopeEPKc@Base 0.14.0
 (optional=templinst)_ZN6build226prerequisite_members_rangeINS_19group_prerequisitesEE8iterator11switch_modeEv@Base 0.14.0
 (optional=templinst)_ZN6build226prerequisite_members_rangeINS_19group_prerequisitesEE8iteratorC1EPKS2_RKNS1_8iteratorE@Base 0.14.0
 (optional=templinst)_ZN6build226prerequisite_members_rangeINS_19group_prerequisitesEE8iteratorC2EPKS2_RKNS1_8iteratorE@Base 0.14.0
 _ZN6build24bash12bash_ext_defE@Base 0.14.0
 _ZN6build24bash12install_ruleD0Ev@Base 0.14.0
 _ZN6build24bash12install_ruleD1Ev@Base 0.14.0
 _ZN6build24bash12install_ruleD2Ev@Base 0.14.0
 _ZN6build24bash4bash11static_typeE@Base 0.14.0
 _ZN6build24bash4bashD0Ev@Base 0.14.0
 _ZN6build24bash4bashD1Ev@Base 0.14.0
 _ZN6build24bash4bashD2Ev@Base 0.14.0
 _ZN6build24bash4initERNS_5scopeES2_RKNS_8locationEbbRNS_17module_init_extraE@Base 0.14.0
 _ZN6build24bash7in_ruleC1Ev@Base 0.14.0
 _ZN6build24bash7in_ruleC2Ev@Base 0.14.0
 _ZN6build24bash7in_ruleD0Ev@Base 0.14.0
 _ZN6build24bash7in_ruleD1Ev@Base 0.14.0
 _ZN6build24bash7in_ruleD2Ev@Base 0.14.0
 _ZN6build24fileD0Ev@Base 0.14.0
 _ZN6build24fileD1Ev@Base 0.14.0
 _ZN6build24fileD2Ev@Base 0.14.0
 _ZN6build27install12install_modeERNS_5scopeERKNS_11target_typeENSt7__cxx1112basic_stringIcSt11char_traitsIcESaIcEEE@Base 0.14.0
 _ZN6build27install12install_pathERNS_5scopeERKNS_11target_typeEN4butl10basic_pathIcNS6_13dir_path_kindIcEEEE@Base 0.14.0
 _ZN6build28rule_map6insertEhhRKNS_11target_typeENSt7__cxx1112basic_stringIcSt11char_traitsIcESaIcEEERKNS_4ruleE@Base 0.14.0
 _ZNK6build24bash12install_rule5applyENS_6actionERNS_6targetE@Base 0.14.0
 _ZNK6build24bash12install_rule5matchENS_6actionERNS_6targetERKNSt7__cxx1112basic_stringIcSt11char_traitsIcESaIcEEE@Base 0.14.0
 _ZNK6build24bash12install_rule6filterENS_6actionERKNS_6targetERKNS_12prerequisiteE@Base 0.14.0
 _ZNK6build24bash4bash12dynamic_typeEv@Base 0.14.0
 _ZNK6build24bash7in_rule10substituteERKNS_8locationENS_6actionERKNS_6targetERKNSt7__cxx1112basic_stringIcSt11char_traitsIcESaIcEEEbRKSt8optionalISE_E@Base 0.14.0
 _ZNK6build24bash7in_rule14perform_updateENS_6actionERKNS_6targetE@Base 0.14.0
 _ZNK6build24bash7in_rule17substitute_importERKNS_8locationENS_6actionERKNS_6targetERKNSt7__cxx1112basic_stringIcSt11char_traitsIcESaIcEEE@Base 0.14.0
 _ZNK6build24bash7in_rule5applyENS_6actionERNS_6targetE@Base 0.14.0
 _ZNK6build24bash7in_rule5matchENS_6actionERNS_6targetERKNSt7__cxx1112basic_stringIcSt11char_traitsIcESaIcEEE@Base 0.14.0
 _ZNK6build24bash7in_rule6searchENS_6actionERKNS_6targetERKNS_19prerequisite_memberENS_12include_typeE@Base 0.14.0
 _ZNK6build24file12dynamic_typeEv@Base 0.14.0
 (optional=templinst)_ZNKSt10_HashtableIN4butl7map_keyINSt7__cxx1112basic_stringIcSt11char_traitsIcESaIcEEEEESt4pairIKS8_N6build28variableEESaISD_ENSt8__detail10_Select1stESt8equal_toIS8_ESt4hashIS8_ENSF_18_Mod_range_hashingENSF_20_Default_ranged_hashENSF_20_Prime_rehash_policyENSF_17_Hashtable_traitsILb0ELb0ELb1EEEE4findERSA_@Base 0.14.0
 (optional=templinst)_ZNSt22_Optional_payload_baseINSt7__cxx1111basic_regexIcNS0_12regex_traitsIcEEEEEC1EbOS5_@Base 0.14.0
 (optional=templinst)_ZNSt22_Optional_payload_baseINSt7__cxx1111basic_regexIcNS0_12regex_traitsIcEEEEEC2EbOS5_@Base 0.14.0
 (optional=templinst)_ZNSt6vectorINSt7__cxx1112basic_stringIcSt11char_traitsIcESaIcEEEN4butl15small_allocatorIS5_Lm16ENS6_22small_allocator_bufferIS5_Lm16EEEEEE12emplace_backIJS5_EEERS5_DpOT_@Base 0.14.0
 (optional=templinst)_ZNSt6vectorINSt7__cxx1112basic_stringIcSt11char_traitsIcESaIcEEEN4butl15small_allocatorIS5_Lm16ENS6_22small_allocator_bufferIS5_Lm16EEEEEE17_M_realloc_insertIJS5_EEEvN9__gnu_cxx17__normal_iteratorIPS5_SB_EEDpOT_@Base 0.14.0
 (optional=templinst)_ZNSt6vectorINSt7__cxx1112basic_stringIcSt11char_traitsIcESaIcEEEN4butl15small_allocatorIS5_Lm16ENS6_22small_allocator_bufferIS5_Lm16EEEEEED1Ev@Base 0.14.0
 (optional=templinst)_ZNSt6vectorINSt7__cxx1112basic_stringIcSt11char_traitsIcESaIcEEEN4butl15small_allocatorIS5_Lm16ENS6_22small_allocator_bufferIS5_Lm16EEEEEED2Ev@Base 0.14.0
 (optional=templinst)_ZNSt6vectorISt3mapIPKN6build211target_typeEN4butl15prefix_map_implIS0_INSt7__cxx1112basic_stringIcSt11char_traitsIcESaIcEEESt17reference_wrapperIKNS1_4ruleEENS5_14compare_prefixISC_EESaISt4pairIKSC_SG_EEELc46EEESt4lessIS4_ESaISJ_IKS4_SO_EEESaISU_EE17_M_default_appendEm@Base 0.14.0
 (optional=templinst)_ZNSt7__cxx1112basic_stringIcSt11char_traitsIcESaIcEE12_M_constructIPKcEEvT_S8_St20forward_iterator_tag@Base 0.14.0
 (optional=templinst)_ZNSt7__cxx1112basic_stringIcSt11char_traitsIcESaIcEE12_M_constructIPcEEvT_S7_St20forward_iterator_tag@Base 0.14.0
 (optional=templinst)_ZNSt7__cxx1112basic_stringIcSt11char_traitsIcESaIcEE14_M_replace_auxEmmmc@Base 0.14.0
 (optional=templinst)_ZNSt7__cxx1112basic_stringIcSt11char_traitsIcESaIcEE9_M_appendEPKcm@Base 0.14.0
 (optional=templinst)_ZNSt7__cxx1112basic_stringIcSt11char_traitsIcESaIcEE9_M_createERmm@Base 0.14.0
 (optional=templinst)_ZNSt7__cxx1112basic_stringIcSt11char_traitsIcESaIcEE9_M_mutateEmmPKcm@Base 0.14.0
 (optional=templinst)_ZNSt7__cxx1115basic_stringbufIcSt11char_traitsIcESaIcEED0Ev@Base 0.14.0
 (optional=templinst)_ZNSt7__cxx1115basic_stringbufIcSt11char_traitsIcESaIcEED1Ev@Base 0.14.0
 (optional=templinst)_ZNSt7__cxx1115basic_stringbufIcSt11char_traitsIcESaIcEED2Ev@Base 0.14.0
 (optional=templinst)_ZNSt8_Rb_treeIN6build220variable_pattern_map7patternESt4pairIKS2_NS0_12variable_mapEESt10_Select1stIS6_ENS1_15pattern_compareESaIS6_EE17_M_emplace_uniqueIJS2_S5_EEES3_ISt17_Rb_tree_iteratorIS6_EbEDpOT_@Base 0.14.0
 (optional=templinst)_ZNSt8_Rb_treeIN6build220variable_pattern_map7patternESt4pairIKS2_NS0_12variable_mapEESt10_Select1stIS6_ENS1_15pattern_compareESaIS6_EE24_M_get_insert_unique_posERS4_@Base 0.14.0
 (optional=templinst)_ZNSt8_Rb_treeIN6build220variable_pattern_map7patternESt4pairIKS2_NS0_12variable_mapEESt10_Select1stIS6_ENS1_15pattern_compareESaIS6_EE8_M_eraseEPSt13_Rb_tree_nodeIS6_E@Base 0.14.0
 (optional=templinst)_ZNSt8_Rb_treeINSt7__cxx1112basic_stringIcSt11char_traitsIcESaIcEEESt4pairIKS5_N6build215target_type_map15target_type_refEESt10_Select1stISB_ESt4lessIS5_ESaISB_EE17_M_emplace_uniqueIJRKPKcSA_EEES6_ISt17_Rb_tree_iteratorISB_EbEDpOT_@Base 0.14.0
 (optional=templinst)_ZNSt8_Rb_treeINSt7__cxx1112basic_stringIcSt11char_traitsIcESaIcEEESt4pairIKS5_St17reference_wrapperIKN6build24ruleEEESt10_Select1stISD_EN4butl14compare_prefixIS5_EESaISD_EE17_M_emplace_uniqueIJS5_RSB_EEES6_ISt17_Rb_tree_iteratorISD_EbEDpOT_@Base 0.14.0
 (optional=templinst)_ZNSt8_Rb_treeINSt7__cxx1112basic_stringIcSt11char_traitsIcESaIcEEESt4pairIKS5_St17reference_wrapperIKN6build24ruleEEESt10_Select1stISD_EN4butl14compare_prefixIS5_EESaISD_EE8_M_eraseEPSt13_Rb_tree_nodeISD_E@Base 0.14.0
 (optional=templinst)_ZNSt8_Rb_treeIPKN6build211target_typeESt4pairIKS3_N4butl15prefix_map_implISt3mapINSt7__cxx1112basic_stringIcSt11char_traitsIcESaIcEEESt17reference_wrapperIKNS0_4ruleEENS6_14compare_prefixISE_EESaIS4_IKSE_SI_EEELc46EEEESt10_Select1stISQ_ESt4lessIS3_ESaISQ_EE24_M_get_insert_unique_posERS5_@Base 0.14.0
 (optional=templinst)_ZNSt8_Rb_treeIPKN6build211target_typeESt4pairIKS3_N4butl15prefix_map_implISt3mapINSt7__cxx1112basic_stringIcSt11char_traitsIcESaIcEEESt17reference_wrapperIKNS0_4ruleEENS6_14compare_prefixISE_EESaIS4_IKSE_SI_EEELc46EEEESt10_Select1stISQ_ESt4lessIS3_ESaISQ_EE29_M_get_insert_hint_unique_posESt23_Rb_tree_const_iteratorISQ_ERS5_@Base 0.14.0
 (optional=templinst)_ZNSt8_Rb_treeIPKN6build211target_typeESt4pairIKS3_N4butl15prefix_map_implISt3mapINSt7__cxx1112basic_stringIcSt11char_traitsIcESaIcEEESt17reference_wrapperIKNS0_4ruleEENS6_14compare_prefixISE_EESaIS4_IKSE_SI_EEELc46EEEESt10_Select1stISQ_ESt4lessIS3_ESaISQ_EE8_M_eraseEPSt13_Rb_tree_nodeISQ_E@Base 0.14.0
 (optional=templinst)_ZNSt8_Rb_treeISt17reference_wrapperIKN6build211target_typeEESt4pairIKS4_NS1_20variable_pattern_mapEESt10_Select1stIS8_ESt4lessIS4_ESaIS8_EE17_M_emplace_uniqueIJRS3_S7_EEES5_ISt17_Rb_tree_iteratorIS8_EbEDpOT_@Base 0.14.0
 (optional=templinst)_ZNSt8_Rb_treeISt17reference_wrapperIKN6build28variableEESt4pairIKS4_NS1_12variable_map10value_dataEESt10_Select1stIS9_EN4butl14compare_prefixIS4_EESaIS9_EE8_M_eraseEPSt13_Rb_tree_nodeIS9_E@Base 0.14.0
 (optional=templinst)_ZStplIcSt11char_traitsIcESaIcEENSt7__cxx1112basic_stringIT_T0_T1_EEPKS5_RKS8_@Base 0.14.0
 _ZTIN4butl17invalid_path_baseE@Base 0.14.0
 _ZTIN4butl18invalid_basic_pathIcEE@Base 0.14.0
 _ZTIN6build211path_targetE@Base 0.14.0
 _ZTIN6build212mtime_targetE@Base 0.14.0
 _ZTIN6build22in2inE@Base 0.14.0
 _ZTIN6build23exeE@Base 0.14.0
 _ZTIN6build24bash12install_ruleE@Base 0.14.0
 _ZTIN6build24bash4bashE@Base 0.14.0
 _ZTIN6build24bash7in_ruleE@Base 0.14.0
 _ZTIN6build24fileE@Base 0.14.0
 _ZTSN4butl17invalid_path_baseE@Base 0.14.0
 _ZTSN4butl18invalid_basic_pathIcEE@Base 0.14.0
 _ZTSN6build211path_targetE@Base 0.14.0
 _ZTSN6build212mtime_targetE@Base 0.14.0
 _ZTSN6build22in2inE@Base 0.14.0
 _ZTSN6build23exeE@Base 0.14.0
 _ZTSN6build24bash12install_ruleE@Base 0.14.0
 _ZTSN6build24bash4bashE@Base 0.14.0
 _ZTSN6build24bash7in_ruleE@Base 0.14.0
 _ZTSN6build24fileE@Base 0.14.0
 _ZTVN4butl17invalid_path_baseE@Base 0.14.0
 _ZTVN4butl18invalid_basic_pathIcEE@Base 0.14.0
 _ZTVN6build211path_targetE@Base 0.14.0
 _ZTVN6build212mtime_targetE@Base 0.14.0
 _ZTVN6build24bash12install_ruleE@Base 0.14.0
 _ZTVN6build24bash4bashE@Base 0.14.0
 _ZTVN6build24bash7in_ruleE@Base 0.14.0
 _ZZN6build215trace_mark_baseC4EPKcS2_PKvENUlvE_4_FUNEv@Base 0.14.0
 build2_bash_load@Base 0.14.0
libbuild2-bin-0.14-0.14.so libbuild2-staged-0.14 #MINVER#
* Build-Depends-Package: build2-staged-dev
 (optional=templinst)_ZN4butl10basic_pathIcNS_13dir_path_kindIcEEEC1EPKc@Base 0.14.0
 (optional=templinst)_ZN4butl10basic_pathIcNS_13dir_path_kindIcEEEC2EPKc@Base 0.14.0
 _ZN4butl11process_envD1Ev@Base 0.14.0
 _ZN4butl11process_envD2Ev@Base 0.14.0
 _ZN4butl12process_pathD1Ev@Base 0.14.0
 _ZN4butl12process_pathD2Ev@Base 0.14.0
 (optional=templinst)_ZN4butl13any_path_kindIcE4initEONSt7__cxx1112basic_stringIcSt11char_traitsIcESaIcEEEb@Base 0.14.0
 _ZN4butl14target_tripletD1Ev@Base 0.14.0
 _ZN4butl14target_tripletD2Ev@Base 0.14.0
 _ZN4butl17invalid_path_baseD0Ev@Base 0.14.0
 _ZN4butl17invalid_path_baseD1Ev@Base 0.14.0
 _ZN4butl17invalid_path_baseD2Ev@Base 0.14.0
 (optional=templinst)_ZN4butl18invalid_basic_pathIcEC1ERKNSt7__cxx1112basic_stringIcSt11char_traitsIcESaIcEEE@Base 0.14.0
 (optional=templinst)_ZN4butl18invalid_basic_pathIcEC2ERKNSt7__cxx1112basic_stringIcSt11char_traitsIcESaIcEEE@Base 0.14.0
 (optional=templinst)_ZN4butl18invalid_basic_pathIcED0Ev@Base 0.14.0
 (optional=templinst)_ZN4butl18invalid_basic_pathIcED1Ev@Base 0.14.0
 (optional=templinst)_ZN4butl18invalid_basic_pathIcED2Ev@Base 0.14.0
 _ZN4butl5fdbufD0Ev@Base 0.14.0
 _ZN4butl5fdbufD1Ev@Base 0.14.0
 _ZN4butl5fdbufD2Ev@Base 0.14.0
 (optional=templinst)_ZN4butl7auto_rmINS_10basic_pathIcNS_13any_path_kindIcEEEEED1Ev@Base 0.14.0
 (optional=templinst)_ZN4butl7auto_rmINS_10basic_pathIcNS_13any_path_kindIcEEEEED2Ev@Base 0.14.0
 _ZN4butl7processD1Ev@Base 0.14.0
 _ZN4butl7processD2Ev@Base 0.14.0
 _ZN4butllsERKNS_11diag_recordERKNS_9diag_markIN6build215basic_mark_baseEEE@Base 0.14.0
 (optional=templinst)_ZN6build212global_cacheINS_3bin7ar_infoEED1Ev@Base 0.14.0
 (optional=templinst)_ZN6build212global_cacheINS_3bin7ar_infoEED2Ev@Base 0.14.0
 (optional=templinst)_ZN6build212global_cacheINS_3bin7ld_infoEED1Ev@Base 0.14.0
 (optional=templinst)_ZN6build212global_cacheINS_3bin7ld_infoEED2Ev@Base 0.14.0
 (optional=templinst)_ZN6build212global_cacheINS_3bin7nm_infoEED1Ev@Base 0.14.0
 (optional=templinst)_ZN6build212global_cacheINS_3bin7nm_infoEED2Ev@Base 0.14.0
 (optional=templinst)_ZN6build212global_cacheINS_3bin7rc_infoEED1Ev@Base 0.14.0
 (optional=templinst)_ZN6build212global_cacheINS_3bin7rc_infoEED2Ev@Base 0.14.0
 _ZN6build213function_argsIJN4butl12small_vectorINS_4nameELm1EEEEE5typesE@Base 0.14.0
 (optional=templinst)_ZN6build213variable_pool6insertINSt7__cxx1112basic_stringIcSt11char_traitsIcESaIcEEEEERKNS_8variableES7_@Base 0.14.0
 (optional=templinst)_ZN6build214target_factoryINS_3bin3defEEEPNS_6targetERNS_7contextERKNS_11target_typeEN4butl10basic_pathIcNSA_13dir_path_kindIcEEEESE_NSt7__cxx1112basic_stringIcSt11char_traitsIcESaIcEEE@Base 0.14.0
 (optional=templinst)_ZN6build214target_factoryINS_3bin4libiEEEPNS_6targetERNS_7contextERKNS_11target_typeEN4butl10basic_pathIcNSA_13dir_path_kindIcEEEESE_NSt7__cxx1112basic_stringIcSt11char_traitsIcESaIcEEE@Base 0.14.0
 (optional=templinst)_ZN6build214target_factoryINS_3bin5libueEEEPNS_6targetERNS_7contextERKNS_11target_typeEN4butl10basic_pathIcNSA_13dir_path_kindIcEEEESE_NSt7__cxx1112basic_stringIcSt11char_traitsIcESaIcEEE@Base 0.14.0
 _ZN6build215process_path_exC1ERKN4butl12process_pathENSt7__cxx1112basic_stringIcSt11char_traitsIcESaIcEEESt8optionalISA_ESC_@Base 0.14.0
 _ZN6build215process_path_exC2ERKN4butl12process_pathENSt7__cxx1112basic_stringIcSt11char_traitsIcESaIcEEESt8optionalISA_ESC_@Base 0.14.0
 _ZN6build215process_path_exD1Ev@Base 0.14.0
 _ZN6build215process_path_exD2Ev@Base 0.14.0
 _ZN6build215target_type_map6insertERKNS_11target_typeE@Base 0.14.0
 _ZN6build216hash_environmentB5cxx11EPKPKc@Base 0.14.0
 (optional=templinst)_ZN6build218function_cast_funcIPKcJPKNS_5scopeEN4butl12small_vectorINS_4nameELm1EEEEE5thunkES5_NS6_11vector_viewINS_5valueEEEPKv@Base 0.14.0
 (optional=templinst)_ZN6build218target_pattern_fixIXadL_ZNS_3bin7def_extEEEEEbRKNS_11target_typeERKNS_5scopeERNSt7__cxx1112basic_stringIcSt11char_traitsIcESaIcEEERSt8optionalISD_ERKNS_8locationEb@Base 0.14.0
 (optional=templinst)_ZN6build218target_pattern_fixIXadL_ZNS_3bin7pdb_extEEEEEbRKNS_11target_typeERKNS_5scopeERNSt7__cxx1112basic_stringIcSt11char_traitsIcESaIcEEERSt8optionalISD_ERKNS_8locationEb@Base 0.14.0
 (optional=templinst)_ZN6build218target_pattern_fixIXadL_ZNS_3bin8wasm_extEEEEEbRKNS_11target_typeERKNS_5scopeERNSt7__cxx1112basic_stringIcSt11char_traitsIcESaIcEEERSt8optionalISD_ERKNS_8locationEb@Base 0.14.0
 (optional=templinst)_ZN6build218target_pattern_varILPKc0EEEbRKNS_11target_typeERKNS_5scopeERNSt7__cxx1112basic_stringIcSt11char_traitsIcESaIcEEERSt8optionalISE_ERKNS_8locationEb@Base 0.14.0
 (optional=templinst)_ZN6build220target_extension_fixIXadL_ZNS_3bin7def_extEEEEEPKcRKNS_10target_keyEPKNS_5scopeE@Base 0.14.0
 (optional=templinst)_ZN6build220target_extension_fixIXadL_ZNS_3bin7pdb_extEEEEEPKcRKNS_10target_keyEPKNS_5scopeE@Base 0.14.0
 (optional=templinst)_ZN6build220target_extension_fixIXadL_ZNS_3bin8wasm_extEEEEEPKcRKNS_10target_keyEPKNS_5scopeE@Base 0.14.0
 (optional=templinst)_ZN6build220target_extension_varILPKc0EEESt8optionalINSt7__cxx1112basic_stringIcSt11char_traitsIcESaIcEEEERKNS_10target_keyERKNS_5scopeES2_b@Base 0.14.0
 _ZN6build220variable_pattern_map7patternD1Ev@Base 0.14.0
 _ZN6build220variable_pattern_map7patternD2Ev@Base 0.14.0
 _ZN6build225target_extension_var_implERKNS_11target_typeERKNSt7__cxx1112basic_stringIcSt11char_traitsIcESaIcEEERKNS_5scopeEPKc@Base 0.14.0
 (optional=templinst)_ZN6build226prerequisite_members_rangeIN4butl13reverse_rangeINS_19group_prerequisitesEEEE8iterator11switch_modeEv@Base 0.14.0
 (optional=templinst)_ZN6build226prerequisite_members_rangeIN4butl13reverse_rangeINS_19group_prerequisitesEEEE8iteratorC1EPKS5_RKSt16reverse_iteratorINS3_8iteratorEE@Base 0.14.0
 (optional=templinst)_ZN6build226prerequisite_members_rangeIN4butl13reverse_rangeINS_19group_prerequisitesEEEE8iteratorC2EPKS5_RKSt16reverse_iteratorINS3_8iteratorEE@Base 0.14.0
 _ZN6build23bin10libul_ruleD0Ev@Base 0.14.0
 _ZN6build23bin10libul_ruleD1Ev@Base 0.14.0
 _ZN6build23bin10libul_ruleD2Ev@Base 0.14.0
 _ZN6build23bin10link_orderERKNS_5scopeENS0_5otypeE@Base 0.14.0
 _ZN6build23bin11config_initERNS_5scopeES2_RKNS_8locationEbbRNS_17module_init_extraE@Base 0.14.0
 _ZN6build23bin11link_memberERKNS0_4libxENS_6actionENS0_5linfoEb@Base 0.14.0
 _ZN6build23bin12guess_resultC1EONSt7__cxx1112basic_stringIcSt11char_traitsIcESaIcEEES8_ON4butl16semantic_versionE@Base 0.14.0
 _ZN6build23bin12guess_resultC2EONSt7__cxx1112basic_stringIcSt11char_traitsIcESaIcEEES8_ON4butl16semantic_versionE@Base 0.14.0
 _ZN6build23bin12guess_resultD1Ev@Base 0.14.0
 _ZN6build23bin12guess_resultD2Ev@Base 0.14.0
 _ZN6build23bin12guess_resultaSEOS1_@Base 0.14.0
 _ZN6build23bin12link_membersERKNS_5scopeE@Base 0.14.0
 _ZN6build23bin14ar_config_initERNS_5scopeES2_RKNS_8locationEbbRNS_17module_init_extraE@Base 0.14.0
 _ZN6build23bin14ld_config_initERNS_5scopeES2_RKNS_8locationEbbRNS_17module_init_extraE@Base 0.14.0
 _ZN6build23bin14lookup_patternERKNS_5scopeE@Base 0.14.0
 _ZN6build23bin14nm_config_initERNS_5scopeES2_RKNS_8locationEbbRNS_17module_init_extraE@Base 0.14.0
 _ZN6build23bin14rc_config_initERNS_5scopeES2_RKNS_8locationEbbRNS_17module_init_extraE@Base 0.14.0
 _ZN6build23bin3bmi11static_typeE@Base 0.14.0
 _ZN6build23bin3bmiD0Ev@Base 0.14.0
 _ZN6build23bin3bmiD1Ev@Base 0.14.0
 _ZN6build23bin3bmiD2Ev@Base 0.14.0
 _ZN6build23bin3def11static_typeE@Base 0.14.0
 _ZN6build23bin3defD0Ev@Base 0.14.0
 _ZN6build23bin3defD1Ev@Base 0.14.0
 _ZN6build23bin3defD2Ev@Base 0.14.0
 _ZN6build23bin3lib11static_typeE@Base 0.14.0
 _ZN6build23bin3libD0Ev@Base 0.14.0
 _ZN6build23bin3libD1Ev@Base 0.14.0
 _ZN6build23bin3libD2Ev@Base 0.14.0
 _ZN6build23bin3obj11static_typeE@Base 0.14.0
 _ZN6build23bin3objD0Ev@Base 0.14.0
 _ZN6build23bin3objD1Ev@Base 0.14.0
 _ZN6build23bin3objD2Ev@Base 0.14.0
 _ZN6build23bin4bmia11static_typeE@Base 0.14.0
 _ZN6build23bin4bmiaD0Ev@Base 0.14.0
 _ZN6build23bin4bmiaD1Ev@Base 0.14.0
 _ZN6build23bin4bmiaD2Ev@Base 0.14.0
 _ZN6build23bin4bmie11static_typeE@Base 0.14.0
 _ZN6build23bin4bmieD0Ev@Base 0.14.0
 _ZN6build23bin4bmieD1Ev@Base 0.14.0
 _ZN6build23bin4bmieD2Ev@Base 0.14.0
 _ZN6build23bin4bmis11static_typeE@Base 0.14.0
 _ZN6build23bin4bmisD0Ev@Base 0.14.0
 _ZN6build23bin4bmisD1Ev@Base 0.14.0
 _ZN6build23bin4bmisD2Ev@Base 0.14.0
 _ZN6build23bin4bmix11static_typeE@Base 0.14.0
 _ZN6build23bin4hbmi11static_typeE@Base 0.14.0
 _ZN6build23bin4hbmiD0Ev@Base 0.14.0
 _ZN6build23bin4hbmiD1Ev@Base 0.14.0
 _ZN6build23bin4hbmiD2Ev@Base 0.14.0
 _ZN6build23bin4initERNS_5scopeES2_RKNS_8locationEbbRNS_17module_init_extraE@Base 0.14.0
 _ZN6build23bin4liba11static_typeE@Base 0.14.0
 _ZN6build23bin4libaD0Ev@Base 0.14.0
 _ZN6build23bin4libaD1Ev@Base 0.14.0
 _ZN6build23bin4libaD2Ev@Base 0.14.0
 _ZN6build23bin4libi11static_typeE@Base 0.14.0
 _ZN6build23bin4libiD0Ev@Base 0.14.0
 _ZN6build23bin4libiD1Ev@Base 0.14.0
 _ZN6build23bin4libiD2Ev@Base 0.14.0
 _ZN6build23bin4libs11static_typeE@Base 0.14.0
 _ZN6build23bin4libsD0Ev@Base 0.14.0
 _ZN6build23bin4libsD1Ev@Base 0.14.0
 _ZN6build23bin4libsD2Ev@Base 0.14.0
 _ZN6build23bin4libx11static_typeE@Base 0.14.0
 _ZN6build23bin4obja11static_typeE@Base 0.14.0
 _ZN6build23bin4objaD0Ev@Base 0.14.0
 _ZN6build23bin4objaD1Ev@Base 0.14.0
 _ZN6build23bin4objaD2Ev@Base 0.14.0
 _ZN6build23bin4obje11static_typeE@Base 0.14.0
 _ZN6build23bin4objeD0Ev@Base 0.14.0
 _ZN6build23bin4objeD1Ev@Base 0.14.0
 _ZN6build23bin4objeD2Ev@Base 0.14.0
 _ZN6build23bin4objs11static_typeE@Base 0.14.0
 _ZN6build23bin4objsD0Ev@Base 0.14.0
 _ZN6build23bin4objsD1Ev@Base 0.14.0
 _ZN6build23bin4objsD2Ev@Base 0.14.0
 _ZN6build23bin4objx11static_typeE@Base 0.14.0
 _ZN6build23bin5hbmia11static_typeE@Base 0.14.0
 _ZN6build23bin5hbmiaD0Ev@Base 0.14.0
 _ZN6build23bin5hbmiaD1Ev@Base 0.14.0
 _ZN6build23bin5hbmiaD2Ev@Base 0.14.0
 _ZN6build23bin5hbmie11static_typeE@Base 0.14.0
 _ZN6build23bin5hbmieD0Ev@Base 0.14.0
 _ZN6build23bin5hbmieD1Ev@Base 0.14.0
 _ZN6build23bin5hbmieD2Ev@Base 0.14.0
 _ZN6build23bin5hbmis11static_typeE@Base 0.14.0
 _ZN6build23bin5hbmisD0Ev@Base 0.14.0
 _ZN6build23bin5hbmisD1Ev@Base 0.14.0
 _ZN6build23bin5hbmisD2Ev@Base 0.14.0
 _ZN6build23bin5hbmix11static_typeE@Base 0.14.0
 _ZN6build23bin5libua11static_typeE@Base 0.14.0
 _ZN6build23bin5libuaD0Ev@Base 0.14.0
 _ZN6build23bin5libuaD1Ev@Base 0.14.0
 _ZN6build23bin5libuaD2Ev@Base 0.14.0
 _ZN6build23bin5libue11static_typeE@Base 0.14.0
 _ZN6build23bin5libueD0Ev@Base 0.14.0
 _ZN6build23bin5libueD1Ev@Base 0.14.0
 _ZN6build23bin5libueD2Ev@Base 0.14.0
 _ZN6build23bin5libul11static_typeE@Base 0.14.0
 _ZN6build23bin5libulD0Ev@Base 0.14.0
 _ZN6build23bin5libulD1Ev@Base 0.14.0
 _ZN6build23bin5libulD2Ev@Base 0.14.0
 _ZN6build23bin5libus11static_typeE@Base 0.14.0
 _ZN6build23bin5libusD0Ev@Base 0.14.0
 _ZN6build23bin5libusD1Ev@Base 0.14.0
 _ZN6build23bin5libusD2Ev@Base 0.14.0
 _ZN6build23bin5libux11static_typeE@Base 0.14.0
 _ZN6build23bin7ar_infoD1Ev@Base 0.14.0
 _ZN6build23bin7ar_infoD2Ev@Base 0.14.0
 _ZN6build23bin7ar_initERNS_5scopeES2_RKNS_8locationEbbRNS_17module_init_extraE@Base 0.14.0
 _ZN6build23bin7def_extE@Base 0.14.0
 _ZN6build23bin7ld_initERNS_5scopeES2_RKNS_8locationEbbRNS_17module_init_extraE@Base 0.14.0
 _ZN6build23bin7nm_initERNS_5scopeES2_RKNS_8locationEbbRNS_17module_init_extraE@Base 0.14.0
 _ZN6build23bin7pdb_extE@Base 0.14.0
 _ZN6build23bin7rc_initERNS_5scopeES2_RKNS_8locationEbbRNS_17module_init_extraE@Base 0.14.0
 _ZN6build23bin7symbolsD1Ev@Base 0.14.0
 _ZN6build23bin7symbolsD2Ev@Base 0.14.0
 _ZN6build23bin8def_initERNS_5scopeES2_RKNS_8locationEbbRNS_17module_init_extraE@Base 0.14.0
 _ZN6build23bin8def_rule14perform_updateENS_6actionERKNS_6targetE@Base 0.14.0
 _ZN6build23bin8def_rule8rule_id_B5cxx11E@Base 0.14.0
 _ZN6build23bin8def_ruleD0Ev@Base 0.14.0
 _ZN6build23bin8def_ruleD1Ev@Base 0.14.0
 _ZN6build23bin8def_ruleD2Ev@Base 0.14.0
 _ZN6build23bin8guess_arERKN4butl10basic_pathIcNS1_13any_path_kindIcEEEEPS6_PKc@Base 0.14.0
 _ZN6build23bin8guess_ldERKN4butl10basic_pathIcNS1_13any_path_kindIcEEEEPKc@Base 0.14.0
 _ZN6build23bin8guess_nmERKN4butl10basic_pathIcNS1_13any_path_kindIcEEEEPKc@Base 0.14.0
 _ZN6build23bin8guess_rcERKN4butl10basic_pathIcNS1_13any_path_kindIcEEEEPKc@Base 0.14.0
 _ZN6build23bin8lib_rule7performENS_6actionERKNS_6targetE@Base 0.14.0
 _ZN6build23bin8lib_ruleD0Ev@Base 0.14.0
 _ZN6build23bin8lib_ruleD1Ev@Base 0.14.0
 _ZN6build23bin8lib_ruleD2Ev@Base 0.14.0
 _ZN6build23bin8obj_ruleD0Ev@Base 0.14.0
 _ZN6build23bin8obj_ruleD1Ev@Base 0.14.0
 _ZN6build23bin8obj_ruleD2Ev@Base 0.14.0
 _ZN6build23bin8wasm_extE@Base 0.14.0
 _ZN6build23bin9functionsERNS_12function_mapE@Base 0.14.0
 _ZN6build23bin9vars_initERNS_5scopeES2_RKNS_8locationEbbRNS_17module_init_extraE@Base 0.14.0
 (optional=templinst)_ZN6build24castIN4butl10basic_pathIcNS1_13any_path_kindIcEEEEEERKT_RKNS_5valueE@Base 0.14.0
 (optional=templinst)_ZN6build24castINSt7__cxx1112basic_stringIcSt11char_traitsIcESaIcEEEEERKT_RKNS_5valueE@Base 0.14.0
 (optional=templinst)_ZN6build24castISt6vectorIN4butl10basic_pathIcNS2_13dir_path_kindIcEEEESaIS6_EEEERKT_RKNS_5valueE@Base 0.14.0
 (optional=templinst)_ZN6build24castIbEERKT_RKNS_5valueE@Base 0.14.0
 _ZN6build24fileD0Ev@Base 0.14.0
 _ZN6build24fileD1Ev@Base 0.14.0
 _ZN6build24fileD2Ev@Base 0.14.0
 _ZN6build25depdbD1Ev@Base 0.14.0
 _ZN6build25depdbD2Ev@Base 0.14.0
 _ZN6build25scope6assignENSt7__cxx1112basic_stringIcSt11char_traitsIcESaIcEEE@Base 0.14.0
 (optional=templinst)_ZN6build25scope6assignINS_15process_path_exEEERNS_5valueENSt7__cxx1112basic_stringIcSt11char_traitsIcESaIcEEE@Base 0.14.0
 (optional=templinst)_ZN6build25scope6assignINSt7__cxx1112basic_stringIcSt11char_traitsIcESaIcEEEEERNS_5valueES7_@Base 0.14.0
 (optional=templinst)_ZN6build25scope6assignImEERNS_5valueENSt7__cxx1112basic_stringIcSt11char_traitsIcESaIcEEE@Base 0.14.0
 (optional=templinst)_ZN6build25valueaSINS_15process_path_exEEERS0_T_@Base 0.14.0
 (optional=templinst)_ZN6build25valueaSINSt7__cxx1112basic_stringIcSt11char_traitsIcESaIcEEEEERS0_T_@Base 0.14.0
 (optional=templinst)_ZN6build25valueaSImEERS0_T_@Base 0.14.0
 (optional=templinst)_ZN6build26config18lookup_config_implIDnEESt4pairINS_6lookupEbERNS_5scopeERKNS_8variableEOT_mb@Base 0.14.0
 (optional=templinst)_ZN6build26config18lookup_config_implIN4butl10basic_pathIcNS2_13any_path_kindIcEEEEEESt4pairINS_6lookupEbERNS_5scopeERKNS_8variableEOT_mb@Base 0.14.0
 (optional=templinst)_ZN6build26config18lookup_config_implINSt7__cxx1112basic_stringIcSt11char_traitsIcESaIcEEEEESt4pairINS_6lookupEbERNS_5scopeERKNS_8variableEOT_mb@Base 0.14.0
 (optional=templinst)_ZN6build26config18lookup_config_implIRKSt6vectorINSt7__cxx1112basic_stringIcSt11char_traitsIcESaIcEEESaIS8_EEEESt4pairINS_6lookupEbERNS_5scopeERKNS_8variableEOT_mb@Base 0.14.0
 _ZN6build26failedD0Ev@Base 0.14.0
 _ZN6build26failedD1Ev@Base 0.14.0
 _ZN6build26failedD2Ev@Base 0.14.0
 _ZN6build27convertINSt7__cxx1112basic_stringIcSt11char_traitsIcESaIcEEEEEDTclsrNS_12value_traitsIT_EE7convertcl4movecldtfp_L_ZNSt6vectorINS_4nameEN4butl15small_allocatorISB_Lm1ENSC_22small_allocator_bufferISB_Lm1EEEEEEixEmELi0EEELDn0EEEONSC_12small_vectorISB_Lm1EEE@Base 0.14.0
 _ZN6build27install12install_modeERNS_5scopeERKNS_11target_typeENSt7__cxx1112basic_stringIcSt11char_traitsIcESaIcEEE@Base 0.14.0
 _ZN6build27install12install_pathERNS_5scopeERKNS_11target_typeEN4butl10basic_pathIcNS6_13dir_path_kindIcEEEE@Base 0.14.0
 (optional=templinst)_ZN6build28relativeIN4butl13any_path_kindIcEEEENS1_10basic_pathIcT_EERKS6_@Base 0.14.0
 _ZN6build28rule_map6insertEhhRKNS_11target_typeENSt7__cxx1112basic_stringIcSt11char_traitsIcESaIcEEERKNS_4ruleE@Base 0.14.0
 _ZN6build2lsERSoRKNS_6targetE@Base 0.14.0
 (optional=templinst)_ZNK4butl10basic_pathIcNS_13any_path_kindIcEEE12try_relativeES3_@Base 0.14.0
 (optional=templinst)_ZNK4butl10basic_pathIcNS_13any_path_kindIcEEE4leafERKS3_@Base 0.14.0
 _ZNK6build23bin10libul_rule5applyENS_6actionERNS_6targetE@Base 0.14.0
 _ZNK6build23bin10libul_rule5matchENS_6actionERNS_6targetERKNSt7__cxx1112basic_stringIcSt11char_traitsIcESaIcEEE@Base 0.14.0
 _ZNK6build23bin3bmi12dynamic_typeEv@Base 0.14.0
 _ZNK6build23bin3def12dynamic_typeEv@Base 0.14.0
 _ZNK6build23bin3lib12dynamic_typeEv@Base 0.14.0
 _ZNK6build23bin3lib13group_membersENS_6actionE@Base 0.14.0
 _ZNK6build23bin3obj12dynamic_typeEv@Base 0.14.0
 _ZNK6build23bin4bmia12dynamic_typeEv@Base 0.14.0
 _ZNK6build23bin4bmie12dynamic_typeEv@Base 0.14.0
 _ZNK6build23bin4bmis12dynamic_typeEv@Base 0.14.0
 _ZNK6build23bin4hbmi12dynamic_typeEv@Base 0.14.0
 _ZNK6build23bin4liba12dynamic_typeEv@Base 0.14.0
 _ZNK6build23bin4libi12dynamic_typeEv@Base 0.14.0
 _ZNK6build23bin4libs12dynamic_typeEv@Base 0.14.0
 _ZNK6build23bin4obja12dynamic_typeEv@Base 0.14.0
 _ZNK6build23bin4obje12dynamic_typeEv@Base 0.14.0
 _ZNK6build23bin4objs12dynamic_typeEv@Base 0.14.0
 _ZNK6build23bin5hbmia12dynamic_typeEv@Base 0.14.0
 _ZNK6build23bin5hbmie12dynamic_typeEv@Base 0.14.0
 _ZNK6build23bin5hbmis12dynamic_typeEv@Base 0.14.0
 _ZNK6build23bin5libua12dynamic_typeEv@Base 0.14.0
 _ZNK6build23bin5libue12dynamic_typeEv@Base 0.14.0
 _ZNK6build23bin5libul12dynamic_typeEv@Base 0.14.0
 _ZNK6build23bin5libus12dynamic_typeEv@Base 0.14.0
 _ZNK6build23bin8def_rule5applyENS_6actionERNS_6targetE@Base 0.14.0
 _ZNK6build23bin8def_rule5matchENS_6actionERNS_6targetERKNSt7__cxx1112basic_stringIcSt11char_traitsIcESaIcEEE@Base 0.14.0
 _ZNK6build23bin8lib_rule5applyENS_6actionERNS_6targetE@Base 0.14.0
 _ZNK6build23bin8lib_rule5matchENS_6actionERNS_6targetERKNSt7__cxx1112basic_stringIcSt11char_traitsIcESaIcEEE@Base 0.14.0
 _ZNK6build23bin8obj_rule5applyENS_6actionERNS_6targetE@Base 0.14.0
 _ZNK6build23bin8obj_rule5matchENS_6actionERNS_6targetERKNSt7__cxx1112basic_stringIcSt11char_traitsIcESaIcEEE@Base 0.14.0
 _ZNK6build24file12dynamic_typeEv@Base 0.14.0
 _ZNK6build25scopeixERKNSt7__cxx1112basic_stringIcSt11char_traitsIcESaIcEEE@Base 0.14.0
 (optional=templinst)_ZNKSt10_HashtableIN4butl7map_keyINSt7__cxx1112basic_stringIcSt11char_traitsIcESaIcEEEEESt4pairIKS8_N6build28variableEESaISD_ENSt8__detail10_Select1stESt8equal_toIS8_ESt4hashIS8_ENSF_18_Mod_range_hashingENSF_20_Default_ranged_hashENSF_20_Prime_rehash_policyENSF_17_Hashtable_traitsILb0ELb0ELb1EEEE4findERSA_@Base 0.14.0
 (optional=templinst)_ZNKSt10_HashtableIN6build210target_keyESt4pairIKS1_St10unique_ptrINS0_6targetESt14default_deleteIS5_EEESaIS9_ENSt8__detail10_Select1stESt8equal_toIS1_ESt4hashIS1_ENSB_18_Mod_range_hashingENSB_20_Default_ranged_hashENSB_20_Prime_rehash_policyENSB_17_Hashtable_traitsILb0ELb0ELb1EEEE19_M_find_before_nodeEmRS3_m@Base 0.14.0
 (optional=templinst)_ZNKSt5ctypeIcE8do_widenEc@Base 0.14.0
 (optional=templinst)_ZNKSt7__cxx1112basic_stringIcSt11char_traitsIcESaIcEE13find_first_ofEPKcmm@Base 0.14.0
 (optional=templinst)_ZNKSt7__cxx1112basic_stringIcSt11char_traitsIcESaIcEE4findEPKcmm@Base 0.14.0
 (optional=templinst)_ZNKSt7__cxx1112basic_stringIcSt11char_traitsIcESaIcEE7compareEPKc@Base 0.14.0
 (optional=templinst)_ZNKSt7__cxx1112basic_stringIcSt11char_traitsIcESaIcEE7compareEmmPKc@Base 0.14.0
 (optional=templinst)_ZNSt14_Function_base13_Base_managerIPFN6build212target_stateENS1_6actionERKNS1_6targetEEE10_M_managerERSt9_Any_dataRKSA_St18_Manager_operation@Base 0.14.0
 (optional=templinst)_ZNSt14_Function_base13_Base_managerIZN6build226match_prerequisite_membersENS1_6actionERNS1_6targetERKSt8functionIFNS1_19prerequisite_targetES2_RKS3_RKNS1_19prerequisite_memberENS1_12include_typeEEEEUlS2_S8_RKNS1_12prerequisiteESC_E_E10_M_managerERSt9_Any_dataRKSM_St18_Manager_operation@Base 0.14.0
 (optional=templinst)_ZNSt16_Sp_counted_baseILN9__gnu_cxx12_Lock_policyE2EE10_M_releaseEv@Base 0.14.0
 (optional=templinst)_ZNSt17_Function_handlerIFN6build212target_stateENS0_6actionERKNS0_6targetEEPS6_E9_M_invokeERKSt9_Any_dataOS2_S5_@Base 0.14.0
 (optional=templinst)_ZNSt17_Function_handlerIFN6build219prerequisite_targetENS0_6actionERKNS0_6targetERKNS0_12prerequisiteENS0_12include_typeEEZNS0_26match_prerequisite_membersES2_RS3_RKSt8functionIFS1_S2_S5_RKNS0_19prerequisite_memberES9_EEEUlS2_S5_S8_S9_E_E9_M_invokeERKSt9_Any_dataOS2_S5_S8_OS9_@Base 0.14.0
 (optional=templinst)_ZNSt22_Optional_payload_baseINSt7__cxx1111basic_regexIcNS0_12regex_traitsIcEEEEEC1EbOS5_@Base 0.14.0
 (optional=templinst)_ZNSt22_Optional_payload_baseINSt7__cxx1111basic_regexIcNS0_12regex_traitsIcEEEEEC2EbOS5_@Base 0.14.0
 (optional=templinst)_ZNSt4pairINSt7__cxx1112basic_stringIcSt11char_traitsIcESaIcEEEN6build23bin7ar_infoEED1Ev@Base 0.14.0
 (optional=templinst)_ZNSt4pairINSt7__cxx1112basic_stringIcSt11char_traitsIcESaIcEEEN6build23bin7ar_infoEED2Ev@Base 0.14.0
 (optional=templinst)_ZNSt4pairINSt7__cxx1112basic_stringIcSt11char_traitsIcESaIcEEEN6build23bin7ld_infoEED1Ev@Base 0.14.0
 (optional=templinst)_ZNSt4pairINSt7__cxx1112basic_stringIcSt11char_traitsIcESaIcEEEN6build23bin7ld_infoEED2Ev@Base 0.14.0
 (optional=templinst)_ZNSt4pairINSt7__cxx1112basic_stringIcSt11char_traitsIcESaIcEEEN6build23bin7nm_infoEED1Ev@Base 0.14.0
 (optional=templinst)_ZNSt4pairINSt7__cxx1112basic_stringIcSt11char_traitsIcESaIcEEEN6build23bin7nm_infoEED2Ev@Base 0.14.0
 (optional=templinst)_ZNSt4pairINSt7__cxx1112basic_stringIcSt11char_traitsIcESaIcEEEN6build23bin7rc_infoEED1Ev@Base 0.14.0
 (optional=templinst)_ZNSt4pairINSt7__cxx1112basic_stringIcSt11char_traitsIcESaIcEEEN6build23bin7rc_infoEED2Ev@Base 0.14.0
 (optional=templinst)_ZNSt6vectorIN4butl10basic_pathIcNS0_13dir_path_kindIcEEEESaIS4_EED1Ev@Base 0.14.0
 (optional=templinst)_ZNSt6vectorIN4butl10basic_pathIcNS0_13dir_path_kindIcEEEESaIS4_EED2Ev@Base 0.14.0
 (optional=templinst)_ZNSt6vectorIN6build217function_overloadEN4butl15small_allocatorIS1_Lm8ENS2_22small_allocator_bufferIS1_Lm8EEEEEE12emplace_backIJS1_EEERS1_DpOT_@Base 0.14.0
 (optional=templinst)_ZNSt6vectorIN6build217function_overloadEN4butl15small_allocatorIS1_Lm8ENS2_22small_allocator_bufferIS1_Lm8EEEEEE17_M_realloc_insertIJS1_EEEvN9__gnu_cxx17__normal_iteratorIPS1_S7_EEDpOT_@Base 0.14.0
 (optional=templinst)_ZNSt6vectorIN6build24nameEN4butl15small_allocatorIS1_Lm1ENS2_22small_allocator_bufferIS1_Lm1EEEEEE13_M_assign_auxISt13move_iteratorIN9__gnu_cxx17__normal_iteratorIPS1_S7_EEEEEvT_SF_St20forward_iterator_tag@Base 0.14.0
 (optional=templinst)_ZNSt6vectorIN6build24nameEN4butl15small_allocatorIS1_Lm1ENS2_22small_allocator_bufferIS1_Lm1EEEEEED1Ev@Base 0.14.0
 (optional=templinst)_ZNSt6vectorIN6build24nameEN4butl15small_allocatorIS1_Lm1ENS2_22small_allocator_bufferIS1_Lm1EEEEEED2Ev@Base 0.14.0
 (optional=templinst)_ZNSt6vectorINSt7__cxx1112basic_stringIcSt11char_traitsIcESaIcEEESaIS5_EEC1ESt16initializer_listIS5_ERKS6_@Base 0.14.0
 (optional=templinst)_ZNSt6vectorINSt7__cxx1112basic_stringIcSt11char_traitsIcESaIcEEESaIS5_EEC2ESt16initializer_listIS5_ERKS6_@Base 0.14.0
 (optional=templinst)_ZNSt6vectorINSt7__cxx1112basic_stringIcSt11char_traitsIcESaIcEEESaIS5_EED1Ev@Base 0.14.0
 (optional=templinst)_ZNSt6vectorINSt7__cxx1112basic_stringIcSt11char_traitsIcESaIcEEESaIS5_EED2Ev@Base 0.14.0
 (optional=templinst)_ZNSt6vectorIPKcSaIS1_EE12emplace_backIJS1_EEERS1_DpOT_@Base 0.14.0
 (optional=templinst)_ZNSt6vectorIPKcSaIS1_EE17_M_realloc_insertIJS1_EEEvN9__gnu_cxx17__normal_iteratorIPS1_S3_EEDpOT_@Base 0.14.0
 (optional=templinst)_ZNSt6vectorISt3mapIPKN6build211target_typeEN4butl15prefix_map_implIS0_INSt7__cxx1112basic_stringIcSt11char_traitsIcESaIcEEESt17reference_wrapperIKNS1_4ruleEENS5_14compare_prefixISC_EESaISt4pairIKSC_SG_EEELc46EEESt4lessIS4_ESaISJ_IKS4_SO_EEESaISU_EE17_M_default_appendEm@Base 0.14.0
 (optional=templinst)_ZNSt7__cxx1112basic_stringIcSt11char_traitsIcESaIcEE10_M_replaceEmmPKcm@Base 0.14.0
 (optional=templinst)_ZNSt7__cxx1112basic_stringIcSt11char_traitsIcESaIcEE12_M_constructIPKcEEvT_S8_St20forward_iterator_tag@Base 0.14.0
 (optional=templinst)_ZNSt7__cxx1112basic_stringIcSt11char_traitsIcESaIcEE12_M_constructIPcEEvT_S7_St20forward_iterator_tag@Base 0.14.0
 (optional=templinst)_ZNSt7__cxx1112basic_stringIcSt11char_traitsIcESaIcEE9_M_appendEPKcm@Base 0.14.0
 (optional=templinst)_ZNSt7__cxx1112basic_stringIcSt11char_traitsIcESaIcEE9_M_createERmm@Base 0.14.0
 (optional=templinst)_ZNSt7__cxx1112basic_stringIcSt11char_traitsIcESaIcEE9_M_mutateEmmPKcm@Base 0.14.0
 (optional=templinst)_ZNSt7__cxx1112basic_stringIcSt11char_traitsIcESaIcEED1Ev@Base 0.14.0
 (optional=templinst)_ZNSt7__cxx1112basic_stringIcSt11char_traitsIcESaIcEED2Ev@Base 0.14.0
 (optional=templinst)_ZNSt7__cxx1112basic_stringIcSt11char_traitsIcESaIcEEaSEOS4_@Base 0.14.0
 (optional=templinst)_ZNSt7__cxx1115basic_stringbufIcSt11char_traitsIcESaIcEED0Ev@Base 0.14.0
 (optional=templinst)_ZNSt7__cxx1115basic_stringbufIcSt11char_traitsIcESaIcEED1Ev@Base 0.14.0
 (optional=templinst)_ZNSt7__cxx1115basic_stringbufIcSt11char_traitsIcESaIcEED2Ev@Base 0.14.0
 (optional=templinst)_ZNSt8_Rb_treeIN6build220variable_pattern_map7patternESt4pairIKS2_NS0_12variable_mapEESt10_Select1stIS6_ENS1_15pattern_compareESaIS6_EE17_M_emplace_uniqueIJS2_S5_EEES3_ISt17_Rb_tree_iteratorIS6_EbEDpOT_@Base 0.14.0
 (optional=templinst)_ZNSt8_Rb_treeIN6build220variable_pattern_map7patternESt4pairIKS2_NS0_12variable_mapEESt10_Select1stIS6_ENS1_15pattern_compareESaIS6_EE24_M_get_insert_unique_posERS4_@Base 0.14.0
 (optional=templinst)_ZNSt8_Rb_treeIN6build220variable_pattern_map7patternESt4pairIKS2_NS0_12variable_mapEESt10_Select1stIS6_ENS1_15pattern_compareESaIS6_EE8_M_eraseEPSt13_Rb_tree_nodeIS6_E@Base 0.14.0
 (optional=templinst)_ZNSt8_Rb_treeINSt7__cxx1112basic_stringIcSt11char_traitsIcESaIcEEES5_St9_IdentityIS5_ESt4lessIS5_ESaIS5_EE16_M_insert_uniqueIS5_EESt4pairISt17_Rb_tree_iteratorIS5_EbEOT_@Base 0.14.0
 (optional=templinst)_ZNSt8_Rb_treeINSt7__cxx1112basic_stringIcSt11char_traitsIcESaIcEEES5_St9_IdentityIS5_ESt4lessIS5_ESaIS5_EE8_M_eraseEPSt13_Rb_tree_nodeIS5_E@Base 0.14.0
 (optional=templinst)_ZNSt8_Rb_treeINSt7__cxx1112basic_stringIcSt11char_traitsIcESaIcEEESt4pairIKS5_N6build215target_type_map15target_type_refEESt10_Select1stISB_ESt4lessIS5_ESaISB_EE17_M_emplace_uniqueIJRKPKcSA_EEES6_ISt17_Rb_tree_iteratorISB_EbEDpOT_@Base 0.14.0
 (optional=templinst)_ZNSt8_Rb_treeINSt7__cxx1112basic_stringIcSt11char_traitsIcESaIcEEESt4pairIKS5_N6build23bin7ar_infoEESt10_Select1stISB_ESt4lessIS5_ESaISB_EE17_M_emplace_uniqueIJS6_IS5_SA_EEEES6_ISt17_Rb_tree_iteratorISB_EbEDpOT_@Base 0.14.0
 (optional=templinst)_ZNSt8_Rb_treeINSt7__cxx1112basic_stringIcSt11char_traitsIcESaIcEEESt4pairIKS5_N6build23bin7ar_infoEESt10_Select1stISB_ESt4lessIS5_ESaISB_EE8_M_eraseEPSt13_Rb_tree_nodeISB_E@Base 0.14.0
 (optional=templinst)_ZNSt8_Rb_treeINSt7__cxx1112basic_stringIcSt11char_traitsIcESaIcEEESt4pairIKS5_N6build23bin7ld_infoEESt10_Select1stISB_ESt4lessIS5_ESaISB_EE17_M_emplace_uniqueIJS6_IS5_SA_EEEES6_ISt17_Rb_tree_iteratorISB_EbEDpOT_@Base 0.14.0
 (optional=templinst)_ZNSt8_Rb_treeINSt7__cxx1112basic_stringIcSt11char_traitsIcESaIcEEESt4pairIKS5_N6build23bin7ld_infoEESt10_Select1stISB_ESt4lessIS5_ESaISB_EE8_M_eraseEPSt13_Rb_tree_nodeISB_E@Base 0.14.0
 (optional=templinst)_ZNSt8_Rb_treeINSt7__cxx1112basic_stringIcSt11char_traitsIcESaIcEEESt4pairIKS5_N6build23bin7nm_infoEESt10_Select1stISB_ESt4lessIS5_ESaISB_EE17_M_emplace_uniqueIJS6_IS5_SA_EEEES6_ISt17_Rb_tree_iteratorISB_EbEDpOT_@Base 0.14.0
 (optional=templinst)_ZNSt8_Rb_treeINSt7__cxx1112basic_stringIcSt11char_traitsIcESaIcEEESt4pairIKS5_N6build23bin7nm_infoEESt10_Select1stISB_ESt4lessIS5_ESaISB_EE8_M_eraseEPSt13_Rb_tree_nodeISB_E@Base 0.14.0
 (optional=templinst)_ZNSt8_Rb_treeINSt7__cxx1112basic_stringIcSt11char_traitsIcESaIcEEESt4pairIKS5_N6build23bin7rc_infoEESt10_Select1stISB_ESt4lessIS5_ESaISB_EE17_M_emplace_uniqueIJS6_IS5_SA_EEEES6_ISt17_Rb_tree_iteratorISB_EbEDpOT_@Base 0.14.0
 (optional=templinst)_ZNSt8_Rb_treeINSt7__cxx1112basic_stringIcSt11char_traitsIcESaIcEEESt4pairIKS5_N6build23bin7rc_infoEESt10_Select1stISB_ESt4lessIS5_ESaISB_EE8_M_eraseEPSt13_Rb_tree_nodeISB_E@Base 0.14.0
 (optional=templinst)_ZNSt8_Rb_treeINSt7__cxx1112basic_stringIcSt11char_traitsIcESaIcEEESt4pairIKS5_St17reference_wrapperIKN6build24ruleEEESt10_Select1stISD_EN4butl14compare_prefixIS5_EESaISD_EE17_M_emplace_uniqueIJS5_RSB_EEES6_ISt17_Rb_tree_iteratorISD_EbEDpOT_@Base 0.14.0
 (optional=templinst)_ZNSt8_Rb_treeINSt7__cxx1112basic_stringIcSt11char_traitsIcESaIcEEESt4pairIKS5_St17reference_wrapperIKN6build24ruleEEESt10_Select1stISD_EN4butl14compare_prefixIS5_EESaISD_EE8_M_eraseEPSt13_Rb_tree_nodeISD_E@Base 0.14.0
 (optional=templinst)_ZNSt8_Rb_treeINSt7__cxx1112basic_stringIcSt11char_traitsIcESaIcEEESt4pairIKS5_cESt10_Select1stIS8_ESt4lessIS5_ESaIS8_EE17_M_emplace_uniqueIJS5_cEEES6_ISt17_Rb_tree_iteratorIS8_EbEDpOT_@Base 0.14.0
 (optional=templinst)_ZNSt8_Rb_treeINSt7__cxx1112basic_stringIcSt11char_traitsIcESaIcEEESt4pairIKS5_cESt10_Select1stIS8_ESt4lessIS5_ESaIS8_EE4findERS7_@Base 0.14.0
 (optional=templinst)_ZNSt8_Rb_treeINSt7__cxx1112basic_stringIcSt11char_traitsIcESaIcEEESt4pairIKS5_cESt10_Select1stIS8_ESt4lessIS5_ESaIS8_EE8_M_eraseEPSt13_Rb_tree_nodeIS8_E@Base 0.14.0
 (optional=templinst)_ZNSt8_Rb_treeIPKN6build211target_typeESt4pairIKS3_N4butl15prefix_map_implISt3mapINSt7__cxx1112basic_stringIcSt11char_traitsIcESaIcEEESt17reference_wrapperIKNS0_4ruleEENS6_14compare_prefixISE_EESaIS4_IKSE_SI_EEELc46EEEESt10_Select1stISQ_ESt4lessIS3_ESaISQ_EE24_M_get_insert_unique_posERS5_@Base 0.14.0
 (optional=templinst)_ZNSt8_Rb_treeIPKN6build211target_typeESt4pairIKS3_N4butl15prefix_map_implISt3mapINSt7__cxx1112basic_stringIcSt11char_traitsIcESaIcEEESt17reference_wrapperIKNS0_4ruleEENS6_14compare_prefixISE_EESaIS4_IKSE_SI_EEELc46EEEESt10_Select1stISQ_ESt4lessIS3_ESaISQ_EE29_M_get_insert_hint_unique_posESt23_Rb_tree_const_iteratorISQ_ERS5_@Base 0.14.0
 (optional=templinst)_ZNSt8_Rb_treeIPKN6build211target_typeESt4pairIKS3_N4butl15prefix_map_implISt3mapINSt7__cxx1112basic_stringIcSt11char_traitsIcESaIcEEESt17reference_wrapperIKNS0_4ruleEENS6_14compare_prefixISE_EESaIS4_IKSE_SI_EEELc46EEEESt10_Select1stISQ_ESt4lessIS3_ESaISQ_EE8_M_eraseEPSt13_Rb_tree_nodeISQ_E@Base 0.14.0
 (optional=templinst)_ZNSt8_Rb_treeISt17reference_wrapperIKN6build211target_typeEESt4pairIKS4_NS1_20variable_pattern_mapEESt10_Select1stIS8_ESt4lessIS4_ESaIS8_EE17_M_emplace_uniqueIJRS3_S7_EEES5_ISt17_Rb_tree_iteratorIS8_EbEDpOT_@Base 0.14.0
 (optional=templinst)_ZNSt8_Rb_treeISt17reference_wrapperIKN6build28variableEESt4pairIKS4_NS1_12variable_map10value_dataEESt10_Select1stIS9_EN4butl14compare_prefixIS4_EESaIS9_EE8_M_eraseEPSt13_Rb_tree_nodeIS9_E@Base 0.14.0
 (optional=templinst)_ZSt9__find_ifIN9__gnu_cxx17__normal_iteratorIPKN6build212module_stateESt6vectorIS3_SaIS3_EEEENS0_5__ops10_Iter_predIZNKS2_10module_map4findERKNSt7__cxx1112basic_stringIcSt11char_traitsIcESaIcEEEEUlRS4_E_EEET_SO_SO_T0_St26random_access_iterator_tag@Base 0.14.0
 (optional=templinst)_ZStplIcSt11char_traitsIcESaIcEENSt7__cxx1112basic_stringIT_T0_T1_EEOS8_PKS5_@Base 0.14.0
 _ZTIFN6build212target_stateENS_6actionERKNS_6targetEE@Base 0.14.0
 _ZTIN4butl17invalid_path_baseE@Base 0.14.0
 _ZTIN4butl18invalid_basic_pathIcEE@Base 0.14.0
 _ZTIN6build211path_targetE@Base 0.14.0
 _ZTIN6build212mtime_targetE@Base 0.14.0
 _ZTIN6build23bin10libul_ruleE@Base 0.14.0
 _ZTIN6build23bin11lib_membersE@Base 0.14.0
 _ZTIN6build23bin3bmiE@Base 0.14.0
 _ZTIN6build23bin3defE@Base 0.14.0
 _ZTIN6build23bin3libE@Base 0.14.0
 _ZTIN6build23bin3objE@Base 0.14.0
 _ZTIN6build23bin4bmiaE@Base 0.14.0
 _ZTIN6build23bin4bmieE@Base 0.14.0
 _ZTIN6build23bin4bmisE@Base 0.14.0
 _ZTIN6build23bin4bmixE@Base 0.14.0
 _ZTIN6build23bin4hbmiE@Base 0.14.0
 _ZTIN6build23bin4libaE@Base 0.14.0
 _ZTIN6build23bin4libiE@Base 0.14.0
 _ZTIN6build23bin4libsE@Base 0.14.0
 _ZTIN6build23bin4libxE@Base 0.14.0
 _ZTIN6build23bin4objaE@Base 0.14.0
 _ZTIN6build23bin4objeE@Base 0.14.0
 _ZTIN6build23bin4objsE@Base 0.14.0
 _ZTIN6build23bin4objxE@Base 0.14.0
 _ZTIN6build23bin5hbmiaE@Base 0.14.0
 _ZTIN6build23bin5hbmieE@Base 0.14.0
 _ZTIN6build23bin5hbmisE@Base 0.14.0
 _ZTIN6build23bin5hbmixE@Base 0.14.0
 _ZTIN6build23bin5libuaE@Base 0.14.0
 _ZTIN6build23bin5libueE@Base 0.14.0
 _ZTIN6build23bin5libulE@Base 0.14.0
 _ZTIN6build23bin5libusE@Base 0.14.0
 _ZTIN6build23bin5libuxE@Base 0.14.0
 _ZTIN6build23bin8def_ruleE@Base 0.14.0
 _ZTIN6build23bin8lib_ruleE@Base 0.14.0
 _ZTIN6build23bin8obj_ruleE@Base 0.14.0
 _ZTIN6build24fileE@Base 0.14.0
 _ZTIN6build25aliasE@Base 0.14.0
 _ZTIN6build26failedE@Base 0.14.0
 _ZTIPFN6build212target_stateENS_6actionERKNS_6targetEE@Base 0.14.0
 _ZTIZN6build226match_prerequisite_membersENS_6actionERNS_6targetERKSt8functionIFNS_19prerequisite_targetES0_RKS1_RKNS_19prerequisite_memberENS_12include_typeEEEEUlS0_S6_RKNS_12prerequisiteESA_E_@Base 0.14.0
 _ZTSFN6build212target_stateENS_6actionERKNS_6targetEE@Base 0.14.0
 _ZTSN4butl17invalid_path_baseE@Base 0.14.0
 _ZTSN4butl18invalid_basic_pathIcEE@Base 0.14.0
 _ZTSN6build211path_targetE@Base 0.14.0
 _ZTSN6build212mtime_targetE@Base 0.14.0
 _ZTSN6build23bin10libul_ruleE@Base 0.14.0
 _ZTSN6build23bin11lib_membersE@Base 0.14.0
 _ZTSN6build23bin3bmiE@Base 0.14.0
 _ZTSN6build23bin3defE@Base 0.14.0
 _ZTSN6build23bin3libE@Base 0.14.0
 _ZTSN6build23bin3objE@Base 0.14.0
 _ZTSN6build23bin4bmiaE@Base 0.14.0
 _ZTSN6build23bin4bmieE@Base 0.14.0
 _ZTSN6build23bin4bmisE@Base 0.14.0
 _ZTSN6build23bin4bmixE@Base 0.14.0
 _ZTSN6build23bin4hbmiE@Base 0.14.0
 _ZTSN6build23bin4libaE@Base 0.14.0
 _ZTSN6build23bin4libiE@Base 0.14.0
 _ZTSN6build23bin4libsE@Base 0.14.0
 _ZTSN6build23bin4libxE@Base 0.14.0
 _ZTSN6build23bin4objaE@Base 0.14.0
 _ZTSN6build23bin4objeE@Base 0.14.0
 _ZTSN6build23bin4objsE@Base 0.14.0
 _ZTSN6build23bin4objxE@Base 0.14.0
 _ZTSN6build23bin5hbmiaE@Base 0.14.0
 _ZTSN6build23bin5hbmieE@Base 0.14.0
 _ZTSN6build23bin5hbmisE@Base 0.14.0
 _ZTSN6build23bin5hbmixE@Base 0.14.0
 _ZTSN6build23bin5libuaE@Base 0.14.0
 _ZTSN6build23bin5libueE@Base 0.14.0
 _ZTSN6build23bin5libulE@Base 0.14.0
 _ZTSN6build23bin5libusE@Base 0.14.0
 _ZTSN6build23bin5libuxE@Base 0.14.0
 _ZTSN6build23bin8def_ruleE@Base 0.14.0
 _ZTSN6build23bin8lib_ruleE@Base 0.14.0
 _ZTSN6build23bin8obj_ruleE@Base 0.14.0
 _ZTSN6build24fileE@Base 0.14.0
 _ZTSN6build25aliasE@Base 0.14.0
 _ZTSN6build26failedE@Base 0.14.0
 _ZTSPFN6build212target_stateENS_6actionERKNS_6targetEE@Base 0.14.0
 _ZTSZN6build226match_prerequisite_membersENS_6actionERNS_6targetERKSt8functionIFNS_19prerequisite_targetES0_RKS1_RKNS_19prerequisite_memberENS_12include_typeEEEEUlS0_S6_RKNS_12prerequisiteESA_E_@Base 0.14.0
 _ZTVN4butl17invalid_path_baseE@Base 0.14.0
 _ZTVN4butl18invalid_basic_pathIcEE@Base 0.14.0
 _ZTVN6build211path_targetE@Base 0.14.0
 _ZTVN6build212mtime_targetE@Base 0.14.0
 _ZTVN6build23bin10libul_ruleE@Base 0.14.0
 _ZTVN6build23bin3bmiE@Base 0.14.0
 _ZTVN6build23bin3defE@Base 0.14.0
 _ZTVN6build23bin3libE@Base 0.14.0
 _ZTVN6build23bin3objE@Base 0.14.0
 _ZTVN6build23bin4bmiaE@Base 0.14.0
 _ZTVN6build23bin4bmieE@Base 0.14.0
 _ZTVN6build23bin4bmisE@Base 0.14.0
 _ZTVN6build23bin4hbmiE@Base 0.14.0
 _ZTVN6build23bin4libaE@Base 0.14.0
 _ZTVN6build23bin4libiE@Base 0.14.0
 _ZTVN6build23bin4libsE@Base 0.14.0
 _ZTVN6build23bin4objaE@Base 0.14.0
 _ZTVN6build23bin4objeE@Base 0.14.0
 _ZTVN6build23bin4objsE@Base 0.14.0
 _ZTVN6build23bin5hbmiaE@Base 0.14.0
 _ZTVN6build23bin5hbmieE@Base 0.14.0
 _ZTVN6build23bin5hbmisE@Base 0.14.0
 _ZTVN6build23bin5libuaE@Base 0.14.0
 _ZTVN6build23bin5libueE@Base 0.14.0
 _ZTVN6build23bin5libulE@Base 0.14.0
 _ZTVN6build23bin5libusE@Base 0.14.0
 _ZTVN6build23bin8def_ruleE@Base 0.14.0
 _ZTVN6build23bin8lib_ruleE@Base 0.14.0
 _ZTVN6build23bin8obj_ruleE@Base 0.14.0
 _ZTVN6build26failedE@Base 0.14.0
 _ZZN6build215trace_mark_baseC4EPKcS2_PKvENUlvE_4_FUNEv@Base 0.14.0
 build2_bin_load@Base 0.14.0
libbuild2-c-0.14-0.14.so libbuild2-staged-0.14 #MINVER#
* Build-Depends-Package: build2-staged-dev
 (optional=templinst)_ZN6build213variable_pool6insertINSt7__cxx1112basic_stringIcSt11char_traitsIcESaIcEEEEERKNS_8variableES7_@Base 0.14.0
 _ZN6build21c10guess_initERNS_5scopeES2_RKNS_8locationEbbRNS_17module_init_extraE@Base 0.14.0
 _ZN6build21c11config_initERNS_5scopeES2_RKNS_8locationEbbRNS_17module_init_extraE@Base 0.14.0
 _ZN6build21c13config_moduleD0Ev@Base 0.14.0
 _ZN6build21c13config_moduleD1Ev@Base 0.14.0
 _ZN6build21c13config_moduleD2Ev@Base 0.14.0
 _ZN6build21c4initERNS_5scopeES2_RKNS_8locationEbbRNS_17module_init_extraE@Base 0.14.0
 _ZN6build22cc6moduleD0Ev@Base 0.14.0
 _ZN6build22cc6moduleD1Ev@Base 0.14.0
 _ZN6build26moduleD0Ev@Base 0.14.0
 _ZN6build26moduleD1Ev@Base 0.14.0
 _ZN6build26moduleD2Ev@Base 0.14.0
 _ZNK6build213variable_poolixERKNSt7__cxx1112basic_stringIcSt11char_traitsIcESaIcEEE@Base 0.14.0
 _ZNK6build21c13config_module13translate_stdERKNS_2cc13compiler_infoERKN4butl14target_tripletERNS_5scopeERSt6vectorINSt7__cxx1112basic_stringIcSt11char_traitsIcESaIcEEESaISI_EEPKSI_@Base 0.14.0
 (optional=templinst)_ZNKSt7__cxx1112basic_stringIcSt11char_traitsIcESaIcEE7compareEPKc@Base 0.14.0
 (optional=templinst)_ZNSt15_Sp_counted_ptrIPN6build21c13config_moduleELN9__gnu_cxx12_Lock_policyE2EE10_M_destroyEv@Base 0.14.0
 (optional=templinst)_ZNSt15_Sp_counted_ptrIPN6build21c13config_moduleELN9__gnu_cxx12_Lock_policyE2EE10_M_disposeEv@Base 0.14.0
 (optional=templinst)_ZNSt15_Sp_counted_ptrIPN6build21c13config_moduleELN9__gnu_cxx12_Lock_policyE2EE14_M_get_deleterERKSt9type_info@Base 0.14.0
 (optional=templinst)_ZNSt15_Sp_counted_ptrIPN6build21c13config_moduleELN9__gnu_cxx12_Lock_policyE2EED0Ev@Base 0.14.0
 (optional=templinst)_ZNSt15_Sp_counted_ptrIPN6build21c13config_moduleELN9__gnu_cxx12_Lock_policyE2EED1Ev@Base 0.14.0
 (optional=templinst)_ZNSt15_Sp_counted_ptrIPN6build21c13config_moduleELN9__gnu_cxx12_Lock_policyE2EED2Ev@Base 0.14.0
 (optional=templinst)_ZNSt15_Sp_counted_ptrIPN6build22cc6moduleELN9__gnu_cxx12_Lock_policyE2EE10_M_destroyEv@Base 0.14.0
 (optional=templinst)_ZNSt15_Sp_counted_ptrIPN6build22cc6moduleELN9__gnu_cxx12_Lock_policyE2EE10_M_disposeEv@Base 0.14.0
 (optional=templinst)_ZNSt15_Sp_counted_ptrIPN6build22cc6moduleELN9__gnu_cxx12_Lock_policyE2EE14_M_get_deleterERKSt9type_info@Base 0.14.0
 (optional=templinst)_ZNSt15_Sp_counted_ptrIPN6build22cc6moduleELN9__gnu_cxx12_Lock_policyE2EED0Ev@Base 0.14.0
 (optional=templinst)_ZNSt15_Sp_counted_ptrIPN6build22cc6moduleELN9__gnu_cxx12_Lock_policyE2EED1Ev@Base 0.14.0
 (optional=templinst)_ZNSt15_Sp_counted_ptrIPN6build22cc6moduleELN9__gnu_cxx12_Lock_policyE2EED2Ev@Base 0.14.0
 (optional=templinst)_ZNSt6vectorINSt7__cxx1112basic_stringIcSt11char_traitsIcESaIcEEESaIS5_EE17_M_realloc_insertIJS5_EEEvN9__gnu_cxx17__normal_iteratorIPS5_S7_EEDpOT_@Base 0.14.0
 (optional=templinst)_ZNSt7__cxx1112basic_stringIcSt11char_traitsIcESaIcEE9_M_appendEPKcm@Base 0.14.0
 (optional=templinst)_ZNSt7__cxx1112basic_stringIcSt11char_traitsIcESaIcEE9_M_createERmm@Base 0.14.0
 (optional=templinst)_ZNSt7__cxx1115basic_stringbufIcSt11char_traitsIcESaIcEED0Ev@Base 0.14.0
 (optional=templinst)_ZNSt7__cxx1115basic_stringbufIcSt11char_traitsIcESaIcEED1Ev@Base 0.14.0
 (optional=templinst)_ZNSt7__cxx1115basic_stringbufIcSt11char_traitsIcESaIcEED2Ev@Base 0.14.0
 _ZTIN6build21c13config_moduleE@Base 0.14.0
 _ZTIN6build22cc11config_dataE@Base 0.14.0
 _ZTIN6build22cc13config_moduleE@Base 0.14.0
 _ZTIN6build22cc4dataE@Base 0.14.0
 _ZTIN6build22cc6commonE@Base 0.14.0
 _ZTIN6build22cc6moduleE@Base 0.14.0
 _ZTIN6build26moduleE@Base 0.14.0
 _ZTISt11_Mutex_baseILN9__gnu_cxx12_Lock_policyE2EE@Base 0.14.0
 _ZTISt15_Sp_counted_ptrIPN6build21c13config_moduleELN9__gnu_cxx12_Lock_policyE2EE@Base 0.14.0
 _ZTISt15_Sp_counted_ptrIPN6build22cc6moduleELN9__gnu_cxx12_Lock_policyE2EE@Base 0.14.0
 _ZTISt16_Sp_counted_baseILN9__gnu_cxx12_Lock_policyE2EE@Base 0.14.0
 _ZTSN6build21c13config_moduleE@Base 0.14.0
 _ZTSN6build22cc11config_dataE@Base 0.14.0
 _ZTSN6build22cc13config_moduleE@Base 0.14.0
 _ZTSN6build22cc4dataE@Base 0.14.0
 _ZTSN6build22cc6commonE@Base 0.14.0
 _ZTSN6build22cc6moduleE@Base 0.14.0
 _ZTSN6build26moduleE@Base 0.14.0
 _ZTSSt11_Mutex_baseILN9__gnu_cxx12_Lock_policyE2EE@Base 0.14.0
 _ZTSSt15_Sp_counted_ptrIPN6build21c13config_moduleELN9__gnu_cxx12_Lock_policyE2EE@Base 0.14.0
 _ZTSSt15_Sp_counted_ptrIPN6build22cc6moduleELN9__gnu_cxx12_Lock_policyE2EE@Base 0.14.0
 _ZTSSt16_Sp_counted_baseILN9__gnu_cxx12_Lock_policyE2EE@Base 0.14.0
 _ZTTN6build22cc6moduleE@Base 0.14.0
 _ZTVN6build21c13config_moduleE@Base 0.14.0
 _ZTVN6build22cc13config_moduleE@Base 0.14.0
 _ZTVN6build22cc6moduleE@Base 0.14.0
 _ZTVN6build26moduleE@Base 0.14.0
 _ZTVSt15_Sp_counted_ptrIPN6build21c13config_moduleELN9__gnu_cxx12_Lock_policyE2EE@Base 0.14.0
 _ZTVSt15_Sp_counted_ptrIPN6build22cc6moduleELN9__gnu_cxx12_Lock_policyE2EE@Base 0.14.0
 _ZZN6build215trace_mark_baseC4EPKcS2_PKvENUlvE_4_FUNEv@Base 0.14.0
 build2_c_load@Base 0.14.0
 (c++)"non-virtual thunk to build2::cc::module::~module()@Base" 0.14.0
libbuild2-cc-0.14-0.14.so libbuild2-staged-0.14 #MINVER#
* Build-Depends-Package: build2-staged-dev
 (optional=templinst)_ZN4butl10basic_pathIcNS_13any_path_kindIcEEE12combine_implEPKcm@Base 0.14.0
 (optional=templinst)_ZN4butl10basic_pathIcNS_13any_path_kindIcEEE9normalizeEbb@Base 0.14.0
 (optional=templinst)_ZN4butl10basic_pathIcNS_13dir_path_kindIcEEE12combine_implEPKcm@Base 0.14.0
 (optional=templinst)_ZN4butl10basic_pathIcNS_13dir_path_kindIcEEE9normalizeEbb@Base 0.14.0
 (optional=templinst)_ZN4butl10basic_pathIcNS_13dir_path_kindIcEEEC1EPKc@Base 0.14.0
 (optional=templinst)_ZN4butl10basic_pathIcNS_13dir_path_kindIcEEEC2EPKc@Base 0.14.0
 (optional=templinst)_ZN4butl10basic_pathIcNS_13dir_path_kindIcEEED1Ev@Base 0.14.0
 (optional=templinst)_ZN4butl10basic_pathIcNS_13dir_path_kindIcEEED2Ev@Base 0.14.0
 (optional=templinst)_ZN4butl11path_traitsIcE10normalizedEPKcmb@Base 0.14.0
 (optional=templinst)_ZN4butl11path_traitsIcE7compareERKNSt7__cxx1112basic_stringIcSt11char_traitsIcESaIcEEES9_m@Base 0.14.0
 _ZN4butl11process_envD1Ev@Base 0.14.0
 _ZN4butl11process_envD2Ev@Base 0.14.0
 (optional=templinst)_ZN4butl12char_scannerINS_14noop_validatorELm1EE4peekEPNSt7__cxx1112basic_stringIcSt11char_traitsIcESaIcEEE@Base 0.14.0
 _ZN4butl12process_pathD1Ev@Base 0.14.0
 _ZN4butl12process_pathD2Ev@Base 0.14.0
 (optional=templinst)_ZN4butl13any_path_kindIcE4initEONSt7__cxx1112basic_stringIcSt11char_traitsIcESaIcEEEb@Base 0.14.0
 (optional=templinst)_ZN4butl13dir_path_kindIcE4initEONSt7__cxx1112basic_stringIcSt11char_traitsIcESaIcEEEb@Base 0.14.0
 _ZN4butl14target_tripletD1Ev@Base 0.14.0
 _ZN4butl14target_tripletD2Ev@Base 0.14.0
 _ZN4butl17invalid_path_baseD0Ev@Base 0.14.0
 _ZN4butl17invalid_path_baseD1Ev@Base 0.14.0
 _ZN4butl17invalid_path_baseD2Ev@Base 0.14.0
 (optional=templinst)_ZN4butl17prefix_map_commonISt3mapINS_10basic_pathIcNS_13any_path_kindIcEEEENS2_IcNS_13dir_path_kindIcEEEENS_14compare_prefixIS5_EESaISt4pairIKS5_S8_EEEE8find_supERSC_@Base 0.14.0
 (optional=templinst)_ZN4butl17prefix_map_commonISt3mapINS_10basic_pathIcNS_13dir_path_kindIcEEEEN6build22cc12compile_rule12prefix_valueENS_14compare_prefixIS5_EESaISt4pairIKS5_S9_EEEE8find_supERSD_@Base 0.14.0
 (optional=templinst)_ZN4butl18invalid_basic_pathIcEC1EPKcm@Base 0.14.0
 (optional=templinst)_ZN4butl18invalid_basic_pathIcEC1ERKNSt7__cxx1112basic_stringIcSt11char_traitsIcESaIcEEE@Base 0.14.0
 (optional=templinst)_ZN4butl18invalid_basic_pathIcEC2EPKcm@Base 0.14.0
 (optional=templinst)_ZN4butl18invalid_basic_pathIcEC2ERKNSt7__cxx1112basic_stringIcSt11char_traitsIcESaIcEEE@Base 0.14.0
 (optional=templinst)_ZN4butl18invalid_basic_pathIcED0Ev@Base 0.14.0
 (optional=templinst)_ZN4butl18invalid_basic_pathIcED1Ev@Base 0.14.0
 (optional=templinst)_ZN4butl18invalid_basic_pathIcED2Ev@Base 0.14.0
 (optional=templinst)_ZN4butl21basic_path_name_valueINS_10basic_pathIcNS_13any_path_kindIcEEEEED1Ev@Base 0.14.0
 (optional=templinst)_ZN4butl21basic_path_name_valueINS_10basic_pathIcNS_13any_path_kindIcEEEEED2Ev@Base 0.14.0
 _ZN4butl5fdbufD0Ev@Base 0.14.0
 _ZN4butl5fdbufD1Ev@Base 0.14.0
 _ZN4butl5fdbufD2Ev@Base 0.14.0
 (optional=templinst)_ZN4butl7auto_rmINS_10basic_pathIcNS_13any_path_kindIcEEEEED1Ev@Base 0.14.0
 (optional=templinst)_ZN4butl7auto_rmINS_10basic_pathIcNS_13any_path_kindIcEEEEED2Ev@Base 0.14.0
 _ZN4butl7processD1Ev@Base 0.14.0
 _ZN4butl7processD2Ev@Base 0.14.0
 _ZN4butl9ifdstreamC1EONS_7auto_fdENS_13fdstream_modeESt12_Ios_Iostatem@Base 0.14.0
 (optional=templinst)_ZN4butldvIcEENS_10basic_pathIT_NS_13any_path_kindIS2_EEEERKNS1_IS2_NS_13dir_path_kindIS2_EEEERKS5_@Base 0.14.0
 (optional=templinst)_ZN4butldvIcNS_13dir_path_kindIcEEEENS_10basic_pathIT_T0_EERKS6_S8_@Base 0.14.0
 _ZN4butllsERKNS_11diag_recordERKNS_9diag_markIN6build215basic_mark_baseEEE@Base 0.14.0
 (optional=templinst)_ZN4butlplIcNS_13any_path_kindIcEEEENS_10basic_pathIT_T0_EERKS6_PKS4_@Base 0.14.0
 (optional=templinst)_ZN6build210cast_falseIbEET_RKNS_6lookupE@Base 0.14.0
 _ZN6build210file_cache4readD1Ev@Base 0.14.0
 _ZN6build210file_cache4readD2Ev@Base 0.14.0
 _ZN6build210file_cache5entryC1EOS1_@Base 0.14.0
 _ZN6build210file_cache5entryC2EOS1_@Base 0.14.0
 _ZN6build210file_cache5entryD1Ev@Base 0.14.0
 _ZN6build210file_cache5entryD2Ev@Base 0.14.0
 _ZN6build210file_cache5entryaSEOS1_@Base 0.14.0
 _ZN6build210wait_guard4waitEv@Base 0.14.0
 _ZN6build211target_lock6unlockEv@Base 0.14.0
 (optional=templinst)_ZN6build212global_cacheINS_2cc11search_dirsEED1Ev@Base 0.14.0
 (optional=templinst)_ZN6build212global_cacheINS_2cc11search_dirsEED2Ev@Base 0.14.0
 (optional=templinst)_ZN6build212global_cacheINS_2cc13compiler_infoEED1Ev@Base 0.14.0
 (optional=templinst)_ZN6build212global_cacheINS_2cc13compiler_infoEED2Ev@Base 0.14.0
 _ZN6build212prerequisiteC1ERKS0_St12memory_order@Base 0.14.0
 _ZN6build212prerequisiteC2ERKS0_St12memory_order@Base 0.14.0
 _ZN6build212prerequisiteD1Ev@Base 0.14.0
 _ZN6build212prerequisiteD2Ev@Base 0.14.0
 _ZN6build213function_argsIJN4butl12small_vectorINS_4nameELm1EEEEE5typesE@Base 0.14.0
 _ZN6build213function_argsIJN4butl12small_vectorINS_4nameELm1EEES4_EE5typesE@Base 0.14.0
 _ZN6build213function_argsIJN4butl12small_vectorINS_4nameELm1EEES4_St8optionalIS4_ES6_EE5typesE@Base 0.14.0
 _ZN6build213resolve_groupENS_6actionERKNS_6targetE@Base 0.14.0
 (optional=templinst)_ZN6build214target_factoryINS_2cc1cEEEPNS_6targetERNS_7contextERKNS_11target_typeEN4butl10basic_pathIcNSA_13dir_path_kindIcEEEESE_NSt7__cxx1112basic_stringIcSt11char_traitsIcESaIcEEE@Base 0.14.0
 (optional=templinst)_ZN6build214target_factoryINS_2cc1hEEEPNS_6targetERNS_7contextERKNS_11target_typeEN4butl10basic_pathIcNSA_13dir_path_kindIcEEEESE_NSt7__cxx1112basic_stringIcSt11char_traitsIcESaIcEEE@Base 0.14.0
 (optional=templinst)_ZN6build214target_factoryINS_2cc2pcEEEPNS_6targetERNS_7contextERKNS_11target_typeEN4butl10basic_pathIcNSA_13dir_path_kindIcEEEESE_NSt7__cxx1112basic_stringIcSt11char_traitsIcESaIcEEE@Base 0.14.0
 (optional=templinst)_ZN6build214target_factoryINS_2cc3pcaEEEPNS_6targetERNS_7contextERKNS_11target_typeEN4butl10basic_pathIcNSA_13dir_path_kindIcEEEESE_NSt7__cxx1112basic_stringIcSt11char_traitsIcESaIcEEE@Base 0.14.0
 (optional=templinst)_ZN6build214target_factoryINS_2cc3pcsEEEPNS_6targetERNS_7contextERKNS_11target_typeEN4butl10basic_pathIcNSA_13dir_path_kindIcEEEESE_NSt7__cxx1112basic_stringIcSt11char_traitsIcESaIcEEE@Base 0.14.0
 _ZN6build215process_path_exD1Ev@Base 0.14.0
 _ZN6build215process_path_exD2Ev@Base 0.14.0
 _ZN6build215stream_verb_mapEv@Base 0.14.0
 _ZN6build216add_adhoc_memberERNS_6targetERKNS_11target_typeEPKc@Base 0.14.0
 (optional=templinst)_ZN6build218target_pattern_fixIXadL_ZNS_2cc6pc_extEEEEEbRKNS_11target_typeERKNS_5scopeERNSt7__cxx1112basic_stringIcSt11char_traitsIcESaIcEEERSt8optionalISD_ERKNS_8locationEb@Base 0.14.0
 (optional=templinst)_ZN6build218target_pattern_fixIXadL_ZNS_2cc7pca_extEEEEEbRKNS_11target_typeERKNS_5scopeERNSt7__cxx1112basic_stringIcSt11char_traitsIcESaIcEEERSt8optionalISD_ERKNS_8locationEb@Base 0.14.0
 (optional=templinst)_ZN6build218target_pattern_fixIXadL_ZNS_2cc7pcs_extEEEEEbRKNS_11target_typeERKNS_5scopeERNSt7__cxx1112basic_stringIcSt11char_traitsIcESaIcEEERSt8optionalISD_ERKNS_8locationEb@Base 0.14.0
 (optional=templinst)_ZN6build218target_pattern_varIXadL_ZNS_2cc9c_ext_defEEEEEbRKNS_11target_typeERKNS_5scopeERNSt7__cxx1112basic_stringIcSt11char_traitsIcESaIcEEERSt8optionalISD_ERKNS_8locationEb@Base 0.14.0
 (optional=templinst)_ZN6build218target_pattern_varIXadL_ZNS_2cc9h_ext_defEEEEEbRKNS_11target_typeERKNS_5scopeERNSt7__cxx1112basic_stringIcSt11char_traitsIcESaIcEEERSt8optionalISD_ERKNS_8locationEb@Base 0.14.0
 _ZN6build219group_prerequisitesC1ERKNS_6targetE@Base 0.14.0
 _ZN6build219group_prerequisitesC2ERKNS_6targetE@Base 0.14.0
 (optional=templinst)_ZN6build220target_extension_fixIXadL_ZNS_2cc6pc_extEEEEEPKcRKNS_10target_keyEPKNS_5scopeE@Base 0.14.0
 (optional=templinst)_ZN6build220target_extension_fixIXadL_ZNS_2cc7pca_extEEEEEPKcRKNS_10target_keyEPKNS_5scopeE@Base 0.14.0
 (optional=templinst)_ZN6build220target_extension_fixIXadL_ZNS_2cc7pcs_extEEEEEPKcRKNS_10target_keyEPKNS_5scopeE@Base 0.14.0
 (optional=templinst)_ZN6build220target_extension_varIXadL_ZNS_2cc9c_ext_defEEEEESt8optionalINSt7__cxx1112basic_stringIcSt11char_traitsIcESaIcEEEERKNS_10target_keyERKNS_5scopeEPKcb@Base 0.14.0
 (optional=templinst)_ZN6build220target_extension_varIXadL_ZNS_2cc9h_ext_defEEEEESt8optionalINSt7__cxx1112basic_stringIcSt11char_traitsIcESaIcEEEERKNS_10target_keyERKNS_5scopeEPKcb@Base 0.14.0
 _ZN6build220variable_pattern_map7patternD1Ev@Base 0.14.0
 _ZN6build220variable_pattern_map7patternD2Ev@Base 0.14.0
 _ZN6build225target_extension_var_implERKNS_11target_typeERKNSt7__cxx1112basic_stringIcSt11char_traitsIcESaIcEEERKNS_5scopeEPKc@Base 0.14.0
 (optional=templinst)_ZN6build226prerequisite_members_rangeIN4butl13reverse_rangeINS_19group_prerequisitesEEEE8iterator11switch_modeEv@Base 0.14.0
 (optional=templinst)_ZN6build226prerequisite_members_rangeIN4butl13reverse_rangeINS_19group_prerequisitesEEEE8iteratorC1EPKS5_RKSt16reverse_iteratorINS3_8iteratorEE@Base 0.14.0
 (optional=templinst)_ZN6build226prerequisite_members_rangeIN4butl13reverse_rangeINS_19group_prerequisitesEEEE8iteratorC2EPKS5_RKSt16reverse_iteratorINS3_8iteratorEE@Base 0.14.0
 (optional=templinst)_ZN6build226prerequisite_members_rangeINS_19group_prerequisitesEE8iterator11switch_modeEv@Base 0.14.0
 (optional=templinst)_ZN6build226prerequisite_members_rangeINS_19group_prerequisitesEE8iteratorC1EPKS2_RKNS1_8iteratorE@Base 0.14.0
 (optional=templinst)_ZN6build226prerequisite_members_rangeINS_19group_prerequisitesEE8iteratorC2EPKS2_RKNS1_8iteratorE@Base 0.14.0
 (optional=templinst)_ZN6build226prerequisite_members_rangeINS_19group_prerequisitesEE8iteratorppEv@Base 0.14.0
 _ZN6build22cc10module_dirE@Base 0.14.0
 _ZN6build22cc11compiler_idC1ERKNSt7__cxx1112basic_stringIcSt11char_traitsIcESaIcEEE@Base 0.14.0
 _ZN6build22cc11compiler_idC2ERKNSt7__cxx1112basic_stringIcSt11char_traitsIcESaIcEEE@Base 0.14.0
 _ZN6build22cc11config_initERNS_5scopeES2_RKNS_8locationEbbRNS_17module_init_extraE@Base 0.14.0
 _ZN6build22cc11module_infoD1Ev@Base 0.14.0
 _ZN6build22cc11module_infoD2Ev@Base 0.14.0
 _ZN6build22cc12compile_rule9functionsERNS_15function_familyEPKc@Base 0.14.0
 _ZN6build22cc12compile_ruleC1EONS0_4dataE@Base 0.14.0
 _ZN6build22cc12compile_ruleC2EONS0_4dataE@Base 0.14.0
 _ZN6build22cc12compile_ruleD0Ev@Base 0.14.0
 _ZN6build22cc12compile_ruleD1Ev@Base 0.14.0
 _ZN6build22cc12guess_result17null_info_deleterEPv@Base 0.14.0
 _ZN6build22cc12guess_resultC1ENS0_11compiler_idEONSt7__cxx1112basic_stringIcSt11char_traitsIcESaIcEEES9_@Base 0.14.0
 _ZN6build22cc12guess_resultC2ENS0_11compiler_idEONSt7__cxx1112basic_stringIcSt11char_traitsIcESaIcEEES9_@Base 0.14.0
 _ZN6build22cc12guess_resultD1Ev@Base 0.14.0
 _ZN6build22cc12guess_resultD2Ev@Base 0.14.0
 _ZN6build22cc12guess_resultaSEOS1_@Base 0.14.0
 _ZN6build22cc12install_ruleC1EONS0_4dataERKNS0_9link_ruleE@Base 0.14.0
 _ZN6build22cc12install_ruleC2EONS0_4dataERKNS0_9link_ruleE@Base 0.14.0
 _ZN6build22cc12install_ruleD0Ev@Base 0.14.0
 _ZN6build22cc12install_ruleD1Ev@Base 0.14.0
 _ZN6build22cc12msvc_machineERKNSt7__cxx1112basic_stringIcSt11char_traitsIcESaIcEEE@Base 0.14.0
 _ZN6build22cc13compiler_infoC1EOS1_@Base 0.14.0
 _ZN6build22cc13compiler_infoC2EOS1_@Base 0.14.0
 _ZN6build22cc13compiler_infoD1Ev@Base 0.14.0
 _ZN6build22cc13compiler_infoD2Ev@Base 0.14.0
 _ZN6build22cc13config_module4initERNS_5scopeERKNS_8locationERKNS_12variable_mapE@Base 0.14.0
 _ZN6build22cc13config_module5guessERNS_5scopeERKNS_8locationERKNS_12variable_mapE@Base 0.14.0
 _ZN6build22cc13guess_defaultENS0_4langERKNSt7__cxx1112basic_stringIcSt11char_traitsIcESaIcEEES9_RKSt6vectorIS7_SaIS7_EE@Base 0.14.0
 _ZN6build22cc14core_vars_initERNS_5scopeES2_RKNS_8locationEbbRNS_17module_init_extraE@Base 0.14.0
 _ZN6build22cc14msvc_filter_clERN4butl9ifdstreamERKNS1_10basic_pathIcNS1_13any_path_kindIcEEEE@Base 0.14.0
 _ZN6build22cc15clang_msvc_infoD1Ev@Base 0.14.0
 _ZN6build22cc15clang_msvc_infoD2Ev@Base 0.14.0
 _ZN6build22cc15core_guess_initERNS_5scopeES2_RKNS_8locationEbbRNS_17module_init_extraE@Base 0.14.0
 _ZN6build22cc15msvc_sense_diagERKNSt7__cxx1112basic_stringIcSt11char_traitsIcESaIcEEEc@Base 0.14.0
 _ZN6build22cc15to_preprocessedERKNSt7__cxx1112basic_stringIcSt11char_traitsIcESaIcEEE@Base 0.14.0
 _ZN6build22cc16compiler_versionD1Ev@Base 0.14.0
 _ZN6build22cc16compiler_versionD2Ev@Base 0.14.0
 _ZN6build22cc16core_config_initERNS_5scopeES2_RKNS_8locationEbbRNS_17module_init_extraE@Base 0.14.0
 _ZN6build22cc16header_group_allB5cxx11E@Base 0.14.0
 _ZN6build22cc16header_group_stdB5cxx11E@Base 0.14.0
 _ZN6build22cc16module_build_dirE@Base 0.14.0
 _ZN6build22cc16msvc_filter_linkERN4butl9ifdstreamERKNS_4fileENS_3bin5otypeE@Base 0.14.0
 _ZN6build22cc16msvc_sanitize_clERSt6vectorIPKcSaIS3_EE@Base 0.14.0
 _ZN6build22cc16normalize_headerERN4butl10basic_pathIcNS1_13any_path_kindIcEEEE@Base 0.14.0
 _ZN6build22cc18importable_headers12insert_angleEN4butl10basic_pathIcNS2_13any_path_kindIcEEEERKNSt7__cxx1112basic_stringIcSt11char_traitsIcESaIcEEE@Base 0.14.0
 _ZN6build22cc18importable_headers12insert_angleERKSt6vectorIN4butl10basic_pathIcNS3_13dir_path_kindIcEEEESaIS7_EERKNSt7__cxx1112basic_stringIcSt11char_traitsIcESaIcEEE@Base 0.14.0
 _ZN6build22cc18importable_headers20insert_angle_patternERKSt6vectorIN4butl10basic_pathIcNS3_13dir_path_kindIcEEEESaIS7_EERKNSt7__cxx1112basic_stringIcSt11char_traitsIcESaIcEEE@Base 0.14.0
 _ZN6build22cc18libux_install_ruleC1EONS0_4dataERKNS0_9link_ruleE@Base 0.14.0
 _ZN6build22cc18libux_install_ruleC2EONS0_4dataERKNS0_9link_ruleE@Base 0.14.0
 _ZN6build22cc18libux_install_ruleD0Ev@Base 0.14.0
 _ZN6build22cc18libux_install_ruleD1Ev@Base 0.14.0
 _ZN6build22cc1c11static_typeE@Base 0.14.0
 _ZN6build22cc1cD0Ev@Base 0.14.0
 _ZN6build22cc1cD1Ev@Base 0.14.0
 _ZN6build22cc1cD2Ev@Base 0.14.0
 _ZN6build22cc1h11static_typeE@Base 0.14.0
 _ZN6build22cc1hD0Ev@Base 0.14.0
 _ZN6build22cc1hD1Ev@Base 0.14.0
 _ZN6build22cc1hD2Ev@Base 0.14.0
 _ZN6build22cc21windows_manifest_archERKNSt7__cxx1112basic_stringIcSt11char_traitsIcESaIcEEE@Base 0.14.0
 _ZN6build22cc24module_build_modules_dirE@Base 0.14.0
 _ZN6build22cc27header_group_all_importableB5cxx11E@Base 0.14.0
 _ZN6build22cc27header_group_std_importableB5cxx11E@Base 0.14.0
 _ZN6build22cc28guess_std_importable_headersERKNS0_13compiler_infoERKSt6vectorIN4butl10basic_pathIcNS5_13dir_path_kindIcEEEESaIS9_EERNS0_18importable_headersE@Base 0.14.0
 _ZN6build22cc2cc11static_typeE@Base 0.14.0
 _ZN6build22cc2pc11static_typeE@Base 0.14.0
 _ZN6build22cc2pcD0Ev@Base 0.14.0
 _ZN6build22cc2pcD1Ev@Base 0.14.0
 _ZN6build22cc2pcD2Ev@Base 0.14.0
 _ZN6build22cc31gcc_extract_library_search_dirsERKSt6vectorINSt7__cxx1112basic_stringIcSt11char_traitsIcESaIcEEESaIS7_EERS1_IN4butl10basic_pathIcNSC_13dir_path_kindIcEEEESaISG_EE@Base 0.14.0
 _ZN6build22cc31msvc_extract_header_search_dirsERKSt6vectorINSt7__cxx1112basic_stringIcSt11char_traitsIcESaIcEEESaIS7_EERS1_IN4butl10basic_pathIcNSC_13dir_path_kindIcEEEESaISG_EE@Base 0.14.0
 _ZN6build22cc32msvc_extract_library_search_dirsERKSt6vectorINSt7__cxx1112basic_stringIcSt11char_traitsIcESaIcEEESaIS7_EERS1_IN4butl10basic_pathIcNSC_13dir_path_kindIcEEEESaISG_EE@Base 0.14.0
 _ZN6build22cc3pca11static_typeE@Base 0.14.0
 _ZN6build22cc3pcaD0Ev@Base 0.14.0
 _ZN6build22cc3pcaD1Ev@Base 0.14.0
 _ZN6build22cc3pcaD2Ev@Base 0.14.0
 _ZN6build22cc3pcs11static_typeE@Base 0.14.0
 _ZN6build22cc3pcsD0Ev@Base 0.14.0
 _ZN6build22cc3pcsD1Ev@Base 0.14.0
 _ZN6build22cc3pcsD2Ev@Base 0.14.0
 _ZN6build22cc4initERNS_5scopeES2_RKNS_8locationEbbRNS_17module_init_extraE@Base 0.14.0
 _ZN6build22cc5guessEPKcNS0_4langERKNSt7__cxx1112basic_stringIcSt11char_traitsIcESaIcEEERKN4butl10basic_pathIcNSC_13any_path_kindIcEEEEPSA_SJ_SJ_RKSt6vectorIS9_SaIS9_EEPSN_SP_SP_SP_SP_SP_@Base 0.14.0
 _ZN6build22cc5lexer11skip_spacesEb@Base 0.14.0
 _ZN6build22cc5lexer12char_literalERNS0_5tokenEN4butl12char_scannerINS4_14noop_validatorELm1EE5xcharE@Base 0.14.0
 _ZN6build22cc5lexer14line_directiveERNS0_5tokenEN4butl12char_scannerINS4_14noop_validatorELm1EE5xcharE@Base 0.14.0
 _ZN6build22cc5lexer14literal_suffixEN4butl12char_scannerINS2_14noop_validatorELm1EE5xcharE@Base 0.14.0
 _ZN6build22cc5lexer14number_literalERNS0_5tokenEN4butl12char_scannerINS4_14noop_validatorELm1EE5xcharE@Base 0.14.0
 _ZN6build22cc5lexer14string_literalERNS0_5tokenEN4butl12char_scannerINS4_14noop_validatorELm1EE5xcharE@Base 0.14.0
 _ZN6build22cc5lexer18raw_string_literalERNS0_5tokenEN4butl12char_scannerINS4_14noop_validatorELm1EE5xcharE@Base 0.14.0
 _ZN6build22cc5lexer4gethERKN4butl12char_scannerINS2_14noop_validatorELm1EE5xcharE@Base 0.14.0
 _ZN6build22cc5lexer4nextERNS0_5tokenESt4pairIN4butl12char_scannerINS5_14noop_validatorELm1EE5xcharEbEb@Base 0.14.0
 _ZN6build22cc5lexer4peekEb@Base 0.14.0
 (optional=templinst)_ZN6build22cc6common14insert_libraryINS_3bin3libEEESt11unique_lockISt12shared_mutexERNS_7contextERPT_NSt7__cxx1112basic_stringIcSt11char_traitsIcESaIcEEEN4butl10basic_pathIcNSJ_13dir_path_kindIcEEEERKNSJ_12process_pathESt8optionalISI_EbRNSJ_9diag_markINS_15trace_mark_baseEEE@Base 0.14.0
 (optional=templinst)_ZN6build22cc6common14insert_libraryINS_3bin4libaEEESt11unique_lockISt12shared_mutexERNS_7contextERPT_NSt7__cxx1112basic_stringIcSt11char_traitsIcESaIcEEEN4butl10basic_pathIcNSJ_13dir_path_kindIcEEEERKNSJ_12process_pathESt8optionalISI_EbRNSJ_9diag_markINS_15trace_mark_baseEEE@Base 0.14.0
 (optional=templinst)_ZN6build22cc6common14insert_libraryINS_3bin4libiEEESt11unique_lockISt12shared_mutexERNS_7contextERPT_NSt7__cxx1112basic_stringIcSt11char_traitsIcESaIcEEEN4butl10basic_pathIcNSJ_13dir_path_kindIcEEEERKNSJ_12process_pathESt8optionalISI_EbRNSJ_9diag_markINS_15trace_mark_baseEEE@Base 0.14.0
 (optional=templinst)_ZN6build22cc6common14insert_libraryINS_3bin4libsEEESt11unique_lockISt12shared_mutexERNS_7contextERPT_NSt7__cxx1112basic_stringIcSt11char_traitsIcESaIcEEEN4butl10basic_pathIcNSJ_13dir_path_kindIcEEEERKNSJ_12process_pathESt8optionalISI_EbRNSJ_9diag_markINS_15trace_mark_baseEEE@Base 0.14.0
 _ZN6build22cc6module4initERNS_5scopeERKNS_8locationERKNS_12variable_mapERKNS0_13compiler_infoE@Base 0.14.0
 _ZN6build22cc6parser12parse_importERNS0_5tokenEb@Base 0.14.0
 _ZN6build22cc6parser12parse_moduleERNS0_5tokenEbNS_14location_valueE@Base 0.14.0
 _ZN6build22cc6parser17parse_header_nameB5cxx11ERNS0_5tokenE@Base 0.14.0
 _ZN6build22cc6parser17parse_module_nameB5cxx11ERNS0_5tokenEb@Base 0.14.0
 _ZN6build22cc6parser17parse_module_partERNS0_5tokenERNSt7__cxx1112basic_stringIcSt11char_traitsIcESaIcEEE@Base 0.14.0
 _ZN6build22cc6parser5parseERN4butl9ifdstreamERKNS2_15basic_path_nameINS2_10basic_pathIcNS2_13any_path_kindIcEEEEEERNS0_4unitE@Base 0.14.0
 _ZN6build22cc6pc_extE@Base 0.14.0
 _ZN6build22cc7pca_extE@Base 0.14.0
 _ZN6build22cc7pcs_extE@Base 0.14.0
 _ZN6build22cc8msvc_cpuERKNSt7__cxx1112basic_stringIcSt11char_traitsIcESaIcEEE@Base 0.14.0
 _ZN6build22cc9c_ext_defE@Base 0.14.0
 _ZN6build22cc9core_initERNS_5scopeES2_RKNS_8locationEbbRNS_17module_init_extraE@Base 0.14.0
 _ZN6build22cc9h_ext_defE@Base 0.14.0
 _ZN6build22cc9link_rule10libs_pathsD1Ev@Base 0.14.0
 _ZN6build22cc9link_rule10libs_pathsD2Ev@Base 0.14.0
 _ZN6build22cc9link_rule9functionsERNS_15function_familyEPKc@Base 0.14.0
 _ZN6build22cc9link_ruleC1EONS0_4dataE@Base 0.14.0
 _ZN6build22cc9link_ruleC2EONS0_4dataE@Base 0.14.0
 _ZN6build22cc9link_ruleD0Ev@Base 0.14.0
 _ZN6build22cc9link_ruleD1Ev@Base 0.14.0
 _ZN6build22cc9to_stringB5cxx11ENS0_13compiler_typeE@Base 0.14.0
 _ZN6build22cc9to_stringB5cxx11ENS0_14compiler_classE@Base 0.14.0
 _ZN6build22cclsERSoRKNS0_5tokenE@Base 0.14.0
 _ZN6build23bin9link_typeERKNS_6targetE@Base 0.14.0
 (optional=templinst)_ZN6build24castIN4butl12process_pathEEERKT_RKNS_5valueE@Base 0.14.0
 (optional=templinst)_ZN6build24castIN4butl14target_tripletEEERKT_RKNS_5valueE@Base 0.14.0
 (optional=templinst)_ZN6build24castINSt7__cxx1112basic_stringIcSt11char_traitsIcESaIcEEEEERKT_RKNS_5valueE@Base 0.14.0
 (optional=templinst)_ZN6build24castISt6vectorINSt7__cxx1112basic_stringIcSt11char_traitsIcESaIcEEESaIS7_EEEERKT_RKNS_5valueE@Base 0.14.0
 (optional=templinst)_ZN6build24castIbEERKT_RKNS_5valueE@Base 0.14.0
 (optional=templinst)_ZN6build24castImEERKT_RKNS_5valueE@Base 0.14.0
 _ZN6build24fileD0Ev@Base 0.14.0
 _ZN6build24fileD1Ev@Base 0.14.0
 _ZN6build24fileD2Ev@Base 0.14.0
 _ZN6build24nameD1Ev@Base 0.14.0
 _ZN6build24nameD2Ev@Base 0.14.0
 _ZN6build25depdb6expectERKNSt7__cxx1112basic_stringIcSt11char_traitsIcESaIcEEE@Base 0.14.0
 _ZN6build25depdbD1Ev@Base 0.14.0
 _ZN6build25depdbD2Ev@Base 0.14.0
 (optional=templinst)_ZN6build25rmdirIN4butl10basic_pathIcNS1_13dir_path_kindIcEEEEEENS_9fs_statusINS1_12rmdir_statusEEERNS_7contextERKS5_RKT_t@Base 0.14.0
 _ZN6build25scope6assignENSt7__cxx1112basic_stringIcSt11char_traitsIcESaIcEEE@Base 0.14.0
 (optional=templinst)_ZN6build25valueaSIN4butl14target_tripletEEERS0_T_@Base 0.14.0
 (optional=templinst)_ZN6build25valueaSINSt7__cxx1112basic_stringIcSt11char_traitsIcESaIcEEEEERS0_T_@Base 0.14.0
 (optional=templinst)_ZN6build26config18lookup_config_implIDnEESt4pairINS_6lookupEbERNS_5scopeERKNS_8variableEOT_mb@Base 0.14.0
 (optional=templinst)_ZN6build26config18lookup_config_implISt6vectorINSt7__cxx1112basic_stringIcSt11char_traitsIcESaIcEEESaIS8_EEEESt4pairINS_6lookupEbERNS_5scopeERKNS_8variableEOT_mb@Base 0.14.0
 _ZN6build26failedD0Ev@Base 0.14.0
 _ZN6build26failedD1Ev@Base 0.14.0
 _ZN6build26failedD2Ev@Base 0.14.0
 _ZN6build26searchERKNS_6targetERKNS_11target_typeERKNS_16prerequisite_keyE@Base 0.14.0
 _ZN6build27convertIN4butl10basic_pathIcNS1_13any_path_kindIcEEEEEEDTclsrNS_12value_traitsIT_EE7convertcl4movecldtfp_L_ZNSt6vectorINS_4nameENS1_15small_allocatorISA_Lm1ENS1_22small_allocator_bufferISA_Lm1EEEEEEixEmELi0EEELDn0EEEONS1_12small_vectorISA_Lm1EEE@Base 0.14.0
 _ZN6build27convertINSt7__cxx1112basic_stringIcSt11char_traitsIcESaIcEEEEEDTclsrNS_12value_traitsIT_EE7convertcl4movecldtfp_L_ZNSt6vectorINS_4nameEN4butl15small_allocatorISB_Lm1ENSC_22small_allocator_bufferISB_Lm1EEEEEEixEmELi0EEELDn0EEEONSC_12small_vectorISB_Lm1EEE@Base 0.14.0
 _ZN6build27convertIbEEDTclsrNS_12value_traitsIT_EE7convertcl4movecldtfp_L_ZNSt6vectorINS_4nameEN4butl15small_allocatorIS5_Lm1ENS6_22small_allocator_bufferIS5_Lm1EEEEEEixEmELi0EEELDn0EEEONS6_12small_vectorIS5_Lm1EEE@Base 0.14.0
 (optional=templinst)_ZN6build27convertIbEET_RKNS_5valueE@Base 0.14.0
 _ZN6build27includeENS_6actionERKNS_6targetERKNS_12prerequisiteEPS2_@Base 0.14.0
 _ZN6build27install12install_pathERNS_5scopeERKNS_11target_typeEN4butl10basic_pathIcNS6_13dir_path_kindIcEEEE@Base 0.14.0
 _ZN6build27pkgconfC1EN4butl10basic_pathIcNS1_13any_path_kindIcEEEERKSt6vectorINS2_IcNS1_13dir_path_kindIcEEEESaIS9_EESD_SD_@Base 0.14.0
 _ZN6build27pkgconfC2EN4butl10basic_pathIcNS1_13any_path_kindIcEEEERKSt6vectorINS2_IcNS1_13dir_path_kindIcEEEESaIS9_EESD_SD_@Base 0.14.0
 _ZN6build27pkgconfD1Ev@Base 0.14.0
 _ZN6build27pkgconfD2Ev@Base 0.14.0
 (optional=templinst)_ZN6build28relativeIN4butl13any_path_kindIcEEEENS1_10basic_pathIcT_EERKS6_@Base 0.14.0
 _ZN6build28rule_map6insertEhhRKNS_11target_typeENSt7__cxx1112basic_stringIcSt11char_traitsIcESaIcEEERKNS_4ruleE@Base 0.14.0
 (optional=templinst)_ZN6build28rule_map6insertINS_3bin4bmisEEEbhNSt7__cxx1112basic_stringIcSt11char_traitsIcESaIcEEERKNS_4ruleE@Base 0.14.0
 (optional=templinst)_ZN6build28rule_map6insertINS_3bin4libaEEEbhNSt7__cxx1112basic_stringIcSt11char_traitsIcESaIcEEERKNS_4ruleE@Base 0.14.0
 (optional=templinst)_ZN6build28rule_map6insertINS_3bin4libsEEEbhNSt7__cxx1112basic_stringIcSt11char_traitsIcESaIcEEERKNS_4ruleE@Base 0.14.0
 (optional=templinst)_ZN6build28rule_map6insertINS_3bin5hbmisEEEbhNSt7__cxx1112basic_stringIcSt11char_traitsIcESaIcEEERKNS_4ruleE@Base 0.14.0
 (optional=templinst)_ZN6build28rule_map6insertINS_3bin5libuaEEEbhNSt7__cxx1112basic_stringIcSt11char_traitsIcESaIcEEERKNS_4ruleE@Base 0.14.0
 (optional=templinst)_ZN6build28rule_map6insertINS_3bin5libueEEEbhNSt7__cxx1112basic_stringIcSt11char_traitsIcESaIcEEERKNS_4ruleE@Base 0.14.0
 (optional=templinst)_ZN6build28rule_map6insertINS_3bin5libusEEEbhNSt7__cxx1112basic_stringIcSt11char_traitsIcESaIcEEERKNS_4ruleE@Base 0.14.0
 (optional=templinst)_ZN6build28rule_map6insertINS_3exeEEEbhNSt7__cxx1112basic_stringIcSt11char_traitsIcESaIcEEERKNS_4ruleE@Base 0.14.0
 _ZN6build2lsERSoRKNS_19prerequisite_memberE@Base 0.14.0
 _ZN6build2lsERSoRKNS_6targetE@Base 0.14.0
 (optional=templinst)_ZN9__gnu_cxx12__to_xstringINSt7__cxx1112basic_stringIcSt11char_traitsIcESaIcEEEcEET_PFiPT0_mPKS8_P13__va_list_tagEmSB_z@Base 0.14.0
 (optional=templinst)_ZN9__gnu_cxx6__stoaIyycJiEEET0_PFT_PKT1_PPS3_DpT2_EPKcS5_PmS9_@Base 0.14.0
 (optional=templinst)_ZNK4butl10basic_pathIcNS_13any_path_kindIcEEE12try_relativeES3_@Base 0.14.0
 (optional=templinst)_ZNK4butl10basic_pathIcNS_13any_path_kindIcEEE4baseEv@Base 0.14.0
 (optional=templinst)_ZNK4butl10basic_pathIcNS_13any_path_kindIcEEE4leafERKS3_@Base 0.14.0
 (optional=templinst)_ZNK4butl10basic_pathIcNS_13any_path_kindIcEEE4leafEv@Base 0.14.0
 (optional=templinst)_ZNK4butl10basic_pathIcNS_13any_path_kindIcEEE9directoryEv@Base 0.14.0
 (optional=templinst)_ZNK4butl10basic_pathIcNS_13dir_path_kindIcEEE12try_relativeES3_@Base 0.14.0
 (optional=templinst)_ZNK4butl10basic_pathIcNS_13dir_path_kindIcEEE3subERKS3_@Base 0.14.0
 (optional=templinst)_ZNK4butl10basic_pathIcNS_13dir_path_kindIcEEE4leafERKS3_@Base 0.14.0
 (optional=templinst)_ZNK4butl10basic_pathIcNS_13dir_path_kindIcEEE9directoryEv@Base 0.14.0
 (optional=templinst)_ZNK4butl13diag_prologueIN6build220simple_prologue_baseEElsINS_10basic_pathIcNS_13any_path_kindIcEEEEEENS_11diag_recordERKT_@Base 0.14.0
 _ZNK4butl13diag_prologueIN6build222location_prologue_baseEElsIA23_cEENS_11diag_recordERKT_@Base 0.14.0
 _ZNK4butl9diag_markIN6build214fail_mark_baseEElsIA16_cEENS_11diag_recordERKT_@Base 0.14.0
 _ZNK4butl9diag_markIN6build214fail_mark_baseEElsIA17_cEENS_11diag_recordERKT_@Base 0.14.0
 _ZNK4butl9diag_markIN6build214fail_mark_baseEElsIA18_cEENS_11diag_recordERKT_@Base 0.14.0
 _ZNK4butl9diag_markIN6build214fail_mark_baseEElsIA19_cEENS_11diag_recordERKT_@Base 0.14.0
 _ZNK4butl9diag_markIN6build214fail_mark_baseEElsIA20_cEENS_11diag_recordERKT_@Base 0.14.0
 _ZNK4butl9diag_markIN6build214fail_mark_baseEElsIA22_cEENS_11diag_recordERKT_@Base 0.14.0
 _ZNK4butl9diag_markIN6build214fail_mark_baseEElsIA33_cEENS_11diag_recordERKT_@Base 0.14.0
 _ZNK4butl9diag_markIN6build214fail_mark_baseEElsIA37_cEENS_11diag_recordERKT_@Base 0.14.0
 _ZNK4butl9diag_markIN6build214fail_mark_baseEElsIA38_cEENS_11diag_recordERKT_@Base 0.14.0
 _ZNK4butl9diag_markIN6build214fail_mark_baseEElsIA41_cEENS_11diag_recordERKT_@Base 0.14.0
 _ZNK4butl9diag_markIN6build214fail_mark_baseEElsIA44_cEENS_11diag_recordERKT_@Base 0.14.0
 (optional=templinst)_ZNK4butl9diag_markIN6build214fail_mark_baseEElsIPKcEENS_11diag_recordERKT_@Base 0.14.0
 _ZNK4butl9diag_markIN6build215basic_mark_baseEElsIA19_cEENS_11diag_recordERKT_@Base 0.14.0
 _ZNK4butl9diag_markIN6build215trace_mark_baseEElsIA25_cEENS_11diag_recordERKT_@Base 0.14.0
 _ZNK6build211path_target4pathEN4butl10basic_pathIcNS1_13any_path_kindIcEEEE@Base 0.14.0
 _ZNK6build22cc11compiler_id6stringB5cxx11Ev@Base 0.14.0
 _ZNK6build22cc12compile_rule10parse_unitB5cxx11ENS_6actionERNS_4fileENS_3bin5linfoERKS3_RNS_10file_cache5entryERKNS1_10match_dataERKN4butl10basic_pathIcNSF_13any_path_kindIcEEEERNS0_4unitE@Base 0.14.0
 (optional=templinst)_ZNK6build22cc12compile_rule12enter_headerENS_6actionERKNS_5scopeERNS_4fileENS_3bin5linfoEON4butl10basic_pathIcNSA_13any_path_kindIcEEEEbbRSt8optionalINSA_15prefix_map_implISt3mapINSB_IcNSA_13dir_path_kindIcEEEENS1_12prefix_valueENSA_14compare_prefixISL_EESaISt4pairIKSL_SM_EEELc47EEEERNSH_ISI_ISE_SL_NSN_ISE_EESaISP_IKSE_SL_EEELc47EEE@Base 0.14.0
 _ZNK6build22cc12compile_rule13inject_headerENS_6actionERNS_4fileERKS3_NSt6chrono10time_pointINS7_3_V212system_clockENS7_8durationIlSt5ratioILl1ELl1000000000EEEEEEb@Base 0.14.0
 _ZNK6build22cc12compile_rule13map_extensionERKNS_5scopeERKNSt7__cxx1112basic_stringIcSt11char_traitsIcESaIcEEESC_@Base 0.14.0
 _ZNK6build22cc12compile_rule13perform_cleanENS_6actionERKNS_6targetE@Base 0.14.0
 _ZNK6build22cc12compile_rule14perform_updateENS_6actionERKNS_6targetE@Base 0.14.0
 _ZNK6build22cc12compile_rule14search_modulesENS_6actionERKNS_5scopeERNS_4fileENS_3bin5linfoERKNS_11target_typeERKS6_RSt6vectorINS0_13module_importESaISG_EERN4butl6sha256E@Base 0.14.0
 (optional=templinst)_ZNK6build22cc12compile_rule15append_prefixesERN4butl15prefix_map_implISt3mapINS2_10basic_pathIcNS2_13dir_path_kindIcEEEENS1_12prefix_valueENS2_14compare_prefixIS8_EESaISt4pairIKS8_S9_EEELc47EEERKNS_6targetERKNS_8variableE@Base 0.14.0
 _ZNK6build22cc12compile_rule15extract_headersENS_6actionERKNS_5scopeERNS_4fileENS_3bin5linfoERKS6_RNS1_10match_dataERNS_5depdbERbNSt6chrono10time_pointINSH_3_V212system_clockENSH_8durationIlSt5ratioILl1ELl1000000000EEEEEERSt6vectorINS0_13module_importESaISR_EE@Base 0.14.0
 _ZNK6build22cc12compile_rule15extract_modulesENS_6actionERKNS_5scopeERNS_4fileENS_3bin5linfoERKNS0_20compile_target_typesERKS6_RNS1_10match_dataEONS0_11module_infoERNS_5depdbERb@Base 0.14.0
 _ZNK6build22cc12compile_rule16build_prefix_mapERKNS_5scopeENS_6actionERNS_6targetENS_3bin5linfoE@Base 0.14.0
 (optional=templinst)_ZNK6build22cc12compile_rule17gcc_module_mapperERNS1_19module_mapper_stateENS_6actionERKNS_5scopeERNS_4fileENS_3bin5linfoERN4butl9ifdstreamERNSC_9ofdstreamERNS_5depdbERbSJ_RSt8optionalINSC_15prefix_map_implISt3mapINSC_10basic_pathIcNSC_13dir_path_kindIcEEEENS1_12prefix_valueENSC_14compare_prefixISQ_EESaISt4pairIKSQ_SR_EEELc47EEEERNSL_ISM_INSN_IcNSC_13any_path_kindIcEEEESQ_NSS_IS14_EESaISU_IKS14_SQ_EEELc47EEE@Base 0.14.0
 _ZNK6build22cc12compile_rule18find_system_headerERKN4butl10basic_pathIcNS2_13any_path_kindIcEEEE@Base 0.14.0
 _ZNK6build22cc12compile_rule19append_lang_optionsERSt6vectorIPKcSaIS4_EERKNS1_10match_dataE@Base 0.14.0
 _ZNK6build22cc12compile_rule21append_header_optionsERN4butl12small_vectorIPKcLm2EEERSt6vectorIS5_SaIS5_EERNS3_INSt7__cxx1112basic_stringIcSt11char_traitsIcESaIcEEELm2EEENS_6actionERKNS_4fileERKNS1_10match_dataERKNS2_10basic_pathIcNS2_13any_path_kindIcEEEE@Base 0.14.0
 _ZNK6build22cc12compile_rule21append_module_optionsERN4butl12small_vectorIPKcLm2EEERSt6vectorIS5_SaIS5_EERNS3_INSt7__cxx1112basic_stringIcSt11char_traitsIcESaIcEEELm2EEENS_6actionERKNS_4fileERKNS1_10match_dataERKNS2_10basic_pathIcNS2_13any_path_kindIcEEEE@Base 0.14.0
 _ZNK6build22cc12compile_rule21make_header_sidebuildENS_6actionERKNS_5scopeERKNS_4fileENS_3bin5linfoES8_@Base 0.14.0
 _ZNK6build22cc12compile_rule21make_module_sidebuildENS_6actionERKNS_5scopeERKNS_4fileERKNS_6targetERKNSt7__cxx1112basic_stringIcSt11char_traitsIcESaIcEEE@Base 0.14.0
 _ZNK6build22cc12compile_rule22append_library_optionsERN4butl12small_vectorIPKNS_4fileELm256EEERSt6vectorINSt7__cxx1112basic_stringIcSt11char_traitsIcESaIcEEESaISF_EERKNS_5scopeENS_6actionERS5_bNS_3bin5linfoE@Base 0.14.0
 (optional=templinst)_ZNK6build22cc12compile_rule22append_library_optionsIN4butl6sha256EEEvRNS3_12small_vectorIPKNS_4fileELm256EEERT_RKNS_5scopeENS_6actionERS7_bNS_3bin5linfoE@Base 0.14.0
 (optional=templinst)_ZNK6build22cc12compile_rule22append_library_optionsIN4butl6sha256EEEvRT_RKNS_5scopeENS_6actionERKNS_6targetENS_3bin5linfoE@Base 0.14.0
 (optional=templinst)_ZNK6build22cc12compile_rule22append_library_optionsISt6vectorINSt7__cxx1112basic_stringIcSt11char_traitsIcESaIcEEESaIS9_EEEEvRN4butl12small_vectorIPKNS_4fileELm256EEERT_RKNS_5scopeENS_6actionERSF_bNS_3bin5linfoE@Base 0.14.0
 (optional=templinst)_ZNK6build22cc12compile_rule22append_library_optionsISt6vectorIPKcSaIS5_EEEEvRN4butl12small_vectorIPKNS_4fileELm256EEERT_RKNS_5scopeENS_6actionERSB_bNS_3bin5linfoE@Base 0.14.0
 (optional=templinst)_ZNK6build22cc12compile_rule22append_library_optionsISt6vectorIPKcSaIS5_EEEEvRT_RKNS_5scopeENS_6actionERKNS_6targetENS_3bin5linfoE@Base 0.14.0
 (optional=templinst)_ZNK6build22cc12compile_rule22append_sys_hdr_optionsIN4butl6sha256EEEvRT_@Base 0.14.0
 (optional=templinst)_ZNK6build22cc12compile_rule22append_sys_hdr_optionsISt6vectorIPKcSaIS5_EEEEvRT_@Base 0.14.0
 _ZNK6build22cc12compile_rule22find_modules_sidebuildERKNS_5scopeE@Base 0.14.0
 (optional=templinst)_ZNK6build22cc12compile_rule23append_library_prefixesERN4butl15prefix_map_implISt3mapINS2_10basic_pathIcNS2_13dir_path_kindIcEEEENS1_12prefix_valueENS2_14compare_prefixIS8_EESaISt4pairIKS8_S9_EEELc47EEERKNS_5scopeENS_6actionERNS_6targetENS_3bin5linfoE@Base 0.14.0
 _ZNK6build22cc12compile_rule5applyENS_6actionERNS_6targetE@Base 0.14.0
 _ZNK6build22cc12compile_rule5matchENS_6actionERNS_6targetERKNSt7__cxx1112basic_stringIcSt11char_traitsIcESaIcEEE@Base 0.14.0
 _ZNK6build22cc12install_rule13install_extraERKNS_4fileERKNS_7install11install_dirE@Base 0.14.0
 _ZNK6build22cc12install_rule15uninstall_extraERKNS_4fileERKNS_7install11install_dirE@Base 0.14.0
 _ZNK6build22cc12install_rule5applyENS_6actionERNS_6targetE@Base 0.14.0
 _ZNK6build22cc12install_rule5matchENS_6actionERNS_6targetERKNSt7__cxx1112basic_stringIcSt11char_traitsIcESaIcEEE@Base 0.14.0
 _ZNK6build22cc12install_rule6filterENS_6actionERKNS_6targetERNS_26prerequisite_members_rangeINS_19group_prerequisitesEE8iteratorE@Base 0.14.0
 _ZNK6build22cc13config_module22gcc_header_search_dirsERKN4butl12process_pathERNS_5scopeE@Base 0.14.0
 _ZNK6build22cc13config_module23gcc_library_search_dirsERKN4butl12process_pathERNS_5scopeE@Base 0.14.0
 _ZNK6build22cc13config_module23msvc_header_search_dirsERKN4butl12process_pathERNS_5scopeE@Base 0.14.0
 _ZNK6build22cc13config_module24msvc_library_search_dirsERKN4butl12process_pathERNS_5scopeE@Base 0.14.0
 _ZNK6build22cc18libux_install_rule5matchENS_6actionERNS_6targetERKNSt7__cxx1112basic_stringIcSt11char_traitsIcESaIcEEE@Base 0.14.0
 _ZNK6build22cc18libux_install_rule6filterENS_6actionERKNS_6targetERNS_26prerequisite_members_rangeINS_19group_prerequisitesEE8iteratorE@Base 0.14.0
 _ZNK6build22cc1c12dynamic_typeEv@Base 0.14.0
 _ZNK6build22cc1h12dynamic_typeEv@Base 0.14.0
 _ZNK6build22cc2pc12dynamic_typeEv@Base 0.14.0
 _ZNK6build22cc3pca12dynamic_typeEv@Base 0.14.0
 _ZNK6build22cc3pcs12dynamic_typeEv@Base 0.14.0
 (optional=templinst)_ZNK6build22cc4data8x_headerINS_19prerequisite_memberEEEbRKT_b@Base 0.14.0
 _ZNK6build22cc6common14pkgconfig_loadENS_6actionERKNS_5scopeERNS_3bin3libEPNS6_4libaEPNS6_4libsERKSt4pairIN4butl10basic_pathIcNSE_13any_path_kindIcEEEESI_ERKNSF_IcNSE_13dir_path_kindIcEEEERKSt6vectorISO_SaISO_EESV_@Base 0.14.0
 _ZNK6build22cc6common14pkgconfig_loadENS_6actionERKNS_5scopeERNS_3bin3libEPNS6_4libaEPNS6_4libsERKSt8optionalIN4butl12project_nameEERKNSt7__cxx1112basic_stringIcSt11char_traitsIcESaIcEEERKNSE_10basic_pathIcNSE_13dir_path_kindIcEEEERKSt6vectorISU_SaISU_EES11_@Base 0.14.0
 _ZNK6build22cc6common14search_libraryENS_6actionERKSt6vectorIN4butl10basic_pathIcNS4_13dir_path_kindIcEEEESaIS8_EERSt8optionalISA_ERKNS_16prerequisite_keyEb@Base 0.14.0
 _ZNK6build22cc6common15resolve_libraryENS_6actionERKNS_5scopeERKNS_4nameERKN4butl10basic_pathIcNS9_13dir_path_kindIcEEEESt8optionalINS_3bin5linfoEERKSt6vectorISD_SaISD_EERSG_ISM_E@Base 0.14.0
 (optional=templinst)_ZNK6build22cc6common16pkgconfig_deriveERKN4butl10basic_pathIcNS2_13dir_path_kindIcEEEERKSt8functionIFbOS6_EE@Base 0.14.0
 _ZNK6build22cc6common16pkgconfig_searchERKN4butl10basic_pathIcNS2_13dir_path_kindIcEEEERKSt8optionalINS2_12project_nameEERKNSt7__cxx1112basic_stringIcSt11char_traitsIcESaIcEEEb@Base 0.14.0
 (optional=templinst)_ZNK6build22cc6common17process_librariesENS_6actionERKNS_5scopeESt8optionalINS_3bin5linfoEERKSt6vectorIN4butl10basic_pathIcNSB_13dir_path_kindIcEEEESaISF_EERKNS_12mtime_targetEbmRKSt8functionIFbRKNS_6targetEbEERKSN_IFvPKPSP_RKNSB_12small_vectorISt17reference_wrapperIKNSt7__cxx1112basic_stringIcSt11char_traitsIcESaIcEEEELm2EEEmbEERKSN_IFvSQ_RS16_bbEEbPNSY_ISV_Lm16EEE@Base 0.14.0
 _ZNK6build22cc6common18msvc_search_sharedERKN4butl12process_pathERKNS2_10basic_pathIcNS2_13dir_path_kindIcEEEERKNS_16prerequisite_keyEb@Base 0.14.0
 _ZNK6build22cc6common18msvc_search_staticERKN4butl12process_pathERKNS2_10basic_pathIcNS2_13dir_path_kindIcEEEERKNS_16prerequisite_keyEb@Base 0.14.0
 _ZNK6build22cc6common27extract_library_search_dirsERKNS_5scopeE@Base 0.14.0
 _ZNK6build22cc9link_rule13perform_cleanENS_6actionERKNS_6targetE@Base 0.14.0
 _ZNK6build22cc9link_rule14perform_updateENS_6actionERKNS_6targetE@Base 0.14.0
 _ZNK6build22cc9link_rule14pkgconfig_saveENS_6actionERKNS_4fileEbbb@Base 0.14.0
 _ZNK6build22cc9link_rule15rpath_librariesERN4butl12small_vectorIPKNS_4fileELm256EEERSt6vectorINSt7__cxx1112basic_stringIcSt11char_traitsIcESaIcEEESaISF_EERKNS_5scopeENS_6actionERS5_bNS_3bin5linfoEbb@Base 0.14.0
 _ZNK6build22cc9link_rule15rpath_librariesERSt6vectorINSt7__cxx1112basic_stringIcSt11char_traitsIcESaIcEEESaIS8_EERKNS_5scopeENS_6actionERKNS_6targetENS_3bin5linfoEb@Base 0.14.0
 _ZNK6build22cc9link_rule16append_librariesERN4butl6sha256ERbNSt6chrono10time_pointINS6_3_V212system_clockENS6_8durationIlSt5ratioILl1ELl1000000000EEEEEERKNS_5scopeENS_6actionERKNS_4fileEbmNS_3bin5linfoE@Base 0.14.0
 _ZNK6build22cc9link_rule16append_librariesERNS1_18appended_librariesERSt6vectorINSt7__cxx1112basic_stringIcSt11char_traitsIcESaIcEEESaISA_EERKNS_5scopeENS_6actionERKNS_4fileEbmNS_3bin5linfoEbb@Base 0.14.0
 _ZNK6build22cc9link_rule16windows_manifestERKNS_4fileEb@Base 0.14.0
 _ZNK6build22cc9link_rule17derive_libs_pathsERNS_4fileEPKcS5_@Base 0.14.0
 _ZNK6build22cc9link_rule18windows_rpath_dllsERKNS_4fileERKNS_5scopeENS_6actionENS_3bin5linfoE@Base 0.14.0
 _ZNK6build22cc9link_rule19find_system_libraryERKSt6vectorINSt7__cxx1112basic_stringIcSt11char_traitsIcESaIcEEESaIS8_EE@Base 0.14.0
 _ZNK6build22cc9link_rule22append_binless_modulesERN4butl6sha256ERKNS_5scopeENS_6actionERKNS_4fileE@Base 0.14.0
 _ZNK6build22cc9link_rule22append_binless_modulesERSt6vectorINSt7__cxx1112basic_stringIcSt11char_traitsIcESaIcEEESaIS8_EERKNS_5scopeENS_6actionERKNS_4fileE@Base 0.14.0
 _ZNK6build22cc9link_rule22windows_rpath_assemblyERKNS_4fileERKNS_5scopeENS_6actionENS_3bin5linfoERKNSt7__cxx1112basic_stringIcSt11char_traitsIcESaIcEEENSt6chrono10time_pointINSJ_3_V212system_clockENSJ_8durationIlSt5ratioILl1ELl1000000000EEEEEEb@Base 0.14.0
 _ZNK6build22cc9link_rule23windows_rpath_timestampERKNS_4fileERKNS_5scopeENS_6actionENS_3bin5linfoE@Base 0.14.0
 _ZNK6build22cc9link_rule5applyENS_6actionERNS_6targetE@Base 0.14.0
 _ZNK6build22cc9link_rule5matchENS_6actionERKNS_6targetEPS4_NS_3bin5otypeEb@Base 0.14.0
 _ZNK6build22cc9link_rule5matchENS_6actionERNS_6targetERKNSt7__cxx1112basic_stringIcSt11char_traitsIcESaIcEEE@Base 0.14.0
 _ZNK6build24file12dynamic_typeEv@Base 0.14.0
 _ZNK6build25scope6lookupERKNS_8variableEPKNS_10target_keyES6_@Base 0.14.0
 _ZNK6build25scopeixERKNSt7__cxx1112basic_stringIcSt11char_traitsIcESaIcEEE@Base 0.14.0
 _ZNK6build25value5emptyEv@Base 0.14.0
 _ZNK6build26target3keyEv@Base 0.14.0
 _ZNK6build26target6lookupERKNS_8variableE@Base 0.14.0
 _ZNK6build26targetixERKNSt7__cxx1112basic_stringIcSt11char_traitsIcESaIcEEE@Base 0.14.0
 _ZNK6build27pkgconf4libsB5cxx11Eb@Base 0.14.0
 _ZNK6build27pkgconf6cflagsB5cxx11Eb@Base 0.14.0
 _ZNK6build27pkgconf8variableB5cxx11EPKc@Base 0.14.0
 (optional=templinst)_ZNKSt10_HashtableIN4butl7map_keyINSt7__cxx1112basic_stringIcSt11char_traitsIcESaIcEEEEESt4pairIKS8_N6build28variableEESaISD_ENSt8__detail10_Select1stESt8equal_toIS8_ESt4hashIS8_ENSF_18_Mod_range_hashingENSF_20_Default_ranged_hashENSF_20_Prime_rehash_policyENSF_17_Hashtable_traitsILb0ELb0ELb1EEEE4findERSA_@Base 0.14.0
 (optional=templinst)_ZNKSt10_HashtableINSt7__cxx1112basic_stringIcSt11char_traitsIcESaIcEEESt4pairIKS5_mESaIS8_ENSt8__detail10_Select1stESt8equal_toIS5_ESt4hashIS5_ENSA_18_Mod_range_hashingENSA_20_Default_ranged_hashENSA_20_Prime_rehash_policyENSA_17_Hashtable_traitsILb1ELb0ELb1EEEE19_M_find_before_nodeEmRS7_m@Base 0.14.0
 (optional=templinst)_ZNKSt5ctypeIcE8do_widenEc@Base 0.14.0
 (optional=templinst)_ZNKSt7__cxx1112basic_stringIcSt11char_traitsIcESaIcEE4findEPKcmm@Base 0.14.0
 (optional=templinst)_ZNKSt7__cxx1112basic_stringIcSt11char_traitsIcESaIcEE4findEcm@Base 0.14.0
 (optional=templinst)_ZNKSt7__cxx1112basic_stringIcSt11char_traitsIcESaIcEE7compareEPKc@Base 0.14.0
 (optional=templinst)_ZNKSt7__cxx1112basic_stringIcSt11char_traitsIcESaIcEE7compareERKS4_@Base 0.14.0
 (optional=templinst)_ZNKSt7__cxx1112basic_stringIcSt11char_traitsIcESaIcEE7compareEmmPKc@Base 0.14.0
 (optional=templinst)_ZNKSt7__cxx1112basic_stringIcSt11char_traitsIcESaIcEE7compareEmmPKcm@Base 0.14.0
 (optional=templinst)_ZNKSt8_Rb_treeINSt7__cxx1112basic_stringIcSt11char_traitsIcESaIcEEESt4pairIKS5_St8optionalIbEESt10_Select1stISA_ESt4lessIS5_ESaISA_EE4findERS7_@Base 0.14.0
 (optional=templinst)_ZNKSt8_Rb_treeISt8optionalINSt7__cxx1112basic_stringIcSt11char_traitsIcESaIcEEEESt4pairIKS7_S6_ESt10_Select1stISA_ESt4lessIS7_ESaISA_EE4findERS9_@Base 0.14.0
 (optional=templinst)_ZNKSt8functionIFN6build212target_stateENS0_6actionERKNS0_6targetEEE6targetIPS6_EEPKT_v@Base 0.14.0
 (optional=templinst)_ZNSt10_HashtableIN4butl10basic_pathIcNS0_13any_path_kindIcEEEESt4pairIKS4_NS0_12small_vectorINSt7__cxx1112basic_stringIcSt11char_traitsIcESaIcEEELm3EEEESaISF_ENSt8__detail10_Select1stESt8equal_toIS4_ESt4hashIS4_ENSH_18_Mod_range_hashingENSH_20_Default_ranged_hashENSH_20_Prime_rehash_policyENSH_17_Hashtable_traitsILb0ELb0ELb1EEEE10_M_emplaceIJS4_SE_EEES5_INSH_14_Node_iteratorISF_Lb0ELb0EEEbESt17integral_constantIbLb1EEDpOT_@Base 0.14.0
 (optional=templinst)_ZNSt10_HashtableIN4butl10basic_pathIcNS0_13any_path_kindIcEEEESt4pairIKS4_NS0_12small_vectorINSt7__cxx1112basic_stringIcSt11char_traitsIcESaIcEEELm3EEEESaISF_ENSt8__detail10_Select1stESt8equal_toIS4_ESt4hashIS4_ENSH_18_Mod_range_hashingENSH_20_Default_ranged_hashENSH_20_Prime_rehash_policyENSH_17_Hashtable_traitsILb0ELb0ELb1EEEE21_M_insert_unique_nodeEmmPNSH_10_Hash_nodeISF_Lb0EEEm@Base 0.14.0
 (optional=templinst)_ZNSt10_HashtableIN4butl10basic_pathIcNS0_13any_path_kindIcEEEESt4pairIKS4_NS0_12small_vectorINSt7__cxx1112basic_stringIcSt11char_traitsIcESaIcEEELm3EEEESaISF_ENSt8__detail10_Select1stESt8equal_toIS4_ESt4hashIS4_ENSH_18_Mod_range_hashingENSH_20_Default_ranged_hashENSH_20_Prime_rehash_policyENSH_17_Hashtable_traitsILb0ELb0ELb1EEEE4findERS6_@Base 0.14.0
 (optional=templinst)_ZNSt10_HashtableIN4butl10basic_pathIcNS0_13any_path_kindIcEEEESt4pairIKS4_NS0_12small_vectorINSt7__cxx1112basic_stringIcSt11char_traitsIcESaIcEEELm3EEEESaISF_ENSt8__detail10_Select1stESt8equal_toIS4_ESt4hashIS4_ENSH_18_Mod_range_hashingENSH_20_Default_ranged_hashENSH_20_Prime_rehash_policyENSH_17_Hashtable_traitsILb0ELb0ELb1EEEE9_M_rehashEmRKm@Base 0.14.0
 (optional=templinst)_ZNSt10_HashtableINSt7__cxx1112basic_stringIcSt11char_traitsIcESaIcEEESt4pairIKS5_mESaIS8_ENSt8__detail10_Select1stESt8equal_toIS5_ESt4hashIS5_ENSA_18_Mod_range_hashingENSA_20_Default_ranged_hashENSA_20_Prime_rehash_policyENSA_17_Hashtable_traitsILb1ELb0ELb1EEEE10_M_emplaceIJRS7_RmEEES6_INSA_14_Node_iteratorIS8_Lb0ELb1EEEbESt17integral_constantIbLb1EEDpOT_@Base 0.14.0
 (optional=templinst)_ZNSt10_HashtableINSt7__cxx1112basic_stringIcSt11char_traitsIcESaIcEEESt4pairIKS5_mESaIS8_ENSt8__detail10_Select1stESt8equal_toIS5_ESt4hashIS5_ENSA_18_Mod_range_hashingENSA_20_Default_ranged_hashENSA_20_Prime_rehash_policyENSA_17_Hashtable_traitsILb1ELb0ELb1EEEE10_M_emplaceIJRS7_iEEES6_INSA_14_Node_iteratorIS8_Lb0ELb1EEEbESt17integral_constantIbLb1EEDpOT_@Base 0.14.0
 (optional=templinst)_ZNSt10_HashtableINSt7__cxx1112basic_stringIcSt11char_traitsIcESaIcEEESt4pairIKS5_mESaIS8_ENSt8__detail10_Select1stESt8equal_toIS5_ESt4hashIS5_ENSA_18_Mod_range_hashingENSA_20_Default_ranged_hashENSA_20_Prime_rehash_policyENSA_17_Hashtable_traitsILb1ELb0ELb1EEEE10_M_emplaceIJRS7_mEEES6_INSA_14_Node_iteratorIS8_Lb0ELb1EEEbESt17integral_constantIbLb1EEDpOT_@Base 0.14.0
 (optional=templinst)_ZNSt10_HashtableINSt7__cxx1112basic_stringIcSt11char_traitsIcESaIcEEESt4pairIKS5_mESaIS8_ENSt8__detail10_Select1stESt8equal_toIS5_ESt4hashIS5_ENSA_18_Mod_range_hashingENSA_20_Default_ranged_hashENSA_20_Prime_rehash_policyENSA_17_Hashtable_traitsILb1ELb0ELb1EEEE21_M_insert_unique_nodeEmmPNSA_10_Hash_nodeIS8_Lb1EEEm@Base 0.14.0
 (optional=templinst)_ZNSt10_HashtableINSt7__cxx1112basic_stringIcSt11char_traitsIcESaIcEEESt4pairIKS5_mESaIS8_ENSt8__detail10_Select1stESt8equal_toIS5_ESt4hashIS5_ENSA_18_Mod_range_hashingENSA_20_Default_ranged_hashENSA_20_Prime_rehash_policyENSA_17_Hashtable_traitsILb1ELb0ELb1EEEE4findERS7_@Base 0.14.0
 (optional=templinst)_ZNSt10_HashtableINSt7__cxx1112basic_stringIcSt11char_traitsIcESaIcEEESt4pairIKS5_mESaIS8_ENSt8__detail10_Select1stESt8equal_toIS5_ESt4hashIS5_ENSA_18_Mod_range_hashingENSA_20_Default_ranged_hashENSA_20_Prime_rehash_policyENSA_17_Hashtable_traitsILb1ELb0ELb1EEEE9_M_rehashEmRKm@Base 0.14.0
 (optional=templinst)_ZNSt14_Function_base13_Base_managerIPFN6build212target_stateENS1_6actionERKNS1_5scopeERKNS1_3dirEEE10_M_managerERSt9_Any_dataRKSD_St18_Manager_operation@Base 0.14.0
 (optional=templinst)_ZNSt14_Function_base13_Base_managerIZNK6build22cc12compile_rule22append_library_optionsIN4butl6sha256EEEvRNS5_12small_vectorIPKNS1_4fileELm256EEERT_RKNS1_5scopeENS1_6actionERS9_bNS1_3bin5linfoEEUlRKNS1_6targetERKNSt7__cxx1112basic_stringIcSt11char_traitsIcESaIcEEEbbE0_E10_M_managerERSt9_Any_dataRKSZ_St18_Manager_operation@Base 0.14.0
 (optional=templinst)_ZNSt14_Function_base13_Base_managerIZNK6build22cc12compile_rule22append_library_optionsIN4butl6sha256EEEvRNS5_12small_vectorIPKNS1_4fileELm256EEERT_RKNS1_5scopeENS1_6actionERS9_bNS1_3bin5linfoEEUlRKNS1_6targetEbE_E10_M_managerERSt9_Any_dataRKSR_St18_Manager_operation@Base 0.14.0
 (optional=templinst)_ZNSt14_Function_base13_Base_managerIZNK6build22cc12compile_rule22append_library_optionsISt6vectorINSt7__cxx1112basic_stringIcSt11char_traitsIcESaIcEEESaISB_EEEEvRN4butl12small_vectorIPKNS1_4fileELm256EEERT_RKNS1_5scopeENS1_6actionERSH_bNS1_3bin5linfoEEUlRKNS1_6targetERKSB_bbE0_E10_M_managerERSt9_Any_dataRKS11_St18_Manager_operation@Base 0.14.0
 (optional=templinst)_ZNSt14_Function_base13_Base_managerIZNK6build22cc12compile_rule22append_library_optionsISt6vectorINSt7__cxx1112basic_stringIcSt11char_traitsIcESaIcEEESaISB_EEEEvRN4butl12small_vectorIPKNS1_4fileELm256EEERT_RKNS1_5scopeENS1_6actionERSH_bNS1_3bin5linfoEEUlRKNS1_6targetEbE_E10_M_managerERSt9_Any_dataRKSZ_St18_Manager_operation@Base 0.14.0
 (optional=templinst)_ZNSt14_Function_base13_Base_managerIZNK6build22cc12compile_rule22append_library_optionsISt6vectorIPKcSaIS7_EEEEvRN4butl12small_vectorIPKNS1_4fileELm256EEERT_RKNS1_5scopeENS1_6actionERSD_bNS1_3bin5linfoEEUlRKNS1_6targetERKNSt7__cxx1112basic_stringIcSt11char_traitsIcESaIcEEEbbE0_E10_M_managerERSt9_Any_dataRKS13_St18_Manager_operation@Base 0.14.0
 (optional=templinst)_ZNSt14_Function_base13_Base_managerIZNK6build22cc12compile_rule22append_library_optionsISt6vectorIPKcSaIS7_EEEEvRN4butl12small_vectorIPKNS1_4fileELm256EEERT_RKNS1_5scopeENS1_6actionERSD_bNS1_3bin5linfoEEUlRKNS1_6targetEbE_E10_M_managerERSt9_Any_dataRKSV_St18_Manager_operation@Base 0.14.0
 (optional=templinst)_ZNSt17_Function_handlerIFN6build212target_stateENS0_6actionERKNS0_5scopeERKNS0_3dirEEPS9_E9_M_invokeERKSt9_Any_dataOS2_S5_S8_@Base 0.14.0
 (optional=templinst)_ZNSt17_Function_handlerIFbRKN6build26targetEbEZNKS0_2cc12compile_rule22append_library_optionsIN4butl6sha256EEEvRNS8_12small_vectorIPKNS0_4fileELm256EEERT_RKNS0_5scopeENS0_6actionERSC_bNS0_3bin5linfoEEUlS3_bE_E9_M_invokeERKSt9_Any_dataS3_Ob@Base 0.14.0
 (optional=templinst)_ZNSt17_Function_handlerIFbRKN6build26targetEbEZNKS0_2cc12compile_rule22append_library_optionsISt6vectorINSt7__cxx1112basic_stringIcSt11char_traitsIcESaIcEEESaISE_EEEEvRN4butl12small_vectorIPKNS0_4fileELm256EEERT_RKNS0_5scopeENS0_6actionERSK_bNS0_3bin5linfoEEUlS3_bE_E9_M_invokeERKSt9_Any_dataS3_Ob@Base 0.14.0
 (optional=templinst)_ZNSt17_Function_handlerIFbRKN6build26targetEbEZNKS0_2cc12compile_rule22append_library_optionsISt6vectorIPKcSaISA_EEEEvRN4butl12small_vectorIPKNS0_4fileELm256EEERT_RKNS0_5scopeENS0_6actionERSG_bNS0_3bin5linfoEEUlS3_bE_E9_M_invokeERKSt9_Any_dataS3_Ob@Base 0.14.0
 (optional=templinst)_ZNSt17_Function_handlerIFvRKN6build26targetERKNSt7__cxx1112basic_stringIcSt11char_traitsIcESaIcEEEbbEZNKS0_2cc12compile_rule22append_library_optionsIN4butl6sha256EEEvRNSG_12small_vectorIPKNS0_4fileELm256EEERT_RKNS0_5scopeENS0_6actionERSK_bNS0_3bin5linfoEEUlS3_SB_bbE0_E9_M_invokeERKSt9_Any_dataS3_SB_ObS12_@Base 0.14.0
 (optional=templinst)_ZNSt17_Function_handlerIFvRKN6build26targetERKNSt7__cxx1112basic_stringIcSt11char_traitsIcESaIcEEEbbEZNKS0_2cc12compile_rule22append_library_optionsISt6vectorIPKcSaISI_EEEEvRN4butl12small_vectorIPKNS0_4fileELm256EEERT_RKNS0_5scopeENS0_6actionERSO_bNS0_3bin5linfoEEUlS3_SB_bbE0_E9_M_invokeERKSt9_Any_dataS3_SB_ObS16_@Base 0.14.0
 (optional=templinst)_ZNSt17_Function_handlerIFvRKN6build26targetERKNSt7__cxx1112basic_stringIcSt11char_traitsIcESaIcEEEbbEZNKS0_2cc12compile_rule22append_library_optionsISt6vectorIS9_SaIS9_EEEEvRN4butl12small_vectorIPKNS0_4fileELm256EEERT_RKNS0_5scopeENS0_6actionERSM_bNS0_3bin5linfoEEUlS3_SB_bbE0_E9_M_invokeERKSt9_Any_dataS3_SB_ObS14_@Base 0.14.0
 (optional=templinst)_ZNSt20__uninitialized_copyILb0EE13__uninit_copyIPKN6build212prerequisiteEPS3_EET0_T_S8_S7_@Base 0.14.0
 (optional=templinst)_ZNSt22_Optional_payload_baseINSt7__cxx1111basic_regexIcNS0_12regex_traitsIcEEEEEC1EbOS5_@Base 0.14.0
 (optional=templinst)_ZNSt22_Optional_payload_baseINSt7__cxx1111basic_regexIcNS0_12regex_traitsIcEEEEEC2EbOS5_@Base 0.14.0
 (optional=templinst)_ZNSt22_Optional_payload_baseINSt7__cxx1112basic_stringIcSt11char_traitsIcESaIcEEEEC1EbRKS6_@Base 0.14.0
 (optional=templinst)_ZNSt22_Optional_payload_baseINSt7__cxx1112basic_stringIcSt11char_traitsIcESaIcEEEEC2EbRKS6_@Base 0.14.0
 (optional=templinst)_ZNSt3_V28__rotateIN9__gnu_cxx17__normal_iteratorIPNSt7__cxx1112basic_stringIcSt11char_traitsIcESaIcEEESt6vectorIS8_SaIS8_EEEEEET_SE_SE_SE_St26random_access_iterator_tag@Base 0.14.0
 (optional=templinst)_ZNSt3mapINSt7__cxx1112basic_stringIcSt11char_traitsIcESaIcEEEN6build22cc18importable_headersESt4lessIS5_ESaISt4pairIKS5_S8_EEED1Ev@Base 0.14.0
 (optional=templinst)_ZNSt3mapINSt7__cxx1112basic_stringIcSt11char_traitsIcESaIcEEEN6build22cc18importable_headersESt4lessIS5_ESaISt4pairIKS5_S8_EEED2Ev@Base 0.14.0
 (optional=templinst)_ZNSt4pairIN4butl10basic_pathIcNS0_13any_path_kindIcEEEES4_ED1Ev@Base 0.14.0
 (optional=templinst)_ZNSt4pairIN4butl10basic_pathIcNS0_13any_path_kindIcEEEES4_ED2Ev@Base 0.14.0
 (optional=templinst)_ZNSt4pairIN4butl10entry_typeESt12system_errorED1Ev@Base 0.14.0
 (optional=templinst)_ZNSt4pairIN4butl10entry_typeESt12system_errorED2Ev@Base 0.14.0
 (optional=templinst)_ZNSt4pairINSt7__cxx1112basic_stringIcSt11char_traitsIcESaIcEEEN6build22cc11search_dirsEED1Ev@Base 0.14.0
 (optional=templinst)_ZNSt4pairINSt7__cxx1112basic_stringIcSt11char_traitsIcESaIcEEEN6build22cc11search_dirsEED2Ev@Base 0.14.0
 (optional=templinst)_ZNSt6vectorIN4butl10basic_pathIcNS0_13any_path_kindIcEEEESaIS4_EE17_M_realloc_insertIJS4_EEEvN9__gnu_cxx17__normal_iteratorIPS4_S6_EEDpOT_@Base 0.14.0
 (optional=templinst)_ZNSt6vectorIN4butl10basic_pathIcNS0_13any_path_kindIcEEEESaIS4_EED1Ev@Base 0.14.0
 (optional=templinst)_ZNSt6vectorIN4butl10basic_pathIcNS0_13any_path_kindIcEEEESaIS4_EED2Ev@Base 0.14.0
 (optional=templinst)_ZNSt6vectorIN4butl10basic_pathIcNS0_13dir_path_kindIcEEEESaIS4_EE12emplace_backIJS4_EEERS4_DpOT_@Base 0.14.0
 (optional=templinst)_ZNSt6vectorIN4butl10basic_pathIcNS0_13dir_path_kindIcEEEESaIS4_EE17_M_realloc_insertIJRKS4_EEEvN9__gnu_cxx17__normal_iteratorIPS4_S6_EEDpOT_@Base 0.14.0
 (optional=templinst)_ZNSt6vectorIN4butl10basic_pathIcNS0_13dir_path_kindIcEEEESaIS4_EE17_M_realloc_insertIJS4_EEEvN9__gnu_cxx17__normal_iteratorIPS4_S6_EEDpOT_@Base 0.14.0
 (optional=templinst)_ZNSt6vectorIN4butl10basic_pathIcNS0_13dir_path_kindIcEEEESaIS4_EE6insertEN9__gnu_cxx17__normal_iteratorIPKS4_S6_EERS9_@Base 0.14.0
 (optional=templinst)_ZNSt6vectorIN4butl10basic_pathIcNS0_13dir_path_kindIcEEEESaIS4_EED1Ev@Base 0.14.0
 (optional=templinst)_ZNSt6vectorIN4butl10basic_pathIcNS0_13dir_path_kindIcEEEESaIS4_EED2Ev@Base 0.14.0
 (optional=templinst)_ZNSt6vectorIN4butl10basic_pathIcNS0_13dir_path_kindIcEEEESaIS4_EEaSERKS6_@Base 0.14.0
 (optional=templinst)_ZNSt6vectorIN6build212prerequisiteESaIS1_EE12emplace_backIJS1_EEERS1_DpOT_@Base 0.14.0
 (optional=templinst)_ZNSt6vectorIN6build212prerequisiteESaIS1_EE17_M_realloc_insertIJS1_EEEvN9__gnu_cxx17__normal_iteratorIPS1_S3_EEDpOT_@Base 0.14.0
 (optional=templinst)_ZNSt6vectorIN6build212prerequisiteESaIS1_EED1Ev@Base 0.14.0
 (optional=templinst)_ZNSt6vectorIN6build212prerequisiteESaIS1_EED2Ev@Base 0.14.0
 (optional=templinst)_ZNSt6vectorIN6build217clean_adhoc_extraEN4butl15small_allocatorIS1_Lm2ENS2_22small_allocator_bufferIS1_Lm2EEEEEE17_M_realloc_insertIJS1_EEEvN9__gnu_cxx17__normal_iteratorIPS1_S7_EEDpOT_@Base 0.14.0
 (optional=templinst)_ZNSt6vectorIN6build217clean_adhoc_extraEN4butl15small_allocatorIS1_Lm2ENS2_22small_allocator_bufferIS1_Lm2EEEEEED1Ev@Base 0.14.0
 (optional=templinst)_ZNSt6vectorIN6build217clean_adhoc_extraEN4butl15small_allocatorIS1_Lm2ENS2_22small_allocator_bufferIS1_Lm2EEEEEED2Ev@Base 0.14.0
 (optional=templinst)_ZNSt6vectorIN6build217function_overloadEN4butl15small_allocatorIS1_Lm8ENS2_22small_allocator_bufferIS1_Lm8EEEEEE12emplace_backIJS1_EEERS1_DpOT_@Base 0.14.0
 (optional=templinst)_ZNSt6vectorIN6build217function_overloadEN4butl15small_allocatorIS1_Lm8ENS2_22small_allocator_bufferIS1_Lm8EEEEEE17_M_realloc_insertIJS1_EEEvN9__gnu_cxx17__normal_iteratorIPS1_S7_EEDpOT_@Base 0.14.0
 (optional=templinst)_ZNSt6vectorIN6build219prerequisite_targetESaIS1_EE12emplace_backIJS1_EEERS1_DpOT_@Base 0.14.0
 (optional=templinst)_ZNSt6vectorIN6build219prerequisite_targetESaIS1_EE14_M_fill_insertEN9__gnu_cxx17__normal_iteratorIPS1_S3_EEmRKS1_@Base 0.14.0
 (optional=templinst)_ZNSt6vectorIN6build219prerequisite_targetESaIS1_EE17_M_realloc_insertIJS1_EEEvN9__gnu_cxx17__normal_iteratorIPS1_S3_EEDpOT_@Base 0.14.0
 (optional=templinst)_ZNSt6vectorIN6build22cc13module_importESaIS2_EE12emplace_backIJS2_EEERS2_DpOT_@Base 0.14.0
 (optional=templinst)_ZNSt6vectorIN6build22cc13module_importESaIS2_EE17_M_realloc_insertIJS2_EEEvN9__gnu_cxx17__normal_iteratorIPS2_S4_EEDpOT_@Base 0.14.0
 (optional=templinst)_ZNSt6vectorIN6build22cc9link_rule16appended_libraryEN4butl15small_allocatorIS3_Lm128ENS4_22small_allocator_bufferIS3_Lm128EEEEEE12emplace_backIJS3_EEERS3_DpOT_@Base 0.14.0
 (optional=templinst)_ZNSt6vectorIN6build22cc9link_rule16appended_libraryEN4butl15small_allocatorIS3_Lm128ENS4_22small_allocator_bufferIS3_Lm128EEEEEE17_M_realloc_insertIJS3_EEEvN9__gnu_cxx17__normal_iteratorIPS3_S9_EEDpOT_@Base 0.14.0
 (optional=templinst)_ZNSt6vectorIN6build24nameEN4butl15small_allocatorIS1_Lm1ENS2_22small_allocator_bufferIS1_Lm1EEEEEED1Ev@Base 0.14.0
 (optional=templinst)_ZNSt6vectorIN6build24nameEN4butl15small_allocatorIS1_Lm1ENS2_22small_allocator_bufferIS1_Lm1EEEEEED2Ev@Base 0.14.0
 (optional=templinst)_ZNSt6vectorIN6build24nameEN4butl15small_allocatorIS1_Lm1ENS2_22small_allocator_bufferIS1_Lm1EEEEEEaSERKS7_@Base 0.14.0
 (optional=templinst)_ZNSt6vectorIN6build24nameESaIS1_EE14_M_insert_rvalEN9__gnu_cxx17__normal_iteratorIPKS1_S3_EEOS1_@Base 0.14.0
 (optional=templinst)_ZNSt6vectorIN6build24nameESaIS1_EE17_M_realloc_insertIJS1_EEEvN9__gnu_cxx17__normal_iteratorIPS1_S3_EEDpOT_@Base 0.14.0
 (optional=templinst)_ZNSt6vectorIN6build24nameESaIS1_EED1Ev@Base 0.14.0
 (optional=templinst)_ZNSt6vectorIN6build24nameESaIS1_EED2Ev@Base 0.14.0
 (optional=templinst)_ZNSt6vectorINSt7__cxx1112basic_stringIcSt11char_traitsIcESaIcEEEN4butl15small_allocatorIS5_Lm16ENS6_22small_allocator_bufferIS5_Lm16EEEEEE12emplace_backIJS5_EEERS5_DpOT_@Base 0.14.0
 (optional=templinst)_ZNSt6vectorINSt7__cxx1112basic_stringIcSt11char_traitsIcESaIcEEEN4butl15small_allocatorIS5_Lm16ENS6_22small_allocator_bufferIS5_Lm16EEEEEE17_M_realloc_insertIJS5_EEEvN9__gnu_cxx17__normal_iteratorIPS5_SB_EEDpOT_@Base 0.14.0
 (optional=templinst)_ZNSt6vectorINSt7__cxx1112basic_stringIcSt11char_traitsIcESaIcEEEN4butl15small_allocatorIS5_Lm16ENS6_22small_allocator_bufferIS5_Lm16EEEEEED1Ev@Base 0.14.0
 (optional=templinst)_ZNSt6vectorINSt7__cxx1112basic_stringIcSt11char_traitsIcESaIcEEEN4butl15small_allocatorIS5_Lm16ENS6_22small_allocator_bufferIS5_Lm16EEEEEED2Ev@Base 0.14.0
 (optional=templinst)_ZNSt6vectorINSt7__cxx1112basic_stringIcSt11char_traitsIcESaIcEEEN4butl15small_allocatorIS5_Lm1ENS6_22small_allocator_bufferIS5_Lm1EEEEEE17_M_realloc_insertIJS5_EEEvN9__gnu_cxx17__normal_iteratorIPS5_SB_EEDpOT_@Base 0.14.0
 (optional=templinst)_ZNSt6vectorINSt7__cxx1112basic_stringIcSt11char_traitsIcESaIcEEEN4butl15small_allocatorIS5_Lm1ENS6_22small_allocator_bufferIS5_Lm1EEEEEED1Ev@Base 0.14.0
 (optional=templinst)_ZNSt6vectorINSt7__cxx1112basic_stringIcSt11char_traitsIcESaIcEEEN4butl15small_allocatorIS5_Lm1ENS6_22small_allocator_bufferIS5_Lm1EEEEEED2Ev@Base 0.14.0
 (optional=templinst)_ZNSt6vectorINSt7__cxx1112basic_stringIcSt11char_traitsIcESaIcEEEN4butl15small_allocatorIS5_Lm2ENS6_22small_allocator_bufferIS5_Lm2EEEEEE12emplace_backIJS5_EEERS5_DpOT_@Base 0.14.0
 (optional=templinst)_ZNSt6vectorINSt7__cxx1112basic_stringIcSt11char_traitsIcESaIcEEEN4butl15small_allocatorIS5_Lm2ENS6_22small_allocator_bufferIS5_Lm2EEEEEE17_M_realloc_insertIJS5_EEEvN9__gnu_cxx17__normal_iteratorIPS5_SB_EEDpOT_@Base 0.14.0
 (optional=templinst)_ZNSt6vectorINSt7__cxx1112basic_stringIcSt11char_traitsIcESaIcEEEN4butl15small_allocatorIS5_Lm2ENS6_22small_allocator_bufferIS5_Lm2EEEEEED1Ev@Base 0.14.0
 (optional=templinst)_ZNSt6vectorINSt7__cxx1112basic_stringIcSt11char_traitsIcESaIcEEEN4butl15small_allocatorIS5_Lm2ENS6_22small_allocator_bufferIS5_Lm2EEEEEED2Ev@Base 0.14.0
 (optional=templinst)_ZNSt6vectorINSt7__cxx1112basic_stringIcSt11char_traitsIcESaIcEEEN4butl15small_allocatorIS5_Lm3ENS6_22small_allocator_bufferIS5_Lm3EEEEEE13_M_assign_auxISt13move_iteratorIN9__gnu_cxx17__normal_iteratorIPS5_SB_EEEEEvT_SJ_St20forward_iterator_tag@Base 0.14.0
 (optional=templinst)_ZNSt6vectorINSt7__cxx1112basic_stringIcSt11char_traitsIcESaIcEEEN4butl15small_allocatorIS5_Lm3ENS6_22small_allocator_bufferIS5_Lm3EEEEEE13_M_insert_auxIS5_EEvN9__gnu_cxx17__normal_iteratorIPS5_SB_EEOT_@Base 0.14.0
 (optional=templinst)_ZNSt6vectorINSt7__cxx1112basic_stringIcSt11char_traitsIcESaIcEEEN4butl15small_allocatorIS5_Lm3ENS6_22small_allocator_bufferIS5_Lm3EEEEEE17_M_realloc_insertIJRKS5_EEEvN9__gnu_cxx17__normal_iteratorIPS5_SB_EEDpOT_@Base 0.14.0
 (optional=templinst)_ZNSt6vectorINSt7__cxx1112basic_stringIcSt11char_traitsIcESaIcEEEN4butl15small_allocatorIS5_Lm3ENS6_22small_allocator_bufferIS5_Lm3EEEEEE17_M_realloc_insertIJS5_EEEvN9__gnu_cxx17__normal_iteratorIPS5_SB_EEDpOT_@Base 0.14.0
 (optional=templinst)_ZNSt6vectorINSt7__cxx1112basic_stringIcSt11char_traitsIcESaIcEEEN4butl15small_allocatorIS5_Lm3ENS6_22small_allocator_bufferIS5_Lm3EEEEEE6insertEN9__gnu_cxx17__normal_iteratorIPKS5_SB_EERSE_@Base 0.14.0
 (optional=templinst)_ZNSt6vectorINSt7__cxx1112basic_stringIcSt11char_traitsIcESaIcEEEN4butl15small_allocatorIS5_Lm3ENS6_22small_allocator_bufferIS5_Lm3EEEEEE7reserveEm@Base 0.14.0
 (optional=templinst)_ZNSt6vectorINSt7__cxx1112basic_stringIcSt11char_traitsIcESaIcEEEN4butl15small_allocatorIS5_Lm3ENS6_22small_allocator_bufferIS5_Lm3EEEEEED1Ev@Base 0.14.0
 (optional=templinst)_ZNSt6vectorINSt7__cxx1112basic_stringIcSt11char_traitsIcESaIcEEEN4butl15small_allocatorIS5_Lm3ENS6_22small_allocator_bufferIS5_Lm3EEEEEED2Ev@Base 0.14.0
 (optional=templinst)_ZNSt6vectorINSt7__cxx1112basic_stringIcSt11char_traitsIcESaIcEEESaIS5_EE12emplace_backIJS5_EEERS5_DpOT_@Base 0.14.0
 (optional=templinst)_ZNSt6vectorINSt7__cxx1112basic_stringIcSt11char_traitsIcESaIcEEESaIS5_EE13_M_assign_auxIN9__gnu_cxx17__normal_iteratorIPKS5_S7_EEEEvT_SE_St20forward_iterator_tag@Base 0.14.0
 (optional=templinst)_ZNSt6vectorINSt7__cxx1112basic_stringIcSt11char_traitsIcESaIcEEESaIS5_EE15_M_range_insertIN9__gnu_cxx17__normal_iteratorIPKS5_S7_EEEEvNSA_IPS5_S7_EET_SG_St20forward_iterator_tag@Base 0.14.0
 (optional=templinst)_ZNSt6vectorINSt7__cxx1112basic_stringIcSt11char_traitsIcESaIcEEESaIS5_EE17_M_realloc_insertIJRKS5_EEEvN9__gnu_cxx17__normal_iteratorIPS5_S7_EEDpOT_@Base 0.14.0
 (optional=templinst)_ZNSt6vectorINSt7__cxx1112basic_stringIcSt11char_traitsIcESaIcEEESaIS5_EE17_M_realloc_insertIJS5_EEEvN9__gnu_cxx17__normal_iteratorIPS5_S7_EEDpOT_@Base 0.14.0
 (optional=templinst)_ZNSt6vectorINSt7__cxx1112basic_stringIcSt11char_traitsIcESaIcEEESaIS5_EED1Ev@Base 0.14.0
 (optional=templinst)_ZNSt6vectorINSt7__cxx1112basic_stringIcSt11char_traitsIcESaIcEEESaIS5_EED2Ev@Base 0.14.0
 (optional=templinst)_ZNSt6vectorIPKN6build24fileEN4butl15small_allocatorIS3_Lm256ENS4_22small_allocator_bufferIS3_Lm256EEEEEE12emplace_backIJS3_EEERS3_DpOT_@Base 0.14.0
 (optional=templinst)_ZNSt6vectorIPKN6build24fileEN4butl15small_allocatorIS3_Lm256ENS4_22small_allocator_bufferIS3_Lm256EEEEEE17_M_realloc_insertIJRKS3_EEEvN9__gnu_cxx17__normal_iteratorIPS3_S9_EEDpOT_@Base 0.14.0
 (optional=templinst)_ZNSt6vectorIPKN6build24fileEN4butl15small_allocatorIS3_Lm256ENS4_22small_allocator_bufferIS3_Lm256EEEEEE17_M_realloc_insertIJS3_EEEvN9__gnu_cxx17__normal_iteratorIPS3_S9_EEDpOT_@Base 0.14.0
 (optional=templinst)_ZNSt6vectorIPKN6build26targetEN4butl15small_allocatorIS3_Lm16ENS4_22small_allocator_bufferIS3_Lm16EEEEEE12emplace_backIJS3_EEERS3_DpOT_@Base 0.14.0
 (optional=templinst)_ZNSt6vectorIPKN6build26targetEN4butl15small_allocatorIS3_Lm16ENS4_22small_allocator_bufferIS3_Lm16EEEEEE17_M_realloc_insertIJS3_EEEvN9__gnu_cxx17__normal_iteratorIPS3_S9_EEDpOT_@Base 0.14.0
 (optional=templinst)_ZNSt6vectorIPKcN4butl15small_allocatorIS1_Lm2ENS2_22small_allocator_bufferIS1_Lm2EEEEEE12emplace_backIJS1_EEERS1_DpOT_@Base 0.14.0
 (optional=templinst)_ZNSt6vectorIPKcN4butl15small_allocatorIS1_Lm2ENS2_22small_allocator_bufferIS1_Lm2EEEEEE17_M_realloc_insertIJS1_EEEvN9__gnu_cxx17__normal_iteratorIPS1_S7_EEDpOT_@Base 0.14.0
 (optional=templinst)_ZNSt6vectorIPKcN4butl15small_allocatorIS1_Lm3ENS2_22small_allocator_bufferIS1_Lm3EEEEEE7reserveEm@Base 0.14.0
 (optional=templinst)_ZNSt6vectorIPKcN4butl15small_allocatorIS1_Lm8ENS2_22small_allocator_bufferIS1_Lm8EEEEEE13_M_assign_auxIPKS1_EEvT_SB_St20forward_iterator_tag@Base 0.14.0
 (optional=templinst)_ZNSt6vectorIPKcN4butl15small_allocatorIS1_Lm8ENS2_22small_allocator_bufferIS1_Lm8EEEEEE17_M_realloc_insertIJS1_EEEvN9__gnu_cxx17__normal_iteratorIPS1_S7_EEDpOT_@Base 0.14.0
 (optional=templinst)_ZNSt6vectorIPKcN4butl15small_allocatorIS1_Lm8ENS2_22small_allocator_bufferIS1_Lm8EEEEEE7reserveEm@Base 0.14.0
 (optional=templinst)_ZNSt6vectorIPKcSaIS1_EE12emplace_backIJS1_EEERS1_DpOT_@Base 0.14.0
 (optional=templinst)_ZNSt6vectorIPKcSaIS1_EE17_M_default_appendEm@Base 0.14.0
 (optional=templinst)_ZNSt6vectorIPKcSaIS1_EE17_M_realloc_insertIJRKS1_EEEvN9__gnu_cxx17__normal_iteratorIPS1_S3_EEDpOT_@Base 0.14.0
 (optional=templinst)_ZNSt6vectorIPKcSaIS1_EE17_M_realloc_insertIJS1_EEEvN9__gnu_cxx17__normal_iteratorIPS1_S3_EEDpOT_@Base 0.14.0
 (optional=templinst)_ZNSt6vectorIPKcSaIS1_EE7reserveEm@Base 0.14.0
 (optional=templinst)_ZNSt6vectorISt17reference_wrapperIKNSt7__cxx1112basic_stringIcSt11char_traitsIcESaIcEEEEN4butl15small_allocatorIS8_Lm2ENS9_22small_allocator_bufferIS8_Lm2EEEEEE12emplace_backIJS8_EEERS8_DpOT_@Base 0.14.0
 (optional=templinst)_ZNSt6vectorISt3mapIPKN6build211target_typeEN4butl15prefix_map_implIS0_INSt7__cxx1112basic_stringIcSt11char_traitsIcESaIcEEESt17reference_wrapperIKNS1_4ruleEENS5_14compare_prefixISC_EESaISt4pairIKSC_SG_EEELc46EEESt4lessIS4_ESaISJ_IKS4_SO_EEESaISU_EE17_M_default_appendEm@Base 0.14.0
 (optional=templinst)_ZNSt7__cxx1112basic_stringIcSt11char_traitsIcESaIcEE10_M_replaceEmmPKcm@Base 0.14.0
 (optional=templinst)_ZNSt7__cxx1112basic_stringIcSt11char_traitsIcESaIcEE12_M_constructIPKcEEvT_S8_St20forward_iterator_tag@Base 0.14.0
 (optional=templinst)_ZNSt7__cxx1112basic_stringIcSt11char_traitsIcESaIcEE12_M_constructIPcEEvT_S7_St20forward_iterator_tag@Base 0.14.0
 (optional=templinst)_ZNSt7__cxx1112basic_stringIcSt11char_traitsIcESaIcEE14_M_replace_auxEmmmc@Base 0.14.0
 (optional=templinst)_ZNSt7__cxx1112basic_stringIcSt11char_traitsIcESaIcEE4swapERS4_@Base 0.14.0
 (optional=templinst)_ZNSt7__cxx1112basic_stringIcSt11char_traitsIcESaIcEE6appendEPKc@Base 0.14.0
 (optional=templinst)_ZNSt7__cxx1112basic_stringIcSt11char_traitsIcESaIcEE6assignEPKc@Base 0.14.0
 (optional=templinst)_ZNSt7__cxx1112basic_stringIcSt11char_traitsIcESaIcEE6assignERKS4_mm@Base 0.14.0
 (optional=templinst)_ZNSt7__cxx1112basic_stringIcSt11char_traitsIcESaIcEE6resizeEmc@Base 0.14.0
 (optional=templinst)_ZNSt7__cxx1112basic_stringIcSt11char_traitsIcESaIcEE7reserveEm@Base 0.14.0
 (optional=templinst)_ZNSt7__cxx1112basic_stringIcSt11char_traitsIcESaIcEE8_M_eraseEmm@Base 0.14.0
 (optional=templinst)_ZNSt7__cxx1112basic_stringIcSt11char_traitsIcESaIcEE9_M_appendEPKcm@Base 0.14.0
 (optional=templinst)_ZNSt7__cxx1112basic_stringIcSt11char_traitsIcESaIcEE9_M_assignERKS4_@Base 0.14.0
 (optional=templinst)_ZNSt7__cxx1112basic_stringIcSt11char_traitsIcESaIcEE9_M_createERmm@Base 0.14.0
 (optional=templinst)_ZNSt7__cxx1112basic_stringIcSt11char_traitsIcESaIcEE9_M_mutateEmmPKcm@Base 0.14.0
 (optional=templinst)_ZNSt7__cxx1112basic_stringIcSt11char_traitsIcESaIcEE9push_backEc@Base 0.14.0
 (optional=templinst)_ZNSt7__cxx1112basic_stringIcSt11char_traitsIcESaIcEEC1ERKS4_mm@Base 0.14.0
 (optional=templinst)_ZNSt7__cxx1112basic_stringIcSt11char_traitsIcESaIcEEC1IS3_EEPKcRKS3_@Base 0.14.0
 (optional=templinst)_ZNSt7__cxx1112basic_stringIcSt11char_traitsIcESaIcEEC2ERKS4_mm@Base 0.14.0
 (optional=templinst)_ZNSt7__cxx1112basic_stringIcSt11char_traitsIcESaIcEEC2IS3_EEPKcRKS3_@Base 0.14.0
 (optional=templinst)_ZNSt7__cxx1112basic_stringIcSt11char_traitsIcESaIcEED1Ev@Base 0.14.0
 (optional=templinst)_ZNSt7__cxx1112basic_stringIcSt11char_traitsIcESaIcEED2Ev@Base 0.14.0
 (optional=templinst)_ZNSt7__cxx1112basic_stringIcSt11char_traitsIcESaIcEEaSEOS4_@Base 0.14.0
 (optional=templinst)_ZNSt7__cxx1115basic_stringbufIcSt11char_traitsIcESaIcEED0Ev@Base 0.14.0
 (optional=templinst)_ZNSt7__cxx1115basic_stringbufIcSt11char_traitsIcESaIcEED1Ev@Base 0.14.0
 (optional=templinst)_ZNSt7__cxx1115basic_stringbufIcSt11char_traitsIcESaIcEED2Ev@Base 0.14.0
 (optional=templinst)_ZNSt8_Rb_treeIN4butl10basic_pathIcNS0_13any_path_kindIcEEEESt4pairIKS4_NS1_IcNS0_13dir_path_kindIcEEEEESt10_Select1stISA_ENS0_14compare_prefixIS4_EESaISA_EE17_M_emplace_uniqueIJS9_S9_EEES5_ISt17_Rb_tree_iteratorISA_EbEDpOT_@Base 0.14.0
 (optional=templinst)_ZNSt8_Rb_treeIN4butl10basic_pathIcNS0_13any_path_kindIcEEEESt4pairIKS4_NS1_IcNS0_13dir_path_kindIcEEEEESt10_Select1stISA_ENS0_14compare_prefixIS4_EESaISA_EE4findERS6_@Base 0.14.0
 (optional=templinst)_ZNSt8_Rb_treeIN4butl10basic_pathIcNS0_13any_path_kindIcEEEESt4pairIKS4_NS1_IcNS0_13dir_path_kindIcEEEEESt10_Select1stISA_ENS0_14compare_prefixIS4_EESaISA_EE8_M_eraseEPSt13_Rb_tree_nodeISA_E@Base 0.14.0
 (optional=templinst)_ZNSt8_Rb_treeIN4butl10basic_pathIcNS0_13dir_path_kindIcEEEESt4pairIKS4_N6build22cc12compile_rule12prefix_valueEESt10_Select1stISB_ENS0_14compare_prefixIS4_EESaISB_EE17_M_emplace_uniqueIJS4_SA_EEES5_ISt17_Rb_tree_iteratorISB_EbEDpOT_@Base 0.14.0
 (optional=templinst)_ZNSt8_Rb_treeIN4butl10basic_pathIcNS0_13dir_path_kindIcEEEESt4pairIKS4_N6build22cc12compile_rule12prefix_valueEESt10_Select1stISB_ENS0_14compare_prefixIS4_EESaISB_EE4findERS6_@Base 0.14.0
 (optional=templinst)_ZNSt8_Rb_treeIN4butl10basic_pathIcNS0_13dir_path_kindIcEEEESt4pairIKS4_N6build22cc12compile_rule12prefix_valueEESt10_Select1stISB_ENS0_14compare_prefixIS4_EESaISB_EE8_M_eraseEPSt13_Rb_tree_nodeISB_E@Base 0.14.0
 (optional=templinst)_ZNSt8_Rb_treeIN6build220variable_pattern_map7patternESt4pairIKS2_NS0_12variable_mapEESt10_Select1stIS6_ENS1_15pattern_compareESaIS6_EE17_M_emplace_uniqueIJS2_S5_EEES3_ISt17_Rb_tree_iteratorIS6_EbEDpOT_@Base 0.14.0
 (optional=templinst)_ZNSt8_Rb_treeIN6build220variable_pattern_map7patternESt4pairIKS2_NS0_12variable_mapEESt10_Select1stIS6_ENS1_15pattern_compareESaIS6_EE24_M_get_insert_unique_posERS4_@Base 0.14.0
 (optional=templinst)_ZNSt8_Rb_treeIN6build220variable_pattern_map7patternESt4pairIKS2_NS0_12variable_mapEESt10_Select1stIS6_ENS1_15pattern_compareESaIS6_EE8_M_eraseEPSt13_Rb_tree_nodeIS6_E@Base 0.14.0
 (optional=templinst)_ZNSt8_Rb_treeIN6build22cc9link_rule11windows_dllES3_St9_IdentityIS3_ESt4lessIS3_ESaIS3_EE16_M_insert_uniqueIS3_EESt4pairISt17_Rb_tree_iteratorIS3_EbEOT_@Base 0.14.0
 (optional=templinst)_ZNSt8_Rb_treeIN6build22cc9link_rule11windows_dllES3_St9_IdentityIS3_ESt4lessIS3_ESaIS3_EE8_M_eraseEPSt13_Rb_tree_nodeIS3_E@Base 0.14.0
 (optional=templinst)_ZNSt8_Rb_treeINSt7__cxx1112basic_stringIcSt11char_traitsIcESaIcEEESt4pairIKS5_N6build215target_type_map15target_type_refEESt10_Select1stISB_ESt4lessIS5_ESaISB_EE17_M_emplace_uniqueIJRKPKcSA_EEES6_ISt17_Rb_tree_iteratorISB_EbEDpOT_@Base 0.14.0
 (optional=templinst)_ZNSt8_Rb_treeINSt7__cxx1112basic_stringIcSt11char_traitsIcESaIcEEESt4pairIKS5_N6build22cc11search_dirsEESt10_Select1stISB_ESt4lessIS5_ESaISB_EE17_M_emplace_uniqueIJS6_IS5_SA_EEEES6_ISt17_Rb_tree_iteratorISB_EbEDpOT_@Base 0.14.0
 (optional=templinst)_ZNSt8_Rb_treeINSt7__cxx1112basic_stringIcSt11char_traitsIcESaIcEEESt4pairIKS5_N6build22cc11search_dirsEESt10_Select1stISB_ESt4lessIS5_ESaISB_EE8_M_eraseEPSt13_Rb_tree_nodeISB_E@Base 0.14.0
 (optional=templinst)_ZNSt8_Rb_treeINSt7__cxx1112basic_stringIcSt11char_traitsIcESaIcEEESt4pairIKS5_N6build22cc13compiler_infoEESt10_Select1stISB_ESt4lessIS5_ESaISB_EE17_M_emplace_uniqueIJS6_IS5_SA_EEEES6_ISt17_Rb_tree_iteratorISB_EbEDpOT_@Base 0.14.0
 (optional=templinst)_ZNSt8_Rb_treeINSt7__cxx1112basic_stringIcSt11char_traitsIcESaIcEEESt4pairIKS5_N6build22cc13compiler_infoEESt10_Select1stISB_ESt4lessIS5_ESaISB_EE8_M_eraseEPSt13_Rb_tree_nodeISB_E@Base 0.14.0
 (optional=templinst)_ZNSt8_Rb_treeINSt7__cxx1112basic_stringIcSt11char_traitsIcESaIcEEESt4pairIKS5_N6build22cc18importable_headersEESt10_Select1stISB_ESt4lessIS5_ESaISB_EE22_M_emplace_hint_uniqueIJRKSt21piecewise_construct_tSt5tupleIJOS5_EESM_IJEEEEESt17_Rb_tree_iteratorISB_ESt23_Rb_tree_const_iteratorISB_EDpOT_@Base 0.14.0
 (optional=templinst)_ZNSt8_Rb_treeINSt7__cxx1112basic_stringIcSt11char_traitsIcESaIcEEESt4pairIKS5_N6build22cc18importable_headersEESt10_Select1stISB_ESt4lessIS5_ESaISB_EE24_M_get_insert_unique_posERS7_@Base 0.14.0
 (optional=templinst)_ZNSt8_Rb_treeINSt7__cxx1112basic_stringIcSt11char_traitsIcESaIcEEESt4pairIKS5_N6build22cc18importable_headersEESt10_Select1stISB_ESt4lessIS5_ESaISB_EE29_M_get_insert_hint_unique_posESt23_Rb_tree_const_iteratorISB_ERS7_@Base 0.14.0
 (optional=templinst)_ZNSt8_Rb_treeINSt7__cxx1112basic_stringIcSt11char_traitsIcESaIcEEESt4pairIKS5_N6build22cc18importable_headersEESt10_Select1stISB_ESt4lessIS5_ESaISB_EE8_M_eraseEPSt13_Rb_tree_nodeISB_E@Base 0.14.0
 (optional=templinst)_ZNSt8_Rb_treeINSt7__cxx1112basic_stringIcSt11char_traitsIcESaIcEEESt4pairIKS5_St17reference_wrapperIKN6build24ruleEEESt10_Select1stISD_EN4butl14compare_prefixIS5_EESaISD_EE17_M_emplace_uniqueIJS5_RSB_EEES6_ISt17_Rb_tree_iteratorISD_EbEDpOT_@Base 0.14.0
 (optional=templinst)_ZNSt8_Rb_treeINSt7__cxx1112basic_stringIcSt11char_traitsIcESaIcEEESt4pairIKS5_St17reference_wrapperIKN6build24ruleEEESt10_Select1stISD_EN4butl14compare_prefixIS5_EESaISD_EE8_M_eraseEPSt13_Rb_tree_nodeISD_E@Base 0.14.0
 (optional=templinst)_ZNSt8_Rb_treeINSt7__cxx1112basic_stringIcSt11char_traitsIcESaIcEEESt4pairIKS5_St8optionalIbEESt10_Select1stISA_ESt4lessIS5_ESaISA_EE7_M_copyINSG_11_Alloc_nodeEEEPSt13_Rb_tree_nodeISA_EPKSK_PSt18_Rb_tree_node_baseRT_@Base 0.14.0
 (optional=templinst)_ZNSt8_Rb_treeINSt7__cxx1112basic_stringIcSt11char_traitsIcESaIcEEESt4pairIKS5_St8optionalIbEESt10_Select1stISA_ESt4lessIS5_ESaISA_EE8_M_eraseEPSt13_Rb_tree_nodeISA_E@Base 0.14.0
 (optional=templinst)_ZNSt8_Rb_treeIPKN6build211target_typeESt4pairIKS3_N4butl15prefix_map_implISt3mapINSt7__cxx1112basic_stringIcSt11char_traitsIcESaIcEEESt17reference_wrapperIKNS0_4ruleEENS6_14compare_prefixISE_EESaIS4_IKSE_SI_EEELc46EEEESt10_Select1stISQ_ESt4lessIS3_ESaISQ_EE24_M_get_insert_unique_posERS5_@Base 0.14.0
 (optional=templinst)_ZNSt8_Rb_treeIPKN6build211target_typeESt4pairIKS3_N4butl15prefix_map_implISt3mapINSt7__cxx1112basic_stringIcSt11char_traitsIcESaIcEEESt17reference_wrapperIKNS0_4ruleEENS6_14compare_prefixISE_EESaIS4_IKSE_SI_EEELc46EEEESt10_Select1stISQ_ESt4lessIS3_ESaISQ_EE29_M_get_insert_hint_unique_posESt23_Rb_tree_const_iteratorISQ_ERS5_@Base 0.14.0
 (optional=templinst)_ZNSt8_Rb_treeIPKN6build211target_typeESt4pairIKS3_N4butl15prefix_map_implISt3mapINSt7__cxx1112basic_stringIcSt11char_traitsIcESaIcEEESt17reference_wrapperIKNS0_4ruleEENS6_14compare_prefixISE_EESaIS4_IKSE_SI_EEELc46EEEESt10_Select1stISQ_ESt4lessIS3_ESaISQ_EE8_M_eraseEPSt13_Rb_tree_nodeISQ_E@Base 0.14.0
 (optional=templinst)_ZNSt8_Rb_treeISt17reference_wrapperIKN6build211target_typeEESt4pairIKS4_NS1_20variable_pattern_mapEESt10_Select1stIS8_ESt4lessIS4_ESaIS8_EE17_M_emplace_uniqueIJRS3_S7_EEES5_ISt17_Rb_tree_iteratorIS8_EbEDpOT_@Base 0.14.0
 (optional=templinst)_ZNSt8_Rb_treeISt17reference_wrapperIKN6build28variableEESt4pairIKS4_NS1_12variable_map10value_dataEESt10_Select1stIS9_EN4butl14compare_prefixIS4_EESaIS9_EE7_M_copyINSG_11_Alloc_nodeEEEPSt13_Rb_tree_nodeIS9_EPKSK_PSt18_Rb_tree_node_baseRT_@Base 0.14.0
 (optional=templinst)_ZNSt8_Rb_treeISt17reference_wrapperIKN6build28variableEESt4pairIKS4_NS1_12variable_map10value_dataEESt10_Select1stIS9_EN4butl14compare_prefixIS4_EESaIS9_EE8_M_eraseEPSt13_Rb_tree_nodeIS9_E@Base 0.14.0
 (optional=templinst)_ZNSt8_Rb_treeIhSt4pairIKhN6build25scope18operation_callbackEESt10_Select1stIS5_ESt4lessIhESaIS5_EE16_M_emplace_equalIJRS1_S4_EEESt17_Rb_tree_iteratorIS5_EDpOT_@Base 0.14.0
 _ZSt19piecewise_construct@Base 0.14.0
 (optional=templinst)_ZSt22__uninitialized_copy_aIPKN6build217clean_adhoc_extraEPS1_N4butl15small_allocatorIS1_Lm2ENS5_22small_allocator_bufferIS1_Lm2EEEEEET0_T_SB_SA_RT1_@Base 0.14.0
 (optional=templinst)_ZSt9__find_ifIN9__gnu_cxx17__normal_iteratorIPKN6build212module_stateESt6vectorIS3_SaIS3_EEEENS0_5__ops10_Iter_predIZNKS2_10module_map4findERKNSt7__cxx1112basic_stringIcSt11char_traitsIcESaIcEEEEUlRS4_E_EEET_SO_SO_T0_St26random_access_iterator_tag@Base 0.14.0
 (optional=templinst)_ZSt9__find_ifIN9__gnu_cxx17__normal_iteratorIPKNSt7__cxx1112basic_stringIcSt11char_traitsIcESaIcEEESt6vectorIS7_N4butl15small_allocatorIS7_Lm3ENSB_22small_allocator_bufferIS7_Lm3EEEEEEEENS0_5__ops16_Iter_equals_valIS8_EEET_SL_SL_T0_St26random_access_iterator_tag@Base 0.14.0
 (optional=templinst)_ZSt9__find_ifIN9__gnu_cxx17__normal_iteratorIPN4butl10basic_pathIcNS2_13dir_path_kindIcEEEESt6vectorIS6_SaIS6_EEEENS0_5__ops16_Iter_equals_valIKS6_EEET_SG_SG_T0_St26random_access_iterator_tag@Base 0.14.0
 (optional=templinst)_ZSt9__find_ifIN9__gnu_cxx17__normal_iteratorIPN6build22cc9link_rule16appended_libraryESt6vectorIS5_N4butl15small_allocatorIS5_Lm128ENS8_22small_allocator_bufferIS5_Lm128EEEEEEEENS0_5__ops10_Iter_predIZNS4_18appended_libraries6appendERKNS2_4fileEmEUlRKS5_E_EEET_SP_SP_T0_St26random_access_iterator_tag@Base 0.14.0
 (optional=templinst)_ZSt9__find_ifIN9__gnu_cxx17__normal_iteratorIPN6build22cc9link_rule16appended_libraryESt6vectorIS5_N4butl15small_allocatorIS5_Lm128ENS8_22small_allocator_bufferIS5_Lm128EEEEEEEENS0_5__ops10_Iter_predIZNS4_18appended_libraries6appendERKNS8_12small_vectorISt17reference_wrapperIKNSt7__cxx1112basic_stringIcSt11char_traitsIcESaIcEEEELm2EEEmEUlRKS5_E_EEET_SZ_SZ_T0_St26random_access_iterator_tag@Base 0.14.0
 (optional=templinst)_ZSt9__find_ifIN9__gnu_cxx17__normal_iteratorIPNSt7__cxx1112basic_stringIcSt11char_traitsIcESaIcEEESt6vectorIS7_SaIS7_EEEENS0_5__ops16_Iter_equals_valIKS7_EEET_SH_SH_T0_St26random_access_iterator_tag@Base 0.14.0
 (optional=templinst)_ZSteqIcEN9__gnu_cxx11__enable_ifIXsrSt9__is_charIT_E7__valueEbE6__typeERKNSt7__cxx1112basic_stringIS3_St11char_traitsIS3_ESaIS3_EEESE_@Base 0.14.0
 (optional=templinst)_ZStplIcSt11char_traitsIcESaIcEENSt7__cxx1112basic_stringIT_T0_T1_EEOS8_PKS5_@Base 0.14.0
 (optional=templinst)_ZStplIcSt11char_traitsIcESaIcEENSt7__cxx1112basic_stringIT_T0_T1_EEPKS5_OS8_@Base 0.14.0
 (optional=templinst)_ZStplIcSt11char_traitsIcESaIcEENSt7__cxx1112basic_stringIT_T0_T1_EEPKS5_RKS8_@Base 0.14.0
 _ZTIFN6build212target_stateENS_6actionERKNS_5scopeERKNS_3dirEE@Base 0.14.0
 _ZTIN4butl13process_errorE@Base 0.14.0
 _ZTIN4butl17invalid_path_baseE@Base 0.14.0
 _ZTIN4butl18invalid_basic_pathIcEE@Base 0.14.0
 _ZTIN6build211path_targetE@Base 0.14.0
 _ZTIN6build212mtime_targetE@Base 0.14.0
 _ZTIN6build22cc11config_dataE@Base 0.14.0
 _ZTIN6build22cc12compile_ruleE@Base 0.14.0
 _ZTIN6build22cc12install_ruleE@Base 0.14.0
 _ZTIN6build22cc18libux_install_ruleE@Base 0.14.0
 _ZTIN6build22cc1cE@Base 0.14.0
 _ZTIN6build22cc1hE@Base 0.14.0
 _ZTIN6build22cc2ccE@Base 0.14.0
 _ZTIN6build22cc2pcE@Base 0.14.0
 _ZTIN6build22cc3pcaE@Base 0.14.0
 _ZTIN6build22cc3pcsE@Base 0.14.0
 _ZTIN6build22cc4dataE@Base 0.14.0
 _ZTIN6build22cc6commonE@Base 0.14.0
 _ZTIN6build22cc9link_ruleE@Base 0.14.0
 _ZTIN6build23bin3bmiE@Base 0.14.0
 _ZTIN6build23bin3defE@Base 0.14.0
 _ZTIN6build23bin3objE@Base 0.14.0
 _ZTIN6build23bin4bmiaE@Base 0.14.0
 _ZTIN6build23bin4bmieE@Base 0.14.0
 _ZTIN6build23bin4bmisE@Base 0.14.0
 _ZTIN6build23bin4bmixE@Base 0.14.0
 _ZTIN6build23bin4hbmiE@Base 0.14.0
 _ZTIN6build23bin4libaE@Base 0.14.0
 _ZTIN6build23bin4libsE@Base 0.14.0
 _ZTIN6build23bin4libxE@Base 0.14.0
 _ZTIN6build23bin4objaE@Base 0.14.0
 _ZTIN6build23bin4objeE@Base 0.14.0
 _ZTIN6build23bin4objsE@Base 0.14.0
 _ZTIN6build23bin4objxE@Base 0.14.0
 _ZTIN6build23bin5hbmixE@Base 0.14.0
 _ZTIN6build23bin5libuaE@Base 0.14.0
 _ZTIN6build23bin5libueE@Base 0.14.0
 _ZTIN6build23bin5libulE@Base 0.14.0
 _ZTIN6build23bin5libusE@Base 0.14.0
 _ZTIN6build23bin5libuxE@Base 0.14.0
 _ZTIN6build23exeE@Base 0.14.0
 _ZTIN6build24fileE@Base 0.14.0
 _ZTIN6build25fsdirE@Base 0.14.0
 _ZTIN6build26failedE@Base 0.14.0
 _ZTIPFN6build212target_stateENS_6actionERKNS_5scopeERKNS_3dirEE@Base 0.14.0
 _ZTISt11__pair_baseIN4butl10entry_typeESt12system_errorE@Base 0.14.0
 _ZTISt4pairIN4butl10entry_typeESt12system_errorE@Base 0.14.0
 _ZTIZNK6build22cc12compile_rule22append_library_optionsIN4butl6sha256EEEvRNS3_12small_vectorIPKNS_4fileELm256EEERT_RKNS_5scopeENS_6actionERS7_bNS_3bin5linfoEEUlRKNS_6targetERKNSt7__cxx1112basic_stringIcSt11char_traitsIcESaIcEEEbbE0_@Base 0.14.0
 _ZTIZNK6build22cc12compile_rule22append_library_optionsIN4butl6sha256EEEvRNS3_12small_vectorIPKNS_4fileELm256EEERT_RKNS_5scopeENS_6actionERS7_bNS_3bin5linfoEEUlRKNS_6targetEbE_@Base 0.14.0
 _ZTIZNK6build22cc12compile_rule22append_library_optionsISt6vectorINSt7__cxx1112basic_stringIcSt11char_traitsIcESaIcEEESaIS9_EEEEvRN4butl12small_vectorIPKNS_4fileELm256EEERT_RKNS_5scopeENS_6actionERSF_bNS_3bin5linfoEEUlRKNS_6targetERKS9_bbE0_@Base 0.14.0
 _ZTIZNK6build22cc12compile_rule22append_library_optionsISt6vectorINSt7__cxx1112basic_stringIcSt11char_traitsIcESaIcEEESaIS9_EEEEvRN4butl12small_vectorIPKNS_4fileELm256EEERT_RKNS_5scopeENS_6actionERSF_bNS_3bin5linfoEEUlRKNS_6targetEbE_@Base 0.14.0
 _ZTIZNK6build22cc12compile_rule22append_library_optionsISt6vectorIPKcSaIS5_EEEEvRN4butl12small_vectorIPKNS_4fileELm256EEERT_RKNS_5scopeENS_6actionERSB_bNS_3bin5linfoEEUlRKNS_6targetERKNSt7__cxx1112basic_stringIcSt11char_traitsIcESaIcEEEbbE0_@Base 0.14.0
 _ZTIZNK6build22cc12compile_rule22append_library_optionsISt6vectorIPKcSaIS5_EEEEvRN4butl12small_vectorIPKNS_4fileELm256EEERT_RKNS_5scopeENS_6actionERSB_bNS_3bin5linfoEEUlRKNS_6targetEbE_@Base 0.14.0
 _ZTSFN6build212target_stateENS_6actionERKNS_5scopeERKNS_3dirEE@Base 0.14.0
 _ZTSN4butl13process_errorE@Base 0.14.0
 _ZTSN4butl17invalid_path_baseE@Base 0.14.0
 _ZTSN4butl18invalid_basic_pathIcEE@Base 0.14.0
 _ZTSN6build211path_targetE@Base 0.14.0
 _ZTSN6build212mtime_targetE@Base 0.14.0
 _ZTSN6build22cc11config_dataE@Base 0.14.0
 _ZTSN6build22cc12compile_ruleE@Base 0.14.0
 _ZTSN6build22cc12install_ruleE@Base 0.14.0
 _ZTSN6build22cc18libux_install_ruleE@Base 0.14.0
 _ZTSN6build22cc1cE@Base 0.14.0
 _ZTSN6build22cc1hE@Base 0.14.0
 _ZTSN6build22cc2ccE@Base 0.14.0
 _ZTSN6build22cc2pcE@Base 0.14.0
 _ZTSN6build22cc3pcaE@Base 0.14.0
 _ZTSN6build22cc3pcsE@Base 0.14.0
 _ZTSN6build22cc4dataE@Base 0.14.0
 _ZTSN6build22cc6commonE@Base 0.14.0
 _ZTSN6build22cc9link_ruleE@Base 0.14.0
 _ZTSN6build23bin3bmiE@Base 0.14.0
 _ZTSN6build23bin3defE@Base 0.14.0
 _ZTSN6build23bin3objE@Base 0.14.0
 _ZTSN6build23bin4bmiaE@Base 0.14.0
 _ZTSN6build23bin4bmieE@Base 0.14.0
 _ZTSN6build23bin4bmisE@Base 0.14.0
 _ZTSN6build23bin4bmixE@Base 0.14.0
 _ZTSN6build23bin4hbmiE@Base 0.14.0
 _ZTSN6build23bin4libaE@Base 0.14.0
 _ZTSN6build23bin4libsE@Base 0.14.0
 _ZTSN6build23bin4libxE@Base 0.14.0
 _ZTSN6build23bin4objaE@Base 0.14.0
 _ZTSN6build23bin4objeE@Base 0.14.0
 _ZTSN6build23bin4objsE@Base 0.14.0
 _ZTSN6build23bin4objxE@Base 0.14.0
 _ZTSN6build23bin5hbmixE@Base 0.14.0
 _ZTSN6build23bin5libuaE@Base 0.14.0
 _ZTSN6build23bin5libueE@Base 0.14.0
 _ZTSN6build23bin5libulE@Base 0.14.0
 _ZTSN6build23bin5libusE@Base 0.14.0
 _ZTSN6build23bin5libuxE@Base 0.14.0
 _ZTSN6build23exeE@Base 0.14.0
 _ZTSN6build24fileE@Base 0.14.0
 _ZTSN6build25fsdirE@Base 0.14.0
 _ZTSN6build26failedE@Base 0.14.0
 _ZTSPFN6build212target_stateENS_6actionERKNS_5scopeERKNS_3dirEE@Base 0.14.0
 _ZTSPFN6build212target_stateENS_6actionERKNS_6targetEE@Base 0.14.0
 _ZTSSt11__pair_baseIN4butl10entry_typeESt12system_errorE@Base 0.14.0
 _ZTSSt4pairIN4butl10entry_typeESt12system_errorE@Base 0.14.0
 _ZTSZNK6build22cc12compile_rule22append_library_optionsIN4butl6sha256EEEvRNS3_12small_vectorIPKNS_4fileELm256EEERT_RKNS_5scopeENS_6actionERS7_bNS_3bin5linfoEEUlRKNS_6targetERKNSt7__cxx1112basic_stringIcSt11char_traitsIcESaIcEEEbbE0_@Base 0.14.0
 _ZTSZNK6build22cc12compile_rule22append_library_optionsIN4butl6sha256EEEvRNS3_12small_vectorIPKNS_4fileELm256EEERT_RKNS_5scopeENS_6actionERS7_bNS_3bin5linfoEEUlRKNS_6targetEbE_@Base 0.14.0
 _ZTSZNK6build22cc12compile_rule22append_library_optionsISt6vectorINSt7__cxx1112basic_stringIcSt11char_traitsIcESaIcEEESaIS9_EEEEvRN4butl12small_vectorIPKNS_4fileELm256EEERT_RKNS_5scopeENS_6actionERSF_bNS_3bin5linfoEEUlRKNS_6targetERKS9_bbE0_@Base 0.14.0
 _ZTSZNK6build22cc12compile_rule22append_library_optionsISt6vectorINSt7__cxx1112basic_stringIcSt11char_traitsIcESaIcEEESaIS9_EEEEvRN4butl12small_vectorIPKNS_4fileELm256EEERT_RKNS_5scopeENS_6actionERSF_bNS_3bin5linfoEEUlRKNS_6targetEbE_@Base 0.14.0
 _ZTSZNK6build22cc12compile_rule22append_library_optionsISt6vectorIPKcSaIS5_EEEEvRN4butl12small_vectorIPKNS_4fileELm256EEERT_RKNS_5scopeENS_6actionERSB_bNS_3bin5linfoEEUlRKNS_6targetERKNSt7__cxx1112basic_stringIcSt11char_traitsIcESaIcEEEbbE0_@Base 0.14.0
 _ZTSZNK6build22cc12compile_rule22append_library_optionsISt6vectorIPKcSaIS5_EEEEvRN4butl12small_vectorIPKNS_4fileELm256EEERT_RKNS_5scopeENS_6actionERSB_bNS_3bin5linfoEEUlRKNS_6targetEbE_@Base 0.14.0
 _ZTTN6build22cc12compile_ruleE@Base 0.14.0
 _ZTTN6build22cc12install_ruleE@Base 0.14.0
 _ZTTN6build22cc18libux_install_ruleE@Base 0.14.0
 _ZTTN6build22cc9link_ruleE@Base 0.14.0
 _ZTVN4butl17invalid_path_baseE@Base 0.14.0
 _ZTVN4butl18invalid_basic_pathIcEE@Base 0.14.0
 _ZTVN6build211path_targetE@Base 0.14.0
 _ZTVN6build212mtime_targetE@Base 0.14.0
 _ZTVN6build22cc12compile_ruleE@Base 0.14.0
 _ZTVN6build22cc12install_ruleE@Base 0.14.0
 _ZTVN6build22cc18libux_install_ruleE@Base 0.14.0
 _ZTVN6build22cc1cE@Base 0.14.0
 _ZTVN6build22cc1hE@Base 0.14.0
 _ZTVN6build22cc2pcE@Base 0.14.0
 _ZTVN6build22cc3pcaE@Base 0.14.0
 _ZTVN6build22cc3pcsE@Base 0.14.0
 _ZTVN6build22cc9link_ruleE@Base 0.14.0
 _ZTVN6build26failedE@Base 0.14.0
 _ZZN6build214fail_mark_baseC4EPKcPKvENUlRKN4butl11diag_recordEE_4_FUNES8_@Base 0.14.0
 _ZZN6build215trace_mark_baseC4EPKcS2_PKvENUlvE_4_FUNEv@Base 0.14.0
 (optional=templinst)_ZZN6build22cc12compile_typeERKNS_11target_typeESt8optionalINS0_9unit_typeEEENKUlRKT_RKT0_RKT1_E_clIS1_S1_S1_EEDaS9_SC_SF_@Base 0.14.0
